   1              		.syntax unified
   2              		.cpu cortex-m4
   3              		.eabi_attribute 27, 3
   4              		.fpu fpv4-sp-d16
   5              		.eabi_attribute 20, 1
   6              		.eabi_attribute 21, 1
   7              		.eabi_attribute 23, 3
   8              		.eabi_attribute 24, 1
   9              		.eabi_attribute 25, 1
  10              		.eabi_attribute 26, 1
  11              		.eabi_attribute 30, 6
  12              		.eabi_attribute 34, 1
  13              		.eabi_attribute 18, 4
  14              		.thumb
  15              		.file	"stm32f4xx_tim.c"
  16              		.text
  17              	.Ltext0:
  18              		.cfi_sections	.debug_frame
  19              		.section	.rodata
  20              		.align	2
  21              	.LC0:
  22 0000 6C69622F 		.ascii	"lib/chip/STM32F4xx_StdPeriph_Driver/src/stm32f4xx_t"
  22      63686970 
  22      2F53544D 
  22      33324634 
  22      78785F53 
  23 0033 696D2E63 		.ascii	"im.c\000"
  23      00
  24              		.section	.text.TIM_DeInit,"ax",%progbits
  25              		.align	2
  26              		.global	TIM_DeInit
  27              		.thumb
  28              		.thumb_func
  30              	TIM_DeInit:
  31              	.LFB110:
  32              		.file 1 "lib/chip/STM32F4xx_StdPeriph_Driver/src/stm32f4xx_tim.c"
   1:lib/chip/STM32F4xx_StdPeriph_Driver/src/stm32f4xx_tim.c **** /**
   2:lib/chip/STM32F4xx_StdPeriph_Driver/src/stm32f4xx_tim.c ****   ******************************************************************************
   3:lib/chip/STM32F4xx_StdPeriph_Driver/src/stm32f4xx_tim.c ****   * @file    stm32f4xx_tim.c
   4:lib/chip/STM32F4xx_StdPeriph_Driver/src/stm32f4xx_tim.c ****   * @author  MCD Application Team
   5:lib/chip/STM32F4xx_StdPeriph_Driver/src/stm32f4xx_tim.c ****   * @version V1.0.0
   6:lib/chip/STM32F4xx_StdPeriph_Driver/src/stm32f4xx_tim.c ****   * @date    30-September-2011
   7:lib/chip/STM32F4xx_StdPeriph_Driver/src/stm32f4xx_tim.c ****   * @brief   This file provides firmware functions to manage the following 
   8:lib/chip/STM32F4xx_StdPeriph_Driver/src/stm32f4xx_tim.c ****   *          functionalities of the TIM peripheral:
   9:lib/chip/STM32F4xx_StdPeriph_Driver/src/stm32f4xx_tim.c ****   *            - TimeBase management
  10:lib/chip/STM32F4xx_StdPeriph_Driver/src/stm32f4xx_tim.c ****   *            - Output Compare management
  11:lib/chip/STM32F4xx_StdPeriph_Driver/src/stm32f4xx_tim.c ****   *            - Input Capture management
  12:lib/chip/STM32F4xx_StdPeriph_Driver/src/stm32f4xx_tim.c ****   *            - Advanced-control timers (TIM1 and TIM8) specific features  
  13:lib/chip/STM32F4xx_StdPeriph_Driver/src/stm32f4xx_tim.c ****   *            - Interrupts, DMA and flags management
  14:lib/chip/STM32F4xx_StdPeriph_Driver/src/stm32f4xx_tim.c ****   *            - Clocks management
  15:lib/chip/STM32F4xx_StdPeriph_Driver/src/stm32f4xx_tim.c ****   *            - Synchronization management
  16:lib/chip/STM32F4xx_StdPeriph_Driver/src/stm32f4xx_tim.c ****   *            - Specific interface management
  17:lib/chip/STM32F4xx_StdPeriph_Driver/src/stm32f4xx_tim.c ****   *            - Specific remapping management      
  18:lib/chip/STM32F4xx_StdPeriph_Driver/src/stm32f4xx_tim.c ****   *              
  19:lib/chip/STM32F4xx_StdPeriph_Driver/src/stm32f4xx_tim.c ****   *  @verbatim
  20:lib/chip/STM32F4xx_StdPeriph_Driver/src/stm32f4xx_tim.c ****   *  
  21:lib/chip/STM32F4xx_StdPeriph_Driver/src/stm32f4xx_tim.c ****   *          ===================================================================
  22:lib/chip/STM32F4xx_StdPeriph_Driver/src/stm32f4xx_tim.c ****   *                                 How to use this driver
  23:lib/chip/STM32F4xx_StdPeriph_Driver/src/stm32f4xx_tim.c ****   *          ===================================================================
  24:lib/chip/STM32F4xx_StdPeriph_Driver/src/stm32f4xx_tim.c ****   *          This driver provides functions to configure and program the TIM 
  25:lib/chip/STM32F4xx_StdPeriph_Driver/src/stm32f4xx_tim.c ****   *          of all STM32F4xx devices.
  26:lib/chip/STM32F4xx_StdPeriph_Driver/src/stm32f4xx_tim.c ****   *          These functions are split in 9 groups: 
  27:lib/chip/STM32F4xx_StdPeriph_Driver/src/stm32f4xx_tim.c ****   *   
  28:lib/chip/STM32F4xx_StdPeriph_Driver/src/stm32f4xx_tim.c ****   *          1. TIM TimeBase management: this group includes all needed functions 
  29:lib/chip/STM32F4xx_StdPeriph_Driver/src/stm32f4xx_tim.c ****   *             to configure the TM Timebase unit:
  30:lib/chip/STM32F4xx_StdPeriph_Driver/src/stm32f4xx_tim.c ****   *                   - Set/Get Prescaler
  31:lib/chip/STM32F4xx_StdPeriph_Driver/src/stm32f4xx_tim.c ****   *                   - Set/Get Autoreload  
  32:lib/chip/STM32F4xx_StdPeriph_Driver/src/stm32f4xx_tim.c ****   *                   - Counter modes configuration
  33:lib/chip/STM32F4xx_StdPeriph_Driver/src/stm32f4xx_tim.c ****   *                   - Set Clock division  
  34:lib/chip/STM32F4xx_StdPeriph_Driver/src/stm32f4xx_tim.c ****   *                   - Select the One Pulse mode
  35:lib/chip/STM32F4xx_StdPeriph_Driver/src/stm32f4xx_tim.c ****   *                   - Update Request Configuration
  36:lib/chip/STM32F4xx_StdPeriph_Driver/src/stm32f4xx_tim.c ****   *                   - Update Disable Configuration
  37:lib/chip/STM32F4xx_StdPeriph_Driver/src/stm32f4xx_tim.c ****   *                   - Auto-Preload Configuration 
  38:lib/chip/STM32F4xx_StdPeriph_Driver/src/stm32f4xx_tim.c ****   *                   - Enable/Disable the counter     
  39:lib/chip/STM32F4xx_StdPeriph_Driver/src/stm32f4xx_tim.c ****   *                 
  40:lib/chip/STM32F4xx_StdPeriph_Driver/src/stm32f4xx_tim.c ****   *          2. TIM Output Compare management: this group includes all needed 
  41:lib/chip/STM32F4xx_StdPeriph_Driver/src/stm32f4xx_tim.c ****   *             functions to configure the Capture/Compare unit used in Output 
  42:lib/chip/STM32F4xx_StdPeriph_Driver/src/stm32f4xx_tim.c ****   *             compare mode: 
  43:lib/chip/STM32F4xx_StdPeriph_Driver/src/stm32f4xx_tim.c ****   *                   - Configure each channel, independently, in Output Compare mode
  44:lib/chip/STM32F4xx_StdPeriph_Driver/src/stm32f4xx_tim.c ****   *                   - Select the output compare modes
  45:lib/chip/STM32F4xx_StdPeriph_Driver/src/stm32f4xx_tim.c ****   *                   - Select the Polarities of each channel
  46:lib/chip/STM32F4xx_StdPeriph_Driver/src/stm32f4xx_tim.c ****   *                   - Set/Get the Capture/Compare register values
  47:lib/chip/STM32F4xx_StdPeriph_Driver/src/stm32f4xx_tim.c ****   *                   - Select the Output Compare Fast mode 
  48:lib/chip/STM32F4xx_StdPeriph_Driver/src/stm32f4xx_tim.c ****   *                   - Select the Output Compare Forced mode  
  49:lib/chip/STM32F4xx_StdPeriph_Driver/src/stm32f4xx_tim.c ****   *                   - Output Compare-Preload Configuration 
  50:lib/chip/STM32F4xx_StdPeriph_Driver/src/stm32f4xx_tim.c ****   *                   - Clear Output Compare Reference
  51:lib/chip/STM32F4xx_StdPeriph_Driver/src/stm32f4xx_tim.c ****   *                   - Select the OCREF Clear signal
  52:lib/chip/STM32F4xx_StdPeriph_Driver/src/stm32f4xx_tim.c ****   *                   - Enable/Disable the Capture/Compare Channels    
  53:lib/chip/STM32F4xx_StdPeriph_Driver/src/stm32f4xx_tim.c ****   *                   
  54:lib/chip/STM32F4xx_StdPeriph_Driver/src/stm32f4xx_tim.c ****   *          3. TIM Input Capture management: this group includes all needed 
  55:lib/chip/STM32F4xx_StdPeriph_Driver/src/stm32f4xx_tim.c ****   *             functions to configure the Capture/Compare unit used in 
  56:lib/chip/STM32F4xx_StdPeriph_Driver/src/stm32f4xx_tim.c ****   *             Input Capture mode:
  57:lib/chip/STM32F4xx_StdPeriph_Driver/src/stm32f4xx_tim.c ****   *                   - Configure each channel in input capture mode
  58:lib/chip/STM32F4xx_StdPeriph_Driver/src/stm32f4xx_tim.c ****   *                   - Configure Channel1/2 in PWM Input mode
  59:lib/chip/STM32F4xx_StdPeriph_Driver/src/stm32f4xx_tim.c ****   *                   - Set the Input Capture Prescaler
  60:lib/chip/STM32F4xx_StdPeriph_Driver/src/stm32f4xx_tim.c ****   *                   - Get the Capture/Compare values      
  61:lib/chip/STM32F4xx_StdPeriph_Driver/src/stm32f4xx_tim.c ****   *                   
  62:lib/chip/STM32F4xx_StdPeriph_Driver/src/stm32f4xx_tim.c ****   *          4. Advanced-control timers (TIM1 and TIM8) specific features
  63:lib/chip/STM32F4xx_StdPeriph_Driver/src/stm32f4xx_tim.c ****   *                   - Configures the Break input, dead time, Lock level, the OSSI,
  64:lib/chip/STM32F4xx_StdPeriph_Driver/src/stm32f4xx_tim.c ****   *                      the OSSR State and the AOE(automatic output enable)
  65:lib/chip/STM32F4xx_StdPeriph_Driver/src/stm32f4xx_tim.c ****   *                   - Enable/Disable the TIM peripheral Main Outputs
  66:lib/chip/STM32F4xx_StdPeriph_Driver/src/stm32f4xx_tim.c ****   *                   - Select the Commutation event
  67:lib/chip/STM32F4xx_StdPeriph_Driver/src/stm32f4xx_tim.c ****   *                   - Set/Reset the Capture Compare Preload Control bit
  68:lib/chip/STM32F4xx_StdPeriph_Driver/src/stm32f4xx_tim.c ****   *                              
  69:lib/chip/STM32F4xx_StdPeriph_Driver/src/stm32f4xx_tim.c ****   *          5. TIM interrupts, DMA and flags management
  70:lib/chip/STM32F4xx_StdPeriph_Driver/src/stm32f4xx_tim.c ****   *                   - Enable/Disable interrupt sources
  71:lib/chip/STM32F4xx_StdPeriph_Driver/src/stm32f4xx_tim.c ****   *                   - Get flags status
  72:lib/chip/STM32F4xx_StdPeriph_Driver/src/stm32f4xx_tim.c ****   *                   - Clear flags/ Pending bits
  73:lib/chip/STM32F4xx_StdPeriph_Driver/src/stm32f4xx_tim.c ****   *                   - Enable/Disable DMA requests 
  74:lib/chip/STM32F4xx_StdPeriph_Driver/src/stm32f4xx_tim.c ****   *                   - Configure DMA burst mode
  75:lib/chip/STM32F4xx_StdPeriph_Driver/src/stm32f4xx_tim.c ****   *                   - Select CaptureCompare DMA request  
  76:lib/chip/STM32F4xx_StdPeriph_Driver/src/stm32f4xx_tim.c ****   *              
  77:lib/chip/STM32F4xx_StdPeriph_Driver/src/stm32f4xx_tim.c ****   *          6. TIM clocks management: this group includes all needed functions 
  78:lib/chip/STM32F4xx_StdPeriph_Driver/src/stm32f4xx_tim.c ****   *             to configure the clock controller unit:
  79:lib/chip/STM32F4xx_StdPeriph_Driver/src/stm32f4xx_tim.c ****   *                   - Select internal/External clock
  80:lib/chip/STM32F4xx_StdPeriph_Driver/src/stm32f4xx_tim.c ****   *                   - Select the external clock mode: ETR(Mode1/Mode2), TIx or ITRx
  81:lib/chip/STM32F4xx_StdPeriph_Driver/src/stm32f4xx_tim.c ****   *         
  82:lib/chip/STM32F4xx_StdPeriph_Driver/src/stm32f4xx_tim.c ****   *          7. TIM synchronization management: this group includes all needed 
  83:lib/chip/STM32F4xx_StdPeriph_Driver/src/stm32f4xx_tim.c ****   *             functions to configure the Synchronization unit:
  84:lib/chip/STM32F4xx_StdPeriph_Driver/src/stm32f4xx_tim.c ****   *                   - Select Input Trigger  
  85:lib/chip/STM32F4xx_StdPeriph_Driver/src/stm32f4xx_tim.c ****   *                   - Select Output Trigger  
  86:lib/chip/STM32F4xx_StdPeriph_Driver/src/stm32f4xx_tim.c ****   *                   - Select Master Slave Mode 
  87:lib/chip/STM32F4xx_StdPeriph_Driver/src/stm32f4xx_tim.c ****   *                   - ETR Configuration when used as external trigger   
  88:lib/chip/STM32F4xx_StdPeriph_Driver/src/stm32f4xx_tim.c ****   *     
  89:lib/chip/STM32F4xx_StdPeriph_Driver/src/stm32f4xx_tim.c ****   *          8. TIM specific interface management, this group includes all 
  90:lib/chip/STM32F4xx_StdPeriph_Driver/src/stm32f4xx_tim.c ****   *             needed functions to use the specific TIM interface:
  91:lib/chip/STM32F4xx_StdPeriph_Driver/src/stm32f4xx_tim.c ****   *                   - Encoder Interface Configuration
  92:lib/chip/STM32F4xx_StdPeriph_Driver/src/stm32f4xx_tim.c ****   *                   - Select Hall Sensor   
  93:lib/chip/STM32F4xx_StdPeriph_Driver/src/stm32f4xx_tim.c ****   *         
  94:lib/chip/STM32F4xx_StdPeriph_Driver/src/stm32f4xx_tim.c ****   *          9. TIM specific remapping management includes the Remapping 
  95:lib/chip/STM32F4xx_StdPeriph_Driver/src/stm32f4xx_tim.c ****   *             configuration of specific timers               
  96:lib/chip/STM32F4xx_StdPeriph_Driver/src/stm32f4xx_tim.c ****   *   
  97:lib/chip/STM32F4xx_StdPeriph_Driver/src/stm32f4xx_tim.c ****   *  @endverbatim
  98:lib/chip/STM32F4xx_StdPeriph_Driver/src/stm32f4xx_tim.c ****   *    
  99:lib/chip/STM32F4xx_StdPeriph_Driver/src/stm32f4xx_tim.c ****   ******************************************************************************
 100:lib/chip/STM32F4xx_StdPeriph_Driver/src/stm32f4xx_tim.c ****   * @attention
 101:lib/chip/STM32F4xx_StdPeriph_Driver/src/stm32f4xx_tim.c ****   *
 102:lib/chip/STM32F4xx_StdPeriph_Driver/src/stm32f4xx_tim.c ****   * THE PRESENT FIRMWARE WHICH IS FOR GUIDANCE ONLY AIMS AT PROVIDING CUSTOMERS
 103:lib/chip/STM32F4xx_StdPeriph_Driver/src/stm32f4xx_tim.c ****   * WITH CODING INFORMATION REGARDING THEIR PRODUCTS IN ORDER FOR THEM TO SAVE
 104:lib/chip/STM32F4xx_StdPeriph_Driver/src/stm32f4xx_tim.c ****   * TIME. AS A RESULT, STMICROELECTRONICS SHALL NOT BE HELD LIABLE FOR ANY
 105:lib/chip/STM32F4xx_StdPeriph_Driver/src/stm32f4xx_tim.c ****   * DIRECT, INDIRECT OR CONSEQUENTIAL DAMAGES WITH RESPECT TO ANY CLAIMS ARISING
 106:lib/chip/STM32F4xx_StdPeriph_Driver/src/stm32f4xx_tim.c ****   * FROM THE CONTENT OF SUCH FIRMWARE AND/OR THE USE MADE BY CUSTOMERS OF THE
 107:lib/chip/STM32F4xx_StdPeriph_Driver/src/stm32f4xx_tim.c ****   * CODING INFORMATION CONTAINED HEREIN IN CONNECTION WITH THEIR PRODUCTS.
 108:lib/chip/STM32F4xx_StdPeriph_Driver/src/stm32f4xx_tim.c ****   *
 109:lib/chip/STM32F4xx_StdPeriph_Driver/src/stm32f4xx_tim.c ****   * <h2><center>&copy; COPYRIGHT 2011 STMicroelectronics</center></h2>
 110:lib/chip/STM32F4xx_StdPeriph_Driver/src/stm32f4xx_tim.c ****   ******************************************************************************
 111:lib/chip/STM32F4xx_StdPeriph_Driver/src/stm32f4xx_tim.c ****   */
 112:lib/chip/STM32F4xx_StdPeriph_Driver/src/stm32f4xx_tim.c **** 
 113:lib/chip/STM32F4xx_StdPeriph_Driver/src/stm32f4xx_tim.c **** /* Includes ------------------------------------------------------------------*/
 114:lib/chip/STM32F4xx_StdPeriph_Driver/src/stm32f4xx_tim.c **** #include "stm32f4xx_tim.h"
 115:lib/chip/STM32F4xx_StdPeriph_Driver/src/stm32f4xx_tim.c **** #include "stm32f4xx_rcc.h"
 116:lib/chip/STM32F4xx_StdPeriph_Driver/src/stm32f4xx_tim.c **** 
 117:lib/chip/STM32F4xx_StdPeriph_Driver/src/stm32f4xx_tim.c **** /** @addtogroup STM32F4xx_StdPeriph_Driver
 118:lib/chip/STM32F4xx_StdPeriph_Driver/src/stm32f4xx_tim.c ****   * @{
 119:lib/chip/STM32F4xx_StdPeriph_Driver/src/stm32f4xx_tim.c ****   */
 120:lib/chip/STM32F4xx_StdPeriph_Driver/src/stm32f4xx_tim.c **** 
 121:lib/chip/STM32F4xx_StdPeriph_Driver/src/stm32f4xx_tim.c **** /** @defgroup TIM 
 122:lib/chip/STM32F4xx_StdPeriph_Driver/src/stm32f4xx_tim.c ****   * @brief TIM driver modules
 123:lib/chip/STM32F4xx_StdPeriph_Driver/src/stm32f4xx_tim.c ****   * @{
 124:lib/chip/STM32F4xx_StdPeriph_Driver/src/stm32f4xx_tim.c ****   */
 125:lib/chip/STM32F4xx_StdPeriph_Driver/src/stm32f4xx_tim.c **** 
 126:lib/chip/STM32F4xx_StdPeriph_Driver/src/stm32f4xx_tim.c **** /* Private typedef -----------------------------------------------------------*/
 127:lib/chip/STM32F4xx_StdPeriph_Driver/src/stm32f4xx_tim.c **** /* Private define ------------------------------------------------------------*/
 128:lib/chip/STM32F4xx_StdPeriph_Driver/src/stm32f4xx_tim.c **** 
 129:lib/chip/STM32F4xx_StdPeriph_Driver/src/stm32f4xx_tim.c **** /* ---------------------- TIM registers bit mask ------------------------ */
 130:lib/chip/STM32F4xx_StdPeriph_Driver/src/stm32f4xx_tim.c **** #define SMCR_ETR_MASK      ((uint16_t)0x00FF) 
 131:lib/chip/STM32F4xx_StdPeriph_Driver/src/stm32f4xx_tim.c **** #define CCMR_OFFSET        ((uint16_t)0x0018)
 132:lib/chip/STM32F4xx_StdPeriph_Driver/src/stm32f4xx_tim.c **** #define CCER_CCE_SET       ((uint16_t)0x0001)  
 133:lib/chip/STM32F4xx_StdPeriph_Driver/src/stm32f4xx_tim.c **** #define	CCER_CCNE_SET      ((uint16_t)0x0004) 
 134:lib/chip/STM32F4xx_StdPeriph_Driver/src/stm32f4xx_tim.c **** #define CCMR_OC13M_MASK    ((uint16_t)0xFF8F)
 135:lib/chip/STM32F4xx_StdPeriph_Driver/src/stm32f4xx_tim.c **** #define CCMR_OC24M_MASK    ((uint16_t)0x8FFF) 
 136:lib/chip/STM32F4xx_StdPeriph_Driver/src/stm32f4xx_tim.c **** 
 137:lib/chip/STM32F4xx_StdPeriph_Driver/src/stm32f4xx_tim.c **** /* Private macro -------------------------------------------------------------*/
 138:lib/chip/STM32F4xx_StdPeriph_Driver/src/stm32f4xx_tim.c **** /* Private variables ---------------------------------------------------------*/
 139:lib/chip/STM32F4xx_StdPeriph_Driver/src/stm32f4xx_tim.c **** /* Private function prototypes -----------------------------------------------*/
 140:lib/chip/STM32F4xx_StdPeriph_Driver/src/stm32f4xx_tim.c **** static void TI1_Config(TIM_TypeDef* TIMx, uint16_t TIM_ICPolarity, uint16_t TIM_ICSelection,
 141:lib/chip/STM32F4xx_StdPeriph_Driver/src/stm32f4xx_tim.c ****                        uint16_t TIM_ICFilter);
 142:lib/chip/STM32F4xx_StdPeriph_Driver/src/stm32f4xx_tim.c **** static void TI2_Config(TIM_TypeDef* TIMx, uint16_t TIM_ICPolarity, uint16_t TIM_ICSelection,
 143:lib/chip/STM32F4xx_StdPeriph_Driver/src/stm32f4xx_tim.c ****                        uint16_t TIM_ICFilter);
 144:lib/chip/STM32F4xx_StdPeriph_Driver/src/stm32f4xx_tim.c **** static void TI3_Config(TIM_TypeDef* TIMx, uint16_t TIM_ICPolarity, uint16_t TIM_ICSelection,
 145:lib/chip/STM32F4xx_StdPeriph_Driver/src/stm32f4xx_tim.c ****                        uint16_t TIM_ICFilter);
 146:lib/chip/STM32F4xx_StdPeriph_Driver/src/stm32f4xx_tim.c **** static void TI4_Config(TIM_TypeDef* TIMx, uint16_t TIM_ICPolarity, uint16_t TIM_ICSelection,
 147:lib/chip/STM32F4xx_StdPeriph_Driver/src/stm32f4xx_tim.c ****                        uint16_t TIM_ICFilter);
 148:lib/chip/STM32F4xx_StdPeriph_Driver/src/stm32f4xx_tim.c **** 
 149:lib/chip/STM32F4xx_StdPeriph_Driver/src/stm32f4xx_tim.c **** /* Private functions ---------------------------------------------------------*/
 150:lib/chip/STM32F4xx_StdPeriph_Driver/src/stm32f4xx_tim.c **** 
 151:lib/chip/STM32F4xx_StdPeriph_Driver/src/stm32f4xx_tim.c **** /** @defgroup TIM_Private_Functions
 152:lib/chip/STM32F4xx_StdPeriph_Driver/src/stm32f4xx_tim.c ****   * @{
 153:lib/chip/STM32F4xx_StdPeriph_Driver/src/stm32f4xx_tim.c ****   */
 154:lib/chip/STM32F4xx_StdPeriph_Driver/src/stm32f4xx_tim.c **** 
 155:lib/chip/STM32F4xx_StdPeriph_Driver/src/stm32f4xx_tim.c **** /** @defgroup TIM_Group1 TimeBase management functions
 156:lib/chip/STM32F4xx_StdPeriph_Driver/src/stm32f4xx_tim.c ****  *  @brief   TimeBase management functions 
 157:lib/chip/STM32F4xx_StdPeriph_Driver/src/stm32f4xx_tim.c ****  *
 158:lib/chip/STM32F4xx_StdPeriph_Driver/src/stm32f4xx_tim.c **** @verbatim   
 159:lib/chip/STM32F4xx_StdPeriph_Driver/src/stm32f4xx_tim.c ****  ===============================================================================
 160:lib/chip/STM32F4xx_StdPeriph_Driver/src/stm32f4xx_tim.c ****                        TimeBase management functions
 161:lib/chip/STM32F4xx_StdPeriph_Driver/src/stm32f4xx_tim.c ****  ===============================================================================  
 162:lib/chip/STM32F4xx_StdPeriph_Driver/src/stm32f4xx_tim.c ****   
 163:lib/chip/STM32F4xx_StdPeriph_Driver/src/stm32f4xx_tim.c ****        ===================================================================      
 164:lib/chip/STM32F4xx_StdPeriph_Driver/src/stm32f4xx_tim.c ****               TIM Driver: how to use it in Timing(Time base) Mode
 165:lib/chip/STM32F4xx_StdPeriph_Driver/src/stm32f4xx_tim.c ****        =================================================================== 
 166:lib/chip/STM32F4xx_StdPeriph_Driver/src/stm32f4xx_tim.c ****        To use the Timer in Timing(Time base) mode, the following steps are mandatory:
 167:lib/chip/STM32F4xx_StdPeriph_Driver/src/stm32f4xx_tim.c ****        
 168:lib/chip/STM32F4xx_StdPeriph_Driver/src/stm32f4xx_tim.c ****        1. Enable TIM clock using RCC_APBxPeriphClockCmd(RCC_APBxPeriph_TIMx, ENABLE) function
 169:lib/chip/STM32F4xx_StdPeriph_Driver/src/stm32f4xx_tim.c ****                     
 170:lib/chip/STM32F4xx_StdPeriph_Driver/src/stm32f4xx_tim.c ****        2. Fill the TIM_TimeBaseInitStruct with the desired parameters.
 171:lib/chip/STM32F4xx_StdPeriph_Driver/src/stm32f4xx_tim.c ****        
 172:lib/chip/STM32F4xx_StdPeriph_Driver/src/stm32f4xx_tim.c ****        3. Call TIM_TimeBaseInit(TIMx, &TIM_TimeBaseInitStruct) to configure the Time Base unit
 173:lib/chip/STM32F4xx_StdPeriph_Driver/src/stm32f4xx_tim.c ****           with the corresponding configuration
 174:lib/chip/STM32F4xx_StdPeriph_Driver/src/stm32f4xx_tim.c ****           
 175:lib/chip/STM32F4xx_StdPeriph_Driver/src/stm32f4xx_tim.c ****        4. Enable the NVIC if you need to generate the update interrupt. 
 176:lib/chip/STM32F4xx_StdPeriph_Driver/src/stm32f4xx_tim.c ****           
 177:lib/chip/STM32F4xx_StdPeriph_Driver/src/stm32f4xx_tim.c ****        5. Enable the corresponding interrupt using the function TIM_ITConfig(TIMx, TIM_IT_Update) 
 178:lib/chip/STM32F4xx_StdPeriph_Driver/src/stm32f4xx_tim.c ****        
 179:lib/chip/STM32F4xx_StdPeriph_Driver/src/stm32f4xx_tim.c ****        6. Call the TIM_Cmd(ENABLE) function to enable the TIM counter.
 180:lib/chip/STM32F4xx_StdPeriph_Driver/src/stm32f4xx_tim.c ****              
 181:lib/chip/STM32F4xx_StdPeriph_Driver/src/stm32f4xx_tim.c ****        Note1: All other functions can be used separately to modify, if needed,
 182:lib/chip/STM32F4xx_StdPeriph_Driver/src/stm32f4xx_tim.c ****           a specific feature of the Timer. 
 183:lib/chip/STM32F4xx_StdPeriph_Driver/src/stm32f4xx_tim.c **** 
 184:lib/chip/STM32F4xx_StdPeriph_Driver/src/stm32f4xx_tim.c **** @endverbatim
 185:lib/chip/STM32F4xx_StdPeriph_Driver/src/stm32f4xx_tim.c ****   * @{
 186:lib/chip/STM32F4xx_StdPeriph_Driver/src/stm32f4xx_tim.c ****   */
 187:lib/chip/STM32F4xx_StdPeriph_Driver/src/stm32f4xx_tim.c ****   
 188:lib/chip/STM32F4xx_StdPeriph_Driver/src/stm32f4xx_tim.c **** /**
 189:lib/chip/STM32F4xx_StdPeriph_Driver/src/stm32f4xx_tim.c ****   * @brief  Deinitializes the TIMx peripheral registers to their default reset values.
 190:lib/chip/STM32F4xx_StdPeriph_Driver/src/stm32f4xx_tim.c ****   * @param  TIMx: where x can be 1 to 14 to select the TIM peripheral.
 191:lib/chip/STM32F4xx_StdPeriph_Driver/src/stm32f4xx_tim.c ****   * @retval None
 192:lib/chip/STM32F4xx_StdPeriph_Driver/src/stm32f4xx_tim.c **** 
 193:lib/chip/STM32F4xx_StdPeriph_Driver/src/stm32f4xx_tim.c ****   */
 194:lib/chip/STM32F4xx_StdPeriph_Driver/src/stm32f4xx_tim.c **** void TIM_DeInit(TIM_TypeDef* TIMx)
 195:lib/chip/STM32F4xx_StdPeriph_Driver/src/stm32f4xx_tim.c **** {
  33              		.loc 1 195 0
  34              		.cfi_startproc
  35              		@ args = 0, pretend = 0, frame = 8
  36              		@ frame_needed = 1, uses_anonymous_args = 0
  37 0000 80B5     		push	{r7, lr}
  38              	.LCFI0:
  39              		.cfi_def_cfa_offset 8
  40              		.cfi_offset 7, -8
  41              		.cfi_offset 14, -4
  42 0002 82B0     		sub	sp, sp, #8
  43              	.LCFI1:
  44              		.cfi_def_cfa_offset 16
  45 0004 00AF     		add	r7, sp, #0
  46              	.LCFI2:
  47              		.cfi_def_cfa_register 7
  48 0006 7860     		str	r0, [r7, #4]
 196:lib/chip/STM32F4xx_StdPeriph_Driver/src/stm32f4xx_tim.c ****   /* Check the parameters */
 197:lib/chip/STM32F4xx_StdPeriph_Driver/src/stm32f4xx_tim.c ****   assert_param(IS_TIM_ALL_PERIPH(TIMx)); 
  49              		.loc 1 197 0
  50 0008 7A68     		ldr	r2, [r7, #4]
  51 000a 0023     		movs	r3, #0
  52 000c C4F20103 		movt	r3, 16385
  53 0010 9A42     		cmp	r2, r3
  54 0012 5ED0     		beq	.L2
  55              		.loc 1 197 0 is_stmt 0 discriminator 1
  56 0014 7B68     		ldr	r3, [r7, #4]
  57 0016 B3F1804F 		cmp	r3, #1073741824
  58 001a 5AD0     		beq	.L2
  59 001c 7A68     		ldr	r2, [r7, #4]
  60 001e 4FF48063 		mov	r3, #1024
  61 0022 C4F20003 		movt	r3, 16384
  62 0026 9A42     		cmp	r2, r3
  63 0028 53D0     		beq	.L2
  64 002a 7A68     		ldr	r2, [r7, #4]
  65 002c 4FF40063 		mov	r3, #2048
  66 0030 C4F20003 		movt	r3, 16384
  67 0034 9A42     		cmp	r2, r3
  68 0036 4CD0     		beq	.L2
  69 0038 7A68     		ldr	r2, [r7, #4]
  70 003a 4FF44063 		mov	r3, #3072
  71 003e C4F20003 		movt	r3, 16384
  72 0042 9A42     		cmp	r2, r3
  73 0044 45D0     		beq	.L2
  74 0046 7A68     		ldr	r2, [r7, #4]
  75 0048 4FF48053 		mov	r3, #4096
  76 004c C4F20003 		movt	r3, 16384
  77 0050 9A42     		cmp	r2, r3
  78 0052 3ED0     		beq	.L2
  79 0054 7A68     		ldr	r2, [r7, #4]
  80 0056 4FF4A053 		mov	r3, #5120
  81 005a C4F20003 		movt	r3, 16384
  82 005e 9A42     		cmp	r2, r3
  83 0060 37D0     		beq	.L2
  84 0062 7A68     		ldr	r2, [r7, #4]
  85 0064 4FF48063 		mov	r3, #1024
  86 0068 C4F20103 		movt	r3, 16385
  87 006c 9A42     		cmp	r2, r3
  88 006e 30D0     		beq	.L2
  89 0070 7A68     		ldr	r2, [r7, #4]
  90 0072 4FF48043 		mov	r3, #16384
  91 0076 C4F20103 		movt	r3, 16385
  92 007a 9A42     		cmp	r2, r3
  93 007c 29D0     		beq	.L2
  94 007e 7A68     		ldr	r2, [r7, #4]
  95 0080 4FF48843 		mov	r3, #17408
  96 0084 C4F20103 		movt	r3, 16385
  97 0088 9A42     		cmp	r2, r3
  98 008a 22D0     		beq	.L2
  99 008c 7A68     		ldr	r2, [r7, #4]
 100 008e 4FF49043 		mov	r3, #18432
 101 0092 C4F20103 		movt	r3, 16385
 102 0096 9A42     		cmp	r2, r3
 103 0098 1BD0     		beq	.L2
 104 009a 7A68     		ldr	r2, [r7, #4]
 105 009c 4FF4C053 		mov	r3, #6144
 106 00a0 C4F20003 		movt	r3, 16384
 107 00a4 9A42     		cmp	r2, r3
 108 00a6 14D0     		beq	.L2
 109 00a8 7A68     		ldr	r2, [r7, #4]
 110 00aa 4FF4E053 		mov	r3, #7168
 111 00ae C4F20003 		movt	r3, 16384
 112 00b2 9A42     		cmp	r2, r3
 113 00b4 0DD0     		beq	.L2
 114 00b6 7A68     		ldr	r2, [r7, #4]
 115 00b8 4FF40053 		mov	r3, #8192
 116 00bc C4F20003 		movt	r3, 16384
 117 00c0 9A42     		cmp	r2, r3
 118 00c2 06D0     		beq	.L2
 119 00c4 40F20000 		movw	r0, #:lower16:.LC0
 120 00c8 C0F20000 		movt	r0, #:upper16:.LC0
 121 00cc C521     		movs	r1, #197
 122 00ce FFF7FEFF 		bl	assert_failed
 123              	.L2:
 198:lib/chip/STM32F4xx_StdPeriph_Driver/src/stm32f4xx_tim.c ****  
 199:lib/chip/STM32F4xx_StdPeriph_Driver/src/stm32f4xx_tim.c ****   if (TIMx == TIM1)
 124              		.loc 1 199 0 is_stmt 1
 125 00d2 7A68     		ldr	r2, [r7, #4]
 126 00d4 0023     		movs	r3, #0
 127 00d6 C4F20103 		movt	r3, 16385
 128 00da 9A42     		cmp	r2, r3
 129 00dc 08D1     		bne	.L3
 200:lib/chip/STM32F4xx_StdPeriph_Driver/src/stm32f4xx_tim.c ****   {
 201:lib/chip/STM32F4xx_StdPeriph_Driver/src/stm32f4xx_tim.c ****     RCC_APB2PeriphResetCmd(RCC_APB2Periph_TIM1, ENABLE);
 130              		.loc 1 201 0
 131 00de 0120     		movs	r0, #1
 132 00e0 0121     		movs	r1, #1
 133 00e2 FFF7FEFF 		bl	RCC_APB2PeriphResetCmd
 202:lib/chip/STM32F4xx_StdPeriph_Driver/src/stm32f4xx_tim.c ****     RCC_APB2PeriphResetCmd(RCC_APB2Periph_TIM1, DISABLE);  
 134              		.loc 1 202 0
 135 00e6 0120     		movs	r0, #1
 136 00e8 0021     		movs	r1, #0
 137 00ea FFF7FEFF 		bl	RCC_APB2PeriphResetCmd
 138 00ee D3E0     		b	.L1
 139              	.L3:
 203:lib/chip/STM32F4xx_StdPeriph_Driver/src/stm32f4xx_tim.c ****   } 
 204:lib/chip/STM32F4xx_StdPeriph_Driver/src/stm32f4xx_tim.c ****   else if (TIMx == TIM2) 
 140              		.loc 1 204 0
 141 00f0 7B68     		ldr	r3, [r7, #4]
 142 00f2 B3F1804F 		cmp	r3, #1073741824
 143 00f6 08D1     		bne	.L5
 205:lib/chip/STM32F4xx_StdPeriph_Driver/src/stm32f4xx_tim.c ****   {     
 206:lib/chip/STM32F4xx_StdPeriph_Driver/src/stm32f4xx_tim.c ****     RCC_APB1PeriphResetCmd(RCC_APB1Periph_TIM2, ENABLE);
 144              		.loc 1 206 0
 145 00f8 0120     		movs	r0, #1
 146 00fa 0121     		movs	r1, #1
 147 00fc FFF7FEFF 		bl	RCC_APB1PeriphResetCmd
 207:lib/chip/STM32F4xx_StdPeriph_Driver/src/stm32f4xx_tim.c ****     RCC_APB1PeriphResetCmd(RCC_APB1Periph_TIM2, DISABLE);
 148              		.loc 1 207 0
 149 0100 0120     		movs	r0, #1
 150 0102 0021     		movs	r1, #0
 151 0104 FFF7FEFF 		bl	RCC_APB1PeriphResetCmd
 152 0108 C6E0     		b	.L1
 153              	.L5:
 208:lib/chip/STM32F4xx_StdPeriph_Driver/src/stm32f4xx_tim.c ****   }  
 209:lib/chip/STM32F4xx_StdPeriph_Driver/src/stm32f4xx_tim.c ****   else if (TIMx == TIM3)
 154              		.loc 1 209 0
 155 010a 7A68     		ldr	r2, [r7, #4]
 156 010c 4FF48063 		mov	r3, #1024
 157 0110 C4F20003 		movt	r3, 16384
 158 0114 9A42     		cmp	r2, r3
 159 0116 08D1     		bne	.L6
 210:lib/chip/STM32F4xx_StdPeriph_Driver/src/stm32f4xx_tim.c ****   { 
 211:lib/chip/STM32F4xx_StdPeriph_Driver/src/stm32f4xx_tim.c ****     RCC_APB1PeriphResetCmd(RCC_APB1Periph_TIM3, ENABLE);
 160              		.loc 1 211 0
 161 0118 0220     		movs	r0, #2
 162 011a 0121     		movs	r1, #1
 163 011c FFF7FEFF 		bl	RCC_APB1PeriphResetCmd
 212:lib/chip/STM32F4xx_StdPeriph_Driver/src/stm32f4xx_tim.c ****     RCC_APB1PeriphResetCmd(RCC_APB1Periph_TIM3, DISABLE);
 164              		.loc 1 212 0
 165 0120 0220     		movs	r0, #2
 166 0122 0021     		movs	r1, #0
 167 0124 FFF7FEFF 		bl	RCC_APB1PeriphResetCmd
 168 0128 B6E0     		b	.L1
 169              	.L6:
 213:lib/chip/STM32F4xx_StdPeriph_Driver/src/stm32f4xx_tim.c ****   }  
 214:lib/chip/STM32F4xx_StdPeriph_Driver/src/stm32f4xx_tim.c ****   else if (TIMx == TIM4)
 170              		.loc 1 214 0
 171 012a 7A68     		ldr	r2, [r7, #4]
 172 012c 4FF40063 		mov	r3, #2048
 173 0130 C4F20003 		movt	r3, 16384
 174 0134 9A42     		cmp	r2, r3
 175 0136 08D1     		bne	.L7
 215:lib/chip/STM32F4xx_StdPeriph_Driver/src/stm32f4xx_tim.c ****   { 
 216:lib/chip/STM32F4xx_StdPeriph_Driver/src/stm32f4xx_tim.c ****     RCC_APB1PeriphResetCmd(RCC_APB1Periph_TIM4, ENABLE);
 176              		.loc 1 216 0
 177 0138 0420     		movs	r0, #4
 178 013a 0121     		movs	r1, #1
 179 013c FFF7FEFF 		bl	RCC_APB1PeriphResetCmd
 217:lib/chip/STM32F4xx_StdPeriph_Driver/src/stm32f4xx_tim.c ****     RCC_APB1PeriphResetCmd(RCC_APB1Periph_TIM4, DISABLE);
 180              		.loc 1 217 0
 181 0140 0420     		movs	r0, #4
 182 0142 0021     		movs	r1, #0
 183 0144 FFF7FEFF 		bl	RCC_APB1PeriphResetCmd
 184 0148 A6E0     		b	.L1
 185              	.L7:
 218:lib/chip/STM32F4xx_StdPeriph_Driver/src/stm32f4xx_tim.c ****   }  
 219:lib/chip/STM32F4xx_StdPeriph_Driver/src/stm32f4xx_tim.c ****   else if (TIMx == TIM5)
 186              		.loc 1 219 0
 187 014a 7A68     		ldr	r2, [r7, #4]
 188 014c 4FF44063 		mov	r3, #3072
 189 0150 C4F20003 		movt	r3, 16384
 190 0154 9A42     		cmp	r2, r3
 191 0156 08D1     		bne	.L8
 220:lib/chip/STM32F4xx_StdPeriph_Driver/src/stm32f4xx_tim.c ****   {      
 221:lib/chip/STM32F4xx_StdPeriph_Driver/src/stm32f4xx_tim.c ****     RCC_APB1PeriphResetCmd(RCC_APB1Periph_TIM5, ENABLE);
 192              		.loc 1 221 0
 193 0158 0820     		movs	r0, #8
 194 015a 0121     		movs	r1, #1
 195 015c FFF7FEFF 		bl	RCC_APB1PeriphResetCmd
 222:lib/chip/STM32F4xx_StdPeriph_Driver/src/stm32f4xx_tim.c ****     RCC_APB1PeriphResetCmd(RCC_APB1Periph_TIM5, DISABLE);
 196              		.loc 1 222 0
 197 0160 0820     		movs	r0, #8
 198 0162 0021     		movs	r1, #0
 199 0164 FFF7FEFF 		bl	RCC_APB1PeriphResetCmd
 200 0168 96E0     		b	.L1
 201              	.L8:
 223:lib/chip/STM32F4xx_StdPeriph_Driver/src/stm32f4xx_tim.c ****   }  
 224:lib/chip/STM32F4xx_StdPeriph_Driver/src/stm32f4xx_tim.c ****   else if (TIMx == TIM6)  
 202              		.loc 1 224 0
 203 016a 7A68     		ldr	r2, [r7, #4]
 204 016c 4FF48053 		mov	r3, #4096
 205 0170 C4F20003 		movt	r3, 16384
 206 0174 9A42     		cmp	r2, r3
 207 0176 08D1     		bne	.L9
 225:lib/chip/STM32F4xx_StdPeriph_Driver/src/stm32f4xx_tim.c ****   {    
 226:lib/chip/STM32F4xx_StdPeriph_Driver/src/stm32f4xx_tim.c ****     RCC_APB1PeriphResetCmd(RCC_APB1Periph_TIM6, ENABLE);
 208              		.loc 1 226 0
 209 0178 1020     		movs	r0, #16
 210 017a 0121     		movs	r1, #1
 211 017c FFF7FEFF 		bl	RCC_APB1PeriphResetCmd
 227:lib/chip/STM32F4xx_StdPeriph_Driver/src/stm32f4xx_tim.c ****     RCC_APB1PeriphResetCmd(RCC_APB1Periph_TIM6, DISABLE);
 212              		.loc 1 227 0
 213 0180 1020     		movs	r0, #16
 214 0182 0021     		movs	r1, #0
 215 0184 FFF7FEFF 		bl	RCC_APB1PeriphResetCmd
 216 0188 86E0     		b	.L1
 217              	.L9:
 228:lib/chip/STM32F4xx_StdPeriph_Driver/src/stm32f4xx_tim.c ****   }  
 229:lib/chip/STM32F4xx_StdPeriph_Driver/src/stm32f4xx_tim.c ****   else if (TIMx == TIM7)
 218              		.loc 1 229 0
 219 018a 7A68     		ldr	r2, [r7, #4]
 220 018c 4FF4A053 		mov	r3, #5120
 221 0190 C4F20003 		movt	r3, 16384
 222 0194 9A42     		cmp	r2, r3
 223 0196 08D1     		bne	.L10
 230:lib/chip/STM32F4xx_StdPeriph_Driver/src/stm32f4xx_tim.c ****   {      
 231:lib/chip/STM32F4xx_StdPeriph_Driver/src/stm32f4xx_tim.c ****     RCC_APB1PeriphResetCmd(RCC_APB1Periph_TIM7, ENABLE);
 224              		.loc 1 231 0
 225 0198 2020     		movs	r0, #32
 226 019a 0121     		movs	r1, #1
 227 019c FFF7FEFF 		bl	RCC_APB1PeriphResetCmd
 232:lib/chip/STM32F4xx_StdPeriph_Driver/src/stm32f4xx_tim.c ****     RCC_APB1PeriphResetCmd(RCC_APB1Periph_TIM7, DISABLE);
 228              		.loc 1 232 0
 229 01a0 2020     		movs	r0, #32
 230 01a2 0021     		movs	r1, #0
 231 01a4 FFF7FEFF 		bl	RCC_APB1PeriphResetCmd
 232 01a8 76E0     		b	.L1
 233              	.L10:
 233:lib/chip/STM32F4xx_StdPeriph_Driver/src/stm32f4xx_tim.c ****   }  
 234:lib/chip/STM32F4xx_StdPeriph_Driver/src/stm32f4xx_tim.c ****   else if (TIMx == TIM8)
 234              		.loc 1 234 0
 235 01aa 7A68     		ldr	r2, [r7, #4]
 236 01ac 4FF48063 		mov	r3, #1024
 237 01b0 C4F20103 		movt	r3, 16385
 238 01b4 9A42     		cmp	r2, r3
 239 01b6 08D1     		bne	.L11
 235:lib/chip/STM32F4xx_StdPeriph_Driver/src/stm32f4xx_tim.c ****   {      
 236:lib/chip/STM32F4xx_StdPeriph_Driver/src/stm32f4xx_tim.c ****     RCC_APB2PeriphResetCmd(RCC_APB2Periph_TIM8, ENABLE);
 240              		.loc 1 236 0
 241 01b8 0220     		movs	r0, #2
 242 01ba 0121     		movs	r1, #1
 243 01bc FFF7FEFF 		bl	RCC_APB2PeriphResetCmd
 237:lib/chip/STM32F4xx_StdPeriph_Driver/src/stm32f4xx_tim.c ****     RCC_APB2PeriphResetCmd(RCC_APB2Periph_TIM8, DISABLE);  
 244              		.loc 1 237 0
 245 01c0 0220     		movs	r0, #2
 246 01c2 0021     		movs	r1, #0
 247 01c4 FFF7FEFF 		bl	RCC_APB2PeriphResetCmd
 248 01c8 66E0     		b	.L1
 249              	.L11:
 238:lib/chip/STM32F4xx_StdPeriph_Driver/src/stm32f4xx_tim.c ****   }  
 239:lib/chip/STM32F4xx_StdPeriph_Driver/src/stm32f4xx_tim.c ****   else if (TIMx == TIM9)
 250              		.loc 1 239 0
 251 01ca 7A68     		ldr	r2, [r7, #4]
 252 01cc 4FF48043 		mov	r3, #16384
 253 01d0 C4F20103 		movt	r3, 16385
 254 01d4 9A42     		cmp	r2, r3
 255 01d6 0AD1     		bne	.L12
 240:lib/chip/STM32F4xx_StdPeriph_Driver/src/stm32f4xx_tim.c ****   {      
 241:lib/chip/STM32F4xx_StdPeriph_Driver/src/stm32f4xx_tim.c ****     RCC_APB2PeriphResetCmd(RCC_APB2Periph_TIM9, ENABLE);
 256              		.loc 1 241 0
 257 01d8 4FF48030 		mov	r0, #65536
 258 01dc 0121     		movs	r1, #1
 259 01de FFF7FEFF 		bl	RCC_APB2PeriphResetCmd
 242:lib/chip/STM32F4xx_StdPeriph_Driver/src/stm32f4xx_tim.c ****     RCC_APB2PeriphResetCmd(RCC_APB2Periph_TIM9, DISABLE);  
 260              		.loc 1 242 0
 261 01e2 4FF48030 		mov	r0, #65536
 262 01e6 0021     		movs	r1, #0
 263 01e8 FFF7FEFF 		bl	RCC_APB2PeriphResetCmd
 264 01ec 54E0     		b	.L1
 265              	.L12:
 243:lib/chip/STM32F4xx_StdPeriph_Driver/src/stm32f4xx_tim.c ****    }  
 244:lib/chip/STM32F4xx_StdPeriph_Driver/src/stm32f4xx_tim.c ****   else if (TIMx == TIM10)
 266              		.loc 1 244 0
 267 01ee 7A68     		ldr	r2, [r7, #4]
 268 01f0 4FF48843 		mov	r3, #17408
 269 01f4 C4F20103 		movt	r3, 16385
 270 01f8 9A42     		cmp	r2, r3
 271 01fa 0AD1     		bne	.L13
 245:lib/chip/STM32F4xx_StdPeriph_Driver/src/stm32f4xx_tim.c ****   {      
 246:lib/chip/STM32F4xx_StdPeriph_Driver/src/stm32f4xx_tim.c ****     RCC_APB2PeriphResetCmd(RCC_APB2Periph_TIM10, ENABLE);
 272              		.loc 1 246 0
 273 01fc 4FF40030 		mov	r0, #131072
 274 0200 0121     		movs	r1, #1
 275 0202 FFF7FEFF 		bl	RCC_APB2PeriphResetCmd
 247:lib/chip/STM32F4xx_StdPeriph_Driver/src/stm32f4xx_tim.c ****     RCC_APB2PeriphResetCmd(RCC_APB2Periph_TIM10, DISABLE);  
 276              		.loc 1 247 0
 277 0206 4FF40030 		mov	r0, #131072
 278 020a 0021     		movs	r1, #0
 279 020c FFF7FEFF 		bl	RCC_APB2PeriphResetCmd
 280 0210 42E0     		b	.L1
 281              	.L13:
 248:lib/chip/STM32F4xx_StdPeriph_Driver/src/stm32f4xx_tim.c ****   }  
 249:lib/chip/STM32F4xx_StdPeriph_Driver/src/stm32f4xx_tim.c ****   else if (TIMx == TIM11) 
 282              		.loc 1 249 0
 283 0212 7A68     		ldr	r2, [r7, #4]
 284 0214 4FF49043 		mov	r3, #18432
 285 0218 C4F20103 		movt	r3, 16385
 286 021c 9A42     		cmp	r2, r3
 287 021e 0AD1     		bne	.L14
 250:lib/chip/STM32F4xx_StdPeriph_Driver/src/stm32f4xx_tim.c ****   {     
 251:lib/chip/STM32F4xx_StdPeriph_Driver/src/stm32f4xx_tim.c ****     RCC_APB2PeriphResetCmd(RCC_APB2Periph_TIM11, ENABLE);
 288              		.loc 1 251 0
 289 0220 4FF48020 		mov	r0, #262144
 290 0224 0121     		movs	r1, #1
 291 0226 FFF7FEFF 		bl	RCC_APB2PeriphResetCmd
 252:lib/chip/STM32F4xx_StdPeriph_Driver/src/stm32f4xx_tim.c ****     RCC_APB2PeriphResetCmd(RCC_APB2Periph_TIM11, DISABLE);  
 292              		.loc 1 252 0
 293 022a 4FF48020 		mov	r0, #262144
 294 022e 0021     		movs	r1, #0
 295 0230 FFF7FEFF 		bl	RCC_APB2PeriphResetCmd
 296 0234 30E0     		b	.L1
 297              	.L14:
 253:lib/chip/STM32F4xx_StdPeriph_Driver/src/stm32f4xx_tim.c ****   }  
 254:lib/chip/STM32F4xx_StdPeriph_Driver/src/stm32f4xx_tim.c ****   else if (TIMx == TIM12)
 298              		.loc 1 254 0
 299 0236 7A68     		ldr	r2, [r7, #4]
 300 0238 4FF4C053 		mov	r3, #6144
 301 023c C4F20003 		movt	r3, 16384
 302 0240 9A42     		cmp	r2, r3
 303 0242 08D1     		bne	.L15
 255:lib/chip/STM32F4xx_StdPeriph_Driver/src/stm32f4xx_tim.c ****   {      
 256:lib/chip/STM32F4xx_StdPeriph_Driver/src/stm32f4xx_tim.c ****     RCC_APB1PeriphResetCmd(RCC_APB1Periph_TIM12, ENABLE);
 304              		.loc 1 256 0
 305 0244 4020     		movs	r0, #64
 306 0246 0121     		movs	r1, #1
 307 0248 FFF7FEFF 		bl	RCC_APB1PeriphResetCmd
 257:lib/chip/STM32F4xx_StdPeriph_Driver/src/stm32f4xx_tim.c ****     RCC_APB1PeriphResetCmd(RCC_APB1Periph_TIM12, DISABLE);  
 308              		.loc 1 257 0
 309 024c 4020     		movs	r0, #64
 310 024e 0021     		movs	r1, #0
 311 0250 FFF7FEFF 		bl	RCC_APB1PeriphResetCmd
 312 0254 20E0     		b	.L1
 313              	.L15:
 258:lib/chip/STM32F4xx_StdPeriph_Driver/src/stm32f4xx_tim.c ****   }  
 259:lib/chip/STM32F4xx_StdPeriph_Driver/src/stm32f4xx_tim.c ****   else if (TIMx == TIM13) 
 314              		.loc 1 259 0
 315 0256 7A68     		ldr	r2, [r7, #4]
 316 0258 4FF4E053 		mov	r3, #7168
 317 025c C4F20003 		movt	r3, 16384
 318 0260 9A42     		cmp	r2, r3
 319 0262 08D1     		bne	.L16
 260:lib/chip/STM32F4xx_StdPeriph_Driver/src/stm32f4xx_tim.c ****   {       
 261:lib/chip/STM32F4xx_StdPeriph_Driver/src/stm32f4xx_tim.c ****     RCC_APB1PeriphResetCmd(RCC_APB1Periph_TIM13, ENABLE);
 320              		.loc 1 261 0
 321 0264 8020     		movs	r0, #128
 322 0266 0121     		movs	r1, #1
 323 0268 FFF7FEFF 		bl	RCC_APB1PeriphResetCmd
 262:lib/chip/STM32F4xx_StdPeriph_Driver/src/stm32f4xx_tim.c ****     RCC_APB1PeriphResetCmd(RCC_APB1Periph_TIM13, DISABLE);  
 324              		.loc 1 262 0
 325 026c 8020     		movs	r0, #128
 326 026e 0021     		movs	r1, #0
 327 0270 FFF7FEFF 		bl	RCC_APB1PeriphResetCmd
 328 0274 10E0     		b	.L1
 329              	.L16:
 263:lib/chip/STM32F4xx_StdPeriph_Driver/src/stm32f4xx_tim.c ****   }  
 264:lib/chip/STM32F4xx_StdPeriph_Driver/src/stm32f4xx_tim.c ****   else
 265:lib/chip/STM32F4xx_StdPeriph_Driver/src/stm32f4xx_tim.c ****   { 
 266:lib/chip/STM32F4xx_StdPeriph_Driver/src/stm32f4xx_tim.c ****     if (TIMx == TIM14) 
 330              		.loc 1 266 0
 331 0276 7A68     		ldr	r2, [r7, #4]
 332 0278 4FF40053 		mov	r3, #8192
 333 027c C4F20003 		movt	r3, 16384
 334 0280 9A42     		cmp	r2, r3
 335 0282 09D1     		bne	.L1
 267:lib/chip/STM32F4xx_StdPeriph_Driver/src/stm32f4xx_tim.c ****     {     
 268:lib/chip/STM32F4xx_StdPeriph_Driver/src/stm32f4xx_tim.c ****       RCC_APB1PeriphResetCmd(RCC_APB1Periph_TIM14, ENABLE);
 336              		.loc 1 268 0
 337 0284 4FF48070 		mov	r0, #256
 338 0288 0121     		movs	r1, #1
 339 028a FFF7FEFF 		bl	RCC_APB1PeriphResetCmd
 269:lib/chip/STM32F4xx_StdPeriph_Driver/src/stm32f4xx_tim.c ****       RCC_APB1PeriphResetCmd(RCC_APB1Periph_TIM14, DISABLE); 
 340              		.loc 1 269 0
 341 028e 4FF48070 		mov	r0, #256
 342 0292 0021     		movs	r1, #0
 343 0294 FFF7FEFF 		bl	RCC_APB1PeriphResetCmd
 344              	.L1:
 270:lib/chip/STM32F4xx_StdPeriph_Driver/src/stm32f4xx_tim.c ****     }   
 271:lib/chip/STM32F4xx_StdPeriph_Driver/src/stm32f4xx_tim.c ****   }
 272:lib/chip/STM32F4xx_StdPeriph_Driver/src/stm32f4xx_tim.c **** }
 345              		.loc 1 272 0
 346 0298 0837     		adds	r7, r7, #8
 347 029a BD46     		mov	sp, r7
 348              		@ sp needed
 349 029c 80BD     		pop	{r7, pc}
 350              		.cfi_endproc
 351              	.LFE110:
 353 029e 00BF     		.section	.text.TIM_TimeBaseInit,"ax",%progbits
 354              		.align	2
 355              		.global	TIM_TimeBaseInit
 356              		.thumb
 357              		.thumb_func
 359              	TIM_TimeBaseInit:
 360              	.LFB111:
 273:lib/chip/STM32F4xx_StdPeriph_Driver/src/stm32f4xx_tim.c **** 
 274:lib/chip/STM32F4xx_StdPeriph_Driver/src/stm32f4xx_tim.c **** /**
 275:lib/chip/STM32F4xx_StdPeriph_Driver/src/stm32f4xx_tim.c ****   * @brief  Initializes the TIMx Time Base Unit peripheral according to 
 276:lib/chip/STM32F4xx_StdPeriph_Driver/src/stm32f4xx_tim.c ****   *         the specified parameters in the TIM_TimeBaseInitStruct.
 277:lib/chip/STM32F4xx_StdPeriph_Driver/src/stm32f4xx_tim.c ****   * @param  TIMx: where x can be  1 to 14 to select the TIM peripheral.
 278:lib/chip/STM32F4xx_StdPeriph_Driver/src/stm32f4xx_tim.c ****   * @param  TIM_TimeBaseInitStruct: pointer to a TIM_TimeBaseInitTypeDef structure
 279:lib/chip/STM32F4xx_StdPeriph_Driver/src/stm32f4xx_tim.c ****   *         that contains the configuration information for the specified TIM peripheral.
 280:lib/chip/STM32F4xx_StdPeriph_Driver/src/stm32f4xx_tim.c ****   * @retval None
 281:lib/chip/STM32F4xx_StdPeriph_Driver/src/stm32f4xx_tim.c ****   */
 282:lib/chip/STM32F4xx_StdPeriph_Driver/src/stm32f4xx_tim.c **** void TIM_TimeBaseInit(TIM_TypeDef* TIMx, TIM_TimeBaseInitTypeDef* TIM_TimeBaseInitStruct)
 283:lib/chip/STM32F4xx_StdPeriph_Driver/src/stm32f4xx_tim.c **** {
 361              		.loc 1 283 0
 362              		.cfi_startproc
 363              		@ args = 0, pretend = 0, frame = 16
 364              		@ frame_needed = 1, uses_anonymous_args = 0
 365 0000 80B5     		push	{r7, lr}
 366              	.LCFI3:
 367              		.cfi_def_cfa_offset 8
 368              		.cfi_offset 7, -8
 369              		.cfi_offset 14, -4
 370 0002 84B0     		sub	sp, sp, #16
 371              	.LCFI4:
 372              		.cfi_def_cfa_offset 24
 373 0004 00AF     		add	r7, sp, #0
 374              	.LCFI5:
 375              		.cfi_def_cfa_register 7
 376 0006 7860     		str	r0, [r7, #4]
 377 0008 3960     		str	r1, [r7]
 284:lib/chip/STM32F4xx_StdPeriph_Driver/src/stm32f4xx_tim.c ****   uint16_t tmpcr1 = 0;
 378              		.loc 1 284 0
 379 000a 0023     		movs	r3, #0
 380 000c FB81     		strh	r3, [r7, #14]	@ movhi
 285:lib/chip/STM32F4xx_StdPeriph_Driver/src/stm32f4xx_tim.c **** 
 286:lib/chip/STM32F4xx_StdPeriph_Driver/src/stm32f4xx_tim.c ****   /* Check the parameters */
 287:lib/chip/STM32F4xx_StdPeriph_Driver/src/stm32f4xx_tim.c ****   assert_param(IS_TIM_ALL_PERIPH(TIMx)); 
 381              		.loc 1 287 0
 382 000e 7A68     		ldr	r2, [r7, #4]
 383 0010 0023     		movs	r3, #0
 384 0012 C4F20103 		movt	r3, 16385
 385 0016 9A42     		cmp	r2, r3
 386 0018 5FD0     		beq	.L18
 387              		.loc 1 287 0 is_stmt 0 discriminator 1
 388 001a 7B68     		ldr	r3, [r7, #4]
 389 001c B3F1804F 		cmp	r3, #1073741824
 390 0020 5BD0     		beq	.L18
 391 0022 7A68     		ldr	r2, [r7, #4]
 392 0024 4FF48063 		mov	r3, #1024
 393 0028 C4F20003 		movt	r3, 16384
 394 002c 9A42     		cmp	r2, r3
 395 002e 54D0     		beq	.L18
 396 0030 7A68     		ldr	r2, [r7, #4]
 397 0032 4FF40063 		mov	r3, #2048
 398 0036 C4F20003 		movt	r3, 16384
 399 003a 9A42     		cmp	r2, r3
 400 003c 4DD0     		beq	.L18
 401 003e 7A68     		ldr	r2, [r7, #4]
 402 0040 4FF44063 		mov	r3, #3072
 403 0044 C4F20003 		movt	r3, 16384
 404 0048 9A42     		cmp	r2, r3
 405 004a 46D0     		beq	.L18
 406 004c 7A68     		ldr	r2, [r7, #4]
 407 004e 4FF48053 		mov	r3, #4096
 408 0052 C4F20003 		movt	r3, 16384
 409 0056 9A42     		cmp	r2, r3
 410 0058 3FD0     		beq	.L18
 411 005a 7A68     		ldr	r2, [r7, #4]
 412 005c 4FF4A053 		mov	r3, #5120
 413 0060 C4F20003 		movt	r3, 16384
 414 0064 9A42     		cmp	r2, r3
 415 0066 38D0     		beq	.L18
 416 0068 7A68     		ldr	r2, [r7, #4]
 417 006a 4FF48063 		mov	r3, #1024
 418 006e C4F20103 		movt	r3, 16385
 419 0072 9A42     		cmp	r2, r3
 420 0074 31D0     		beq	.L18
 421 0076 7A68     		ldr	r2, [r7, #4]
 422 0078 4FF48043 		mov	r3, #16384
 423 007c C4F20103 		movt	r3, 16385
 424 0080 9A42     		cmp	r2, r3
 425 0082 2AD0     		beq	.L18
 426 0084 7A68     		ldr	r2, [r7, #4]
 427 0086 4FF48843 		mov	r3, #17408
 428 008a C4F20103 		movt	r3, 16385
 429 008e 9A42     		cmp	r2, r3
 430 0090 23D0     		beq	.L18
 431 0092 7A68     		ldr	r2, [r7, #4]
 432 0094 4FF49043 		mov	r3, #18432
 433 0098 C4F20103 		movt	r3, 16385
 434 009c 9A42     		cmp	r2, r3
 435 009e 1CD0     		beq	.L18
 436 00a0 7A68     		ldr	r2, [r7, #4]
 437 00a2 4FF4C053 		mov	r3, #6144
 438 00a6 C4F20003 		movt	r3, 16384
 439 00aa 9A42     		cmp	r2, r3
 440 00ac 15D0     		beq	.L18
 441 00ae 7A68     		ldr	r2, [r7, #4]
 442 00b0 4FF4E053 		mov	r3, #7168
 443 00b4 C4F20003 		movt	r3, 16384
 444 00b8 9A42     		cmp	r2, r3
 445 00ba 0ED0     		beq	.L18
 446 00bc 7A68     		ldr	r2, [r7, #4]
 447 00be 4FF40053 		mov	r3, #8192
 448 00c2 C4F20003 		movt	r3, 16384
 449 00c6 9A42     		cmp	r2, r3
 450 00c8 07D0     		beq	.L18
 451 00ca 40F20000 		movw	r0, #:lower16:.LC0
 452 00ce C0F20000 		movt	r0, #:upper16:.LC0
 453 00d2 40F21F11 		movw	r1, #287
 454 00d6 FFF7FEFF 		bl	assert_failed
 455              	.L18:
 288:lib/chip/STM32F4xx_StdPeriph_Driver/src/stm32f4xx_tim.c ****   assert_param(IS_TIM_COUNTER_MODE(TIM_TimeBaseInitStruct->TIM_CounterMode));
 456              		.loc 1 288 0 is_stmt 1
 457 00da 3B68     		ldr	r3, [r7]
 458 00dc 5B88     		ldrh	r3, [r3, #2]
 459 00de 002B     		cmp	r3, #0
 460 00e0 17D0     		beq	.L19
 461              		.loc 1 288 0 is_stmt 0 discriminator 1
 462 00e2 3B68     		ldr	r3, [r7]
 463 00e4 5B88     		ldrh	r3, [r3, #2]
 464 00e6 102B     		cmp	r3, #16
 465 00e8 13D0     		beq	.L19
 466 00ea 3B68     		ldr	r3, [r7]
 467 00ec 5B88     		ldrh	r3, [r3, #2]
 468 00ee 202B     		cmp	r3, #32
 469 00f0 0FD0     		beq	.L19
 470 00f2 3B68     		ldr	r3, [r7]
 471 00f4 5B88     		ldrh	r3, [r3, #2]
 472 00f6 402B     		cmp	r3, #64
 473 00f8 0BD0     		beq	.L19
 474 00fa 3B68     		ldr	r3, [r7]
 475 00fc 5B88     		ldrh	r3, [r3, #2]
 476 00fe 602B     		cmp	r3, #96
 477 0100 07D0     		beq	.L19
 478 0102 40F20000 		movw	r0, #:lower16:.LC0
 479 0106 C0F20000 		movt	r0, #:upper16:.LC0
 480 010a 4FF49071 		mov	r1, #288
 481 010e FFF7FEFF 		bl	assert_failed
 482              	.L19:
 289:lib/chip/STM32F4xx_StdPeriph_Driver/src/stm32f4xx_tim.c ****   assert_param(IS_TIM_CKD_DIV(TIM_TimeBaseInitStruct->TIM_ClockDivision));
 483              		.loc 1 289 0 is_stmt 1
 484 0112 3B68     		ldr	r3, [r7]
 485 0114 1B89     		ldrh	r3, [r3, #8]
 486 0116 002B     		cmp	r3, #0
 487 0118 11D0     		beq	.L20
 488              		.loc 1 289 0 is_stmt 0 discriminator 1
 489 011a 3B68     		ldr	r3, [r7]
 490 011c 1B89     		ldrh	r3, [r3, #8]
 491 011e B3F5807F 		cmp	r3, #256
 492 0122 0CD0     		beq	.L20
 493 0124 3B68     		ldr	r3, [r7]
 494 0126 1B89     		ldrh	r3, [r3, #8]
 495 0128 B3F5007F 		cmp	r3, #512
 496 012c 07D0     		beq	.L20
 497 012e 40F20000 		movw	r0, #:lower16:.LC0
 498 0132 C0F20000 		movt	r0, #:upper16:.LC0
 499 0136 40F22111 		movw	r1, #289
 500 013a FFF7FEFF 		bl	assert_failed
 501              	.L20:
 290:lib/chip/STM32F4xx_StdPeriph_Driver/src/stm32f4xx_tim.c **** 
 291:lib/chip/STM32F4xx_StdPeriph_Driver/src/stm32f4xx_tim.c ****   tmpcr1 = TIMx->CR1;  
 502              		.loc 1 291 0 is_stmt 1
 503 013e 7B68     		ldr	r3, [r7, #4]
 504 0140 1B88     		ldrh	r3, [r3]	@ movhi
 505 0142 FB81     		strh	r3, [r7, #14]	@ movhi
 292:lib/chip/STM32F4xx_StdPeriph_Driver/src/stm32f4xx_tim.c **** 
 293:lib/chip/STM32F4xx_StdPeriph_Driver/src/stm32f4xx_tim.c ****   if((TIMx == TIM1) || (TIMx == TIM8)||
 506              		.loc 1 293 0
 507 0144 7A68     		ldr	r2, [r7, #4]
 508 0146 0023     		movs	r3, #0
 509 0148 C4F20103 		movt	r3, 16385
 510 014c 9A42     		cmp	r2, r3
 511 014e 1FD0     		beq	.L21
 512              		.loc 1 293 0 is_stmt 0 discriminator 1
 513 0150 7A68     		ldr	r2, [r7, #4]
 514 0152 4FF48063 		mov	r3, #1024
 515 0156 C4F20103 		movt	r3, 16385
 516 015a 9A42     		cmp	r2, r3
 517 015c 18D0     		beq	.L21
 518 015e 7B68     		ldr	r3, [r7, #4]
 519 0160 B3F1804F 		cmp	r3, #1073741824
 520 0164 14D0     		beq	.L21
 294:lib/chip/STM32F4xx_StdPeriph_Driver/src/stm32f4xx_tim.c ****      (TIMx == TIM2) || (TIMx == TIM3)||
 521              		.loc 1 294 0 is_stmt 1
 522 0166 7A68     		ldr	r2, [r7, #4]
 523 0168 4FF48063 		mov	r3, #1024
 524 016c C4F20003 		movt	r3, 16384
 525 0170 9A42     		cmp	r2, r3
 526 0172 0DD0     		beq	.L21
 527              		.loc 1 294 0 is_stmt 0 discriminator 1
 528 0174 7A68     		ldr	r2, [r7, #4]
 529 0176 4FF40063 		mov	r3, #2048
 530 017a C4F20003 		movt	r3, 16384
 531 017e 9A42     		cmp	r2, r3
 532 0180 06D0     		beq	.L21
 295:lib/chip/STM32F4xx_StdPeriph_Driver/src/stm32f4xx_tim.c ****      (TIMx == TIM4) || (TIMx == TIM5)) 
 533              		.loc 1 295 0 is_stmt 1
 534 0182 7A68     		ldr	r2, [r7, #4]
 535 0184 4FF44063 		mov	r3, #3072
 536 0188 C4F20003 		movt	r3, 16384
 537 018c 9A42     		cmp	r2, r3
 538 018e 08D1     		bne	.L22
 539              	.L21:
 296:lib/chip/STM32F4xx_StdPeriph_Driver/src/stm32f4xx_tim.c ****   {
 297:lib/chip/STM32F4xx_StdPeriph_Driver/src/stm32f4xx_tim.c ****     /* Select the Counter Mode */
 298:lib/chip/STM32F4xx_StdPeriph_Driver/src/stm32f4xx_tim.c ****     tmpcr1 &= (uint16_t)(~(TIM_CR1_DIR | TIM_CR1_CMS));
 540              		.loc 1 298 0
 541 0190 FB89     		ldrh	r3, [r7, #14]	@ movhi
 542 0192 23F07003 		bic	r3, r3, #112
 543 0196 FB81     		strh	r3, [r7, #14]	@ movhi
 299:lib/chip/STM32F4xx_StdPeriph_Driver/src/stm32f4xx_tim.c ****     tmpcr1 |= (uint32_t)TIM_TimeBaseInitStruct->TIM_CounterMode;
 544              		.loc 1 299 0
 545 0198 3B68     		ldr	r3, [r7]
 546 019a 5A88     		ldrh	r2, [r3, #2]
 547 019c FB89     		ldrh	r3, [r7, #14]	@ movhi
 548 019e 1343     		orrs	r3, r3, r2
 549 01a0 FB81     		strh	r3, [r7, #14]	@ movhi
 550              	.L22:
 300:lib/chip/STM32F4xx_StdPeriph_Driver/src/stm32f4xx_tim.c ****   }
 301:lib/chip/STM32F4xx_StdPeriph_Driver/src/stm32f4xx_tim.c ****  
 302:lib/chip/STM32F4xx_StdPeriph_Driver/src/stm32f4xx_tim.c ****   if((TIMx != TIM6) && (TIMx != TIM7))
 551              		.loc 1 302 0
 552 01a2 7A68     		ldr	r2, [r7, #4]
 553 01a4 4FF48053 		mov	r3, #4096
 554 01a8 C4F20003 		movt	r3, 16384
 555 01ac 9A42     		cmp	r2, r3
 556 01ae 0FD0     		beq	.L23
 557              		.loc 1 302 0 is_stmt 0 discriminator 1
 558 01b0 7A68     		ldr	r2, [r7, #4]
 559 01b2 4FF4A053 		mov	r3, #5120
 560 01b6 C4F20003 		movt	r3, 16384
 561 01ba 9A42     		cmp	r2, r3
 562 01bc 08D0     		beq	.L23
 303:lib/chip/STM32F4xx_StdPeriph_Driver/src/stm32f4xx_tim.c ****   {
 304:lib/chip/STM32F4xx_StdPeriph_Driver/src/stm32f4xx_tim.c ****     /* Set the clock division */
 305:lib/chip/STM32F4xx_StdPeriph_Driver/src/stm32f4xx_tim.c ****     tmpcr1 &=  (uint16_t)(~TIM_CR1_CKD);
 563              		.loc 1 305 0 is_stmt 1
 564 01be FB89     		ldrh	r3, [r7, #14]	@ movhi
 565 01c0 23F44073 		bic	r3, r3, #768
 566 01c4 FB81     		strh	r3, [r7, #14]	@ movhi
 306:lib/chip/STM32F4xx_StdPeriph_Driver/src/stm32f4xx_tim.c ****     tmpcr1 |= (uint32_t)TIM_TimeBaseInitStruct->TIM_ClockDivision;
 567              		.loc 1 306 0
 568 01c6 3B68     		ldr	r3, [r7]
 569 01c8 1A89     		ldrh	r2, [r3, #8]
 570 01ca FB89     		ldrh	r3, [r7, #14]	@ movhi
 571 01cc 1343     		orrs	r3, r3, r2
 572 01ce FB81     		strh	r3, [r7, #14]	@ movhi
 573              	.L23:
 307:lib/chip/STM32F4xx_StdPeriph_Driver/src/stm32f4xx_tim.c ****   }
 308:lib/chip/STM32F4xx_StdPeriph_Driver/src/stm32f4xx_tim.c **** 
 309:lib/chip/STM32F4xx_StdPeriph_Driver/src/stm32f4xx_tim.c ****   TIMx->CR1 = tmpcr1;
 574              		.loc 1 309 0
 575 01d0 7B68     		ldr	r3, [r7, #4]
 576 01d2 FA89     		ldrh	r2, [r7, #14]	@ movhi
 577 01d4 1A80     		strh	r2, [r3]	@ movhi
 310:lib/chip/STM32F4xx_StdPeriph_Driver/src/stm32f4xx_tim.c **** 
 311:lib/chip/STM32F4xx_StdPeriph_Driver/src/stm32f4xx_tim.c ****   /* Set the Autoreload value */
 312:lib/chip/STM32F4xx_StdPeriph_Driver/src/stm32f4xx_tim.c ****   TIMx->ARR = TIM_TimeBaseInitStruct->TIM_Period ;
 578              		.loc 1 312 0
 579 01d6 3B68     		ldr	r3, [r7]
 580 01d8 5A68     		ldr	r2, [r3, #4]
 581 01da 7B68     		ldr	r3, [r7, #4]
 582 01dc DA62     		str	r2, [r3, #44]
 313:lib/chip/STM32F4xx_StdPeriph_Driver/src/stm32f4xx_tim.c ****  
 314:lib/chip/STM32F4xx_StdPeriph_Driver/src/stm32f4xx_tim.c ****   /* Set the Prescaler value */
 315:lib/chip/STM32F4xx_StdPeriph_Driver/src/stm32f4xx_tim.c ****   TIMx->PSC = TIM_TimeBaseInitStruct->TIM_Prescaler;
 583              		.loc 1 315 0
 584 01de 3B68     		ldr	r3, [r7]
 585 01e0 1A88     		ldrh	r2, [r3]
 586 01e2 7B68     		ldr	r3, [r7, #4]
 587 01e4 1A85     		strh	r2, [r3, #40]	@ movhi
 316:lib/chip/STM32F4xx_StdPeriph_Driver/src/stm32f4xx_tim.c ****     
 317:lib/chip/STM32F4xx_StdPeriph_Driver/src/stm32f4xx_tim.c ****   if ((TIMx == TIM1) || (TIMx == TIM8))  
 588              		.loc 1 317 0
 589 01e6 7A68     		ldr	r2, [r7, #4]
 590 01e8 0023     		movs	r3, #0
 591 01ea C4F20103 		movt	r3, 16385
 592 01ee 9A42     		cmp	r2, r3
 593 01f0 06D0     		beq	.L24
 594              		.loc 1 317 0 is_stmt 0 discriminator 1
 595 01f2 7A68     		ldr	r2, [r7, #4]
 596 01f4 4FF48063 		mov	r3, #1024
 597 01f8 C4F20103 		movt	r3, 16385
 598 01fc 9A42     		cmp	r2, r3
 599 01fe 04D1     		bne	.L25
 600              	.L24:
 318:lib/chip/STM32F4xx_StdPeriph_Driver/src/stm32f4xx_tim.c ****   {
 319:lib/chip/STM32F4xx_StdPeriph_Driver/src/stm32f4xx_tim.c ****     /* Set the Repetition Counter value */
 320:lib/chip/STM32F4xx_StdPeriph_Driver/src/stm32f4xx_tim.c ****     TIMx->RCR = TIM_TimeBaseInitStruct->TIM_RepetitionCounter;
 601              		.loc 1 320 0 is_stmt 1
 602 0200 3B68     		ldr	r3, [r7]
 603 0202 9B7A     		ldrb	r3, [r3, #10]	@ zero_extendqisi2
 604 0204 1A46     		mov	r2, r3
 605 0206 7B68     		ldr	r3, [r7, #4]
 606 0208 1A86     		strh	r2, [r3, #48]	@ movhi
 607              	.L25:
 321:lib/chip/STM32F4xx_StdPeriph_Driver/src/stm32f4xx_tim.c ****   }
 322:lib/chip/STM32F4xx_StdPeriph_Driver/src/stm32f4xx_tim.c **** 
 323:lib/chip/STM32F4xx_StdPeriph_Driver/src/stm32f4xx_tim.c ****   /* Generate an update event to reload the Prescaler 
 324:lib/chip/STM32F4xx_StdPeriph_Driver/src/stm32f4xx_tim.c ****      and the repetition counter(only for TIM1 and TIM8) value immediatly */
 325:lib/chip/STM32F4xx_StdPeriph_Driver/src/stm32f4xx_tim.c ****   TIMx->EGR = TIM_PSCReloadMode_Immediate;          
 608              		.loc 1 325 0
 609 020a 7B68     		ldr	r3, [r7, #4]
 610 020c 0122     		movs	r2, #1
 611 020e 9A82     		strh	r2, [r3, #20]	@ movhi
 326:lib/chip/STM32F4xx_StdPeriph_Driver/src/stm32f4xx_tim.c **** }
 612              		.loc 1 326 0
 613 0210 1037     		adds	r7, r7, #16
 614 0212 BD46     		mov	sp, r7
 615              		@ sp needed
 616 0214 80BD     		pop	{r7, pc}
 617              		.cfi_endproc
 618              	.LFE111:
 620 0216 00BF     		.section	.text.TIM_TimeBaseStructInit,"ax",%progbits
 621              		.align	2
 622              		.global	TIM_TimeBaseStructInit
 623              		.thumb
 624              		.thumb_func
 626              	TIM_TimeBaseStructInit:
 627              	.LFB112:
 327:lib/chip/STM32F4xx_StdPeriph_Driver/src/stm32f4xx_tim.c **** 
 328:lib/chip/STM32F4xx_StdPeriph_Driver/src/stm32f4xx_tim.c **** /**
 329:lib/chip/STM32F4xx_StdPeriph_Driver/src/stm32f4xx_tim.c ****   * @brief  Fills each TIM_TimeBaseInitStruct member with its default value.
 330:lib/chip/STM32F4xx_StdPeriph_Driver/src/stm32f4xx_tim.c ****   * @param  TIM_TimeBaseInitStruct : pointer to a TIM_TimeBaseInitTypeDef
 331:lib/chip/STM32F4xx_StdPeriph_Driver/src/stm32f4xx_tim.c ****   *         structure which will be initialized.
 332:lib/chip/STM32F4xx_StdPeriph_Driver/src/stm32f4xx_tim.c ****   * @retval None
 333:lib/chip/STM32F4xx_StdPeriph_Driver/src/stm32f4xx_tim.c ****   */
 334:lib/chip/STM32F4xx_StdPeriph_Driver/src/stm32f4xx_tim.c **** void TIM_TimeBaseStructInit(TIM_TimeBaseInitTypeDef* TIM_TimeBaseInitStruct)
 335:lib/chip/STM32F4xx_StdPeriph_Driver/src/stm32f4xx_tim.c **** {
 628              		.loc 1 335 0
 629              		.cfi_startproc
 630              		@ args = 0, pretend = 0, frame = 8
 631              		@ frame_needed = 1, uses_anonymous_args = 0
 632              		@ link register save eliminated.
 633 0000 80B4     		push	{r7}
 634              	.LCFI6:
 635              		.cfi_def_cfa_offset 4
 636              		.cfi_offset 7, -4
 637 0002 83B0     		sub	sp, sp, #12
 638              	.LCFI7:
 639              		.cfi_def_cfa_offset 16
 640 0004 00AF     		add	r7, sp, #0
 641              	.LCFI8:
 642              		.cfi_def_cfa_register 7
 643 0006 7860     		str	r0, [r7, #4]
 336:lib/chip/STM32F4xx_StdPeriph_Driver/src/stm32f4xx_tim.c ****   /* Set the default configuration */
 337:lib/chip/STM32F4xx_StdPeriph_Driver/src/stm32f4xx_tim.c ****   TIM_TimeBaseInitStruct->TIM_Period = 0xFFFFFFFF;
 644              		.loc 1 337 0
 645 0008 7B68     		ldr	r3, [r7, #4]
 646 000a 4FF0FF32 		mov	r2, #-1
 647 000e 5A60     		str	r2, [r3, #4]
 338:lib/chip/STM32F4xx_StdPeriph_Driver/src/stm32f4xx_tim.c ****   TIM_TimeBaseInitStruct->TIM_Prescaler = 0x0000;
 648              		.loc 1 338 0
 649 0010 7B68     		ldr	r3, [r7, #4]
 650 0012 0022     		movs	r2, #0
 651 0014 1A80     		strh	r2, [r3]	@ movhi
 339:lib/chip/STM32F4xx_StdPeriph_Driver/src/stm32f4xx_tim.c ****   TIM_TimeBaseInitStruct->TIM_ClockDivision = TIM_CKD_DIV1;
 652              		.loc 1 339 0
 653 0016 7B68     		ldr	r3, [r7, #4]
 654 0018 0022     		movs	r2, #0
 655 001a 1A81     		strh	r2, [r3, #8]	@ movhi
 340:lib/chip/STM32F4xx_StdPeriph_Driver/src/stm32f4xx_tim.c ****   TIM_TimeBaseInitStruct->TIM_CounterMode = TIM_CounterMode_Up;
 656              		.loc 1 340 0
 657 001c 7B68     		ldr	r3, [r7, #4]
 658 001e 0022     		movs	r2, #0
 659 0020 5A80     		strh	r2, [r3, #2]	@ movhi
 341:lib/chip/STM32F4xx_StdPeriph_Driver/src/stm32f4xx_tim.c ****   TIM_TimeBaseInitStruct->TIM_RepetitionCounter = 0x0000;
 660              		.loc 1 341 0
 661 0022 7B68     		ldr	r3, [r7, #4]
 662 0024 0022     		movs	r2, #0
 663 0026 9A72     		strb	r2, [r3, #10]
 342:lib/chip/STM32F4xx_StdPeriph_Driver/src/stm32f4xx_tim.c **** }
 664              		.loc 1 342 0
 665 0028 0C37     		adds	r7, r7, #12
 666 002a BD46     		mov	sp, r7
 667              		@ sp needed
 668 002c 5DF8047B 		ldr	r7, [sp], #4
 669 0030 7047     		bx	lr
 670              		.cfi_endproc
 671              	.LFE112:
 673 0032 00BF     		.section	.text.TIM_PrescalerConfig,"ax",%progbits
 674              		.align	2
 675              		.global	TIM_PrescalerConfig
 676              		.thumb
 677              		.thumb_func
 679              	TIM_PrescalerConfig:
 680              	.LFB113:
 343:lib/chip/STM32F4xx_StdPeriph_Driver/src/stm32f4xx_tim.c **** 
 344:lib/chip/STM32F4xx_StdPeriph_Driver/src/stm32f4xx_tim.c **** /**
 345:lib/chip/STM32F4xx_StdPeriph_Driver/src/stm32f4xx_tim.c ****   * @brief  Configures the TIMx Prescaler.
 346:lib/chip/STM32F4xx_StdPeriph_Driver/src/stm32f4xx_tim.c ****   * @param  TIMx: where x can be  1 to 14 to select the TIM peripheral.
 347:lib/chip/STM32F4xx_StdPeriph_Driver/src/stm32f4xx_tim.c ****   * @param  Prescaler: specifies the Prescaler Register value
 348:lib/chip/STM32F4xx_StdPeriph_Driver/src/stm32f4xx_tim.c ****   * @param  TIM_PSCReloadMode: specifies the TIM Prescaler Reload mode
 349:lib/chip/STM32F4xx_StdPeriph_Driver/src/stm32f4xx_tim.c ****   *          This parameter can be one of the following values:
 350:lib/chip/STM32F4xx_StdPeriph_Driver/src/stm32f4xx_tim.c ****   *            @arg TIM_PSCReloadMode_Update: The Prescaler is loaded at the update event.
 351:lib/chip/STM32F4xx_StdPeriph_Driver/src/stm32f4xx_tim.c ****   *            @arg TIM_PSCReloadMode_Immediate: The Prescaler is loaded immediatly.
 352:lib/chip/STM32F4xx_StdPeriph_Driver/src/stm32f4xx_tim.c ****   * @retval None
 353:lib/chip/STM32F4xx_StdPeriph_Driver/src/stm32f4xx_tim.c ****   */
 354:lib/chip/STM32F4xx_StdPeriph_Driver/src/stm32f4xx_tim.c **** void TIM_PrescalerConfig(TIM_TypeDef* TIMx, uint16_t Prescaler, uint16_t TIM_PSCReloadMode)
 355:lib/chip/STM32F4xx_StdPeriph_Driver/src/stm32f4xx_tim.c **** {
 681              		.loc 1 355 0
 682              		.cfi_startproc
 683              		@ args = 0, pretend = 0, frame = 8
 684              		@ frame_needed = 1, uses_anonymous_args = 0
 685 0000 80B5     		push	{r7, lr}
 686              	.LCFI9:
 687              		.cfi_def_cfa_offset 8
 688              		.cfi_offset 7, -8
 689              		.cfi_offset 14, -4
 690 0002 82B0     		sub	sp, sp, #8
 691              	.LCFI10:
 692              		.cfi_def_cfa_offset 16
 693 0004 00AF     		add	r7, sp, #0
 694              	.LCFI11:
 695              		.cfi_def_cfa_register 7
 696 0006 7860     		str	r0, [r7, #4]
 697 0008 1346     		mov	r3, r2
 698 000a 0A46     		mov	r2, r1	@ movhi
 699 000c 7A80     		strh	r2, [r7, #2]	@ movhi
 700 000e 3B80     		strh	r3, [r7]	@ movhi
 356:lib/chip/STM32F4xx_StdPeriph_Driver/src/stm32f4xx_tim.c ****   /* Check the parameters */
 357:lib/chip/STM32F4xx_StdPeriph_Driver/src/stm32f4xx_tim.c ****   assert_param(IS_TIM_ALL_PERIPH(TIMx));
 701              		.loc 1 357 0
 702 0010 7A68     		ldr	r2, [r7, #4]
 703 0012 0023     		movs	r3, #0
 704 0014 C4F20103 		movt	r3, 16385
 705 0018 9A42     		cmp	r2, r3
 706 001a 5FD0     		beq	.L28
 707              		.loc 1 357 0 is_stmt 0 discriminator 1
 708 001c 7B68     		ldr	r3, [r7, #4]
 709 001e B3F1804F 		cmp	r3, #1073741824
 710 0022 5BD0     		beq	.L28
 711 0024 7A68     		ldr	r2, [r7, #4]
 712 0026 4FF48063 		mov	r3, #1024
 713 002a C4F20003 		movt	r3, 16384
 714 002e 9A42     		cmp	r2, r3
 715 0030 54D0     		beq	.L28
 716 0032 7A68     		ldr	r2, [r7, #4]
 717 0034 4FF40063 		mov	r3, #2048
 718 0038 C4F20003 		movt	r3, 16384
 719 003c 9A42     		cmp	r2, r3
 720 003e 4DD0     		beq	.L28
 721 0040 7A68     		ldr	r2, [r7, #4]
 722 0042 4FF44063 		mov	r3, #3072
 723 0046 C4F20003 		movt	r3, 16384
 724 004a 9A42     		cmp	r2, r3
 725 004c 46D0     		beq	.L28
 726 004e 7A68     		ldr	r2, [r7, #4]
 727 0050 4FF48053 		mov	r3, #4096
 728 0054 C4F20003 		movt	r3, 16384
 729 0058 9A42     		cmp	r2, r3
 730 005a 3FD0     		beq	.L28
 731 005c 7A68     		ldr	r2, [r7, #4]
 732 005e 4FF4A053 		mov	r3, #5120
 733 0062 C4F20003 		movt	r3, 16384
 734 0066 9A42     		cmp	r2, r3
 735 0068 38D0     		beq	.L28
 736 006a 7A68     		ldr	r2, [r7, #4]
 737 006c 4FF48063 		mov	r3, #1024
 738 0070 C4F20103 		movt	r3, 16385
 739 0074 9A42     		cmp	r2, r3
 740 0076 31D0     		beq	.L28
 741 0078 7A68     		ldr	r2, [r7, #4]
 742 007a 4FF48043 		mov	r3, #16384
 743 007e C4F20103 		movt	r3, 16385
 744 0082 9A42     		cmp	r2, r3
 745 0084 2AD0     		beq	.L28
 746 0086 7A68     		ldr	r2, [r7, #4]
 747 0088 4FF48843 		mov	r3, #17408
 748 008c C4F20103 		movt	r3, 16385
 749 0090 9A42     		cmp	r2, r3
 750 0092 23D0     		beq	.L28
 751 0094 7A68     		ldr	r2, [r7, #4]
 752 0096 4FF49043 		mov	r3, #18432
 753 009a C4F20103 		movt	r3, 16385
 754 009e 9A42     		cmp	r2, r3
 755 00a0 1CD0     		beq	.L28
 756 00a2 7A68     		ldr	r2, [r7, #4]
 757 00a4 4FF4C053 		mov	r3, #6144
 758 00a8 C4F20003 		movt	r3, 16384
 759 00ac 9A42     		cmp	r2, r3
 760 00ae 15D0     		beq	.L28
 761 00b0 7A68     		ldr	r2, [r7, #4]
 762 00b2 4FF4E053 		mov	r3, #7168
 763 00b6 C4F20003 		movt	r3, 16384
 764 00ba 9A42     		cmp	r2, r3
 765 00bc 0ED0     		beq	.L28
 766 00be 7A68     		ldr	r2, [r7, #4]
 767 00c0 4FF40053 		mov	r3, #8192
 768 00c4 C4F20003 		movt	r3, 16384
 769 00c8 9A42     		cmp	r2, r3
 770 00ca 07D0     		beq	.L28
 771 00cc 40F20000 		movw	r0, #:lower16:.LC0
 772 00d0 C0F20000 		movt	r0, #:upper16:.LC0
 773 00d4 40F26511 		movw	r1, #357
 774 00d8 FFF7FEFF 		bl	assert_failed
 775              	.L28:
 358:lib/chip/STM32F4xx_StdPeriph_Driver/src/stm32f4xx_tim.c ****   assert_param(IS_TIM_PRESCALER_RELOAD(TIM_PSCReloadMode));
 776              		.loc 1 358 0 is_stmt 1
 777 00dc 3B88     		ldrh	r3, [r7]
 778 00de 002B     		cmp	r3, #0
 779 00e0 0AD0     		beq	.L29
 780              		.loc 1 358 0 is_stmt 0 discriminator 1
 781 00e2 3B88     		ldrh	r3, [r7]
 782 00e4 012B     		cmp	r3, #1
 783 00e6 07D0     		beq	.L29
 784 00e8 40F20000 		movw	r0, #:lower16:.LC0
 785 00ec C0F20000 		movt	r0, #:upper16:.LC0
 786 00f0 4FF4B371 		mov	r1, #358
 787 00f4 FFF7FEFF 		bl	assert_failed
 788              	.L29:
 359:lib/chip/STM32F4xx_StdPeriph_Driver/src/stm32f4xx_tim.c ****   /* Set the Prescaler value */
 360:lib/chip/STM32F4xx_StdPeriph_Driver/src/stm32f4xx_tim.c ****   TIMx->PSC = Prescaler;
 789              		.loc 1 360 0 is_stmt 1
 790 00f8 7B68     		ldr	r3, [r7, #4]
 791 00fa 7A88     		ldrh	r2, [r7, #2]	@ movhi
 792 00fc 1A85     		strh	r2, [r3, #40]	@ movhi
 361:lib/chip/STM32F4xx_StdPeriph_Driver/src/stm32f4xx_tim.c ****   /* Set or reset the UG Bit */
 362:lib/chip/STM32F4xx_StdPeriph_Driver/src/stm32f4xx_tim.c ****   TIMx->EGR = TIM_PSCReloadMode;
 793              		.loc 1 362 0
 794 00fe 7B68     		ldr	r3, [r7, #4]
 795 0100 3A88     		ldrh	r2, [r7]	@ movhi
 796 0102 9A82     		strh	r2, [r3, #20]	@ movhi
 363:lib/chip/STM32F4xx_StdPeriph_Driver/src/stm32f4xx_tim.c **** }
 797              		.loc 1 363 0
 798 0104 0837     		adds	r7, r7, #8
 799 0106 BD46     		mov	sp, r7
 800              		@ sp needed
 801 0108 80BD     		pop	{r7, pc}
 802              		.cfi_endproc
 803              	.LFE113:
 805 010a 00BF     		.section	.text.TIM_CounterModeConfig,"ax",%progbits
 806              		.align	2
 807              		.global	TIM_CounterModeConfig
 808              		.thumb
 809              		.thumb_func
 811              	TIM_CounterModeConfig:
 812              	.LFB114:
 364:lib/chip/STM32F4xx_StdPeriph_Driver/src/stm32f4xx_tim.c **** 
 365:lib/chip/STM32F4xx_StdPeriph_Driver/src/stm32f4xx_tim.c **** /**
 366:lib/chip/STM32F4xx_StdPeriph_Driver/src/stm32f4xx_tim.c ****   * @brief  Specifies the TIMx Counter Mode to be used.
 367:lib/chip/STM32F4xx_StdPeriph_Driver/src/stm32f4xx_tim.c ****   * @param  TIMx: where x can be  1, 2, 3, 4, 5 or 8 to select the TIM peripheral.
 368:lib/chip/STM32F4xx_StdPeriph_Driver/src/stm32f4xx_tim.c ****   * @param  TIM_CounterMode: specifies the Counter Mode to be used
 369:lib/chip/STM32F4xx_StdPeriph_Driver/src/stm32f4xx_tim.c ****   *          This parameter can be one of the following values:
 370:lib/chip/STM32F4xx_StdPeriph_Driver/src/stm32f4xx_tim.c ****   *            @arg TIM_CounterMode_Up: TIM Up Counting Mode
 371:lib/chip/STM32F4xx_StdPeriph_Driver/src/stm32f4xx_tim.c ****   *            @arg TIM_CounterMode_Down: TIM Down Counting Mode
 372:lib/chip/STM32F4xx_StdPeriph_Driver/src/stm32f4xx_tim.c ****   *            @arg TIM_CounterMode_CenterAligned1: TIM Center Aligned Mode1
 373:lib/chip/STM32F4xx_StdPeriph_Driver/src/stm32f4xx_tim.c ****   *            @arg TIM_CounterMode_CenterAligned2: TIM Center Aligned Mode2
 374:lib/chip/STM32F4xx_StdPeriph_Driver/src/stm32f4xx_tim.c ****   *            @arg TIM_CounterMode_CenterAligned3: TIM Center Aligned Mode3
 375:lib/chip/STM32F4xx_StdPeriph_Driver/src/stm32f4xx_tim.c ****   * @retval None
 376:lib/chip/STM32F4xx_StdPeriph_Driver/src/stm32f4xx_tim.c ****   */
 377:lib/chip/STM32F4xx_StdPeriph_Driver/src/stm32f4xx_tim.c **** void TIM_CounterModeConfig(TIM_TypeDef* TIMx, uint16_t TIM_CounterMode)
 378:lib/chip/STM32F4xx_StdPeriph_Driver/src/stm32f4xx_tim.c **** {
 813              		.loc 1 378 0
 814              		.cfi_startproc
 815              		@ args = 0, pretend = 0, frame = 16
 816              		@ frame_needed = 1, uses_anonymous_args = 0
 817 0000 80B5     		push	{r7, lr}
 818              	.LCFI12:
 819              		.cfi_def_cfa_offset 8
 820              		.cfi_offset 7, -8
 821              		.cfi_offset 14, -4
 822 0002 84B0     		sub	sp, sp, #16
 823              	.LCFI13:
 824              		.cfi_def_cfa_offset 24
 825 0004 00AF     		add	r7, sp, #0
 826              	.LCFI14:
 827              		.cfi_def_cfa_register 7
 828 0006 7860     		str	r0, [r7, #4]
 829 0008 0B46     		mov	r3, r1
 830 000a 7B80     		strh	r3, [r7, #2]	@ movhi
 379:lib/chip/STM32F4xx_StdPeriph_Driver/src/stm32f4xx_tim.c ****   uint16_t tmpcr1 = 0;
 831              		.loc 1 379 0
 832 000c 0023     		movs	r3, #0
 833 000e FB81     		strh	r3, [r7, #14]	@ movhi
 380:lib/chip/STM32F4xx_StdPeriph_Driver/src/stm32f4xx_tim.c **** 
 381:lib/chip/STM32F4xx_StdPeriph_Driver/src/stm32f4xx_tim.c ****   /* Check the parameters */
 382:lib/chip/STM32F4xx_StdPeriph_Driver/src/stm32f4xx_tim.c ****   assert_param(IS_TIM_LIST3_PERIPH(TIMx));
 834              		.loc 1 382 0
 835 0010 7A68     		ldr	r2, [r7, #4]
 836 0012 0023     		movs	r3, #0
 837 0014 C4F20103 		movt	r3, 16385
 838 0018 9A42     		cmp	r2, r3
 839 001a 27D0     		beq	.L31
 840              		.loc 1 382 0 is_stmt 0 discriminator 1
 841 001c 7B68     		ldr	r3, [r7, #4]
 842 001e B3F1804F 		cmp	r3, #1073741824
 843 0022 23D0     		beq	.L31
 844 0024 7A68     		ldr	r2, [r7, #4]
 845 0026 4FF48063 		mov	r3, #1024
 846 002a C4F20003 		movt	r3, 16384
 847 002e 9A42     		cmp	r2, r3
 848 0030 1CD0     		beq	.L31
 849 0032 7A68     		ldr	r2, [r7, #4]
 850 0034 4FF40063 		mov	r3, #2048
 851 0038 C4F20003 		movt	r3, 16384
 852 003c 9A42     		cmp	r2, r3
 853 003e 15D0     		beq	.L31
 854 0040 7A68     		ldr	r2, [r7, #4]
 855 0042 4FF44063 		mov	r3, #3072
 856 0046 C4F20003 		movt	r3, 16384
 857 004a 9A42     		cmp	r2, r3
 858 004c 0ED0     		beq	.L31
 859 004e 7A68     		ldr	r2, [r7, #4]
 860 0050 4FF48063 		mov	r3, #1024
 861 0054 C4F20103 		movt	r3, 16385
 862 0058 9A42     		cmp	r2, r3
 863 005a 07D0     		beq	.L31
 864 005c 40F20000 		movw	r0, #:lower16:.LC0
 865 0060 C0F20000 		movt	r0, #:upper16:.LC0
 866 0064 4FF4BF71 		mov	r1, #382
 867 0068 FFF7FEFF 		bl	assert_failed
 868              	.L31:
 383:lib/chip/STM32F4xx_StdPeriph_Driver/src/stm32f4xx_tim.c ****   assert_param(IS_TIM_COUNTER_MODE(TIM_CounterMode));
 869              		.loc 1 383 0 is_stmt 1
 870 006c 7B88     		ldrh	r3, [r7, #2]
 871 006e 002B     		cmp	r3, #0
 872 0070 13D0     		beq	.L32
 873              		.loc 1 383 0 is_stmt 0 discriminator 1
 874 0072 7B88     		ldrh	r3, [r7, #2]
 875 0074 102B     		cmp	r3, #16
 876 0076 10D0     		beq	.L32
 877 0078 7B88     		ldrh	r3, [r7, #2]
 878 007a 202B     		cmp	r3, #32
 879 007c 0DD0     		beq	.L32
 880 007e 7B88     		ldrh	r3, [r7, #2]
 881 0080 402B     		cmp	r3, #64
 882 0082 0AD0     		beq	.L32
 883 0084 7B88     		ldrh	r3, [r7, #2]
 884 0086 602B     		cmp	r3, #96
 885 0088 07D0     		beq	.L32
 886 008a 40F20000 		movw	r0, #:lower16:.LC0
 887 008e C0F20000 		movt	r0, #:upper16:.LC0
 888 0092 40F27F11 		movw	r1, #383
 889 0096 FFF7FEFF 		bl	assert_failed
 890              	.L32:
 384:lib/chip/STM32F4xx_StdPeriph_Driver/src/stm32f4xx_tim.c **** 
 385:lib/chip/STM32F4xx_StdPeriph_Driver/src/stm32f4xx_tim.c ****   tmpcr1 = TIMx->CR1;
 891              		.loc 1 385 0 is_stmt 1
 892 009a 7B68     		ldr	r3, [r7, #4]
 893 009c 1B88     		ldrh	r3, [r3]	@ movhi
 894 009e FB81     		strh	r3, [r7, #14]	@ movhi
 386:lib/chip/STM32F4xx_StdPeriph_Driver/src/stm32f4xx_tim.c **** 
 387:lib/chip/STM32F4xx_StdPeriph_Driver/src/stm32f4xx_tim.c ****   /* Reset the CMS and DIR Bits */
 388:lib/chip/STM32F4xx_StdPeriph_Driver/src/stm32f4xx_tim.c ****   tmpcr1 &= (uint16_t)~(TIM_CR1_DIR | TIM_CR1_CMS);
 895              		.loc 1 388 0
 896 00a0 FB89     		ldrh	r3, [r7, #14]	@ movhi
 897 00a2 23F07003 		bic	r3, r3, #112
 898 00a6 FB81     		strh	r3, [r7, #14]	@ movhi
 389:lib/chip/STM32F4xx_StdPeriph_Driver/src/stm32f4xx_tim.c **** 
 390:lib/chip/STM32F4xx_StdPeriph_Driver/src/stm32f4xx_tim.c ****   /* Set the Counter Mode */
 391:lib/chip/STM32F4xx_StdPeriph_Driver/src/stm32f4xx_tim.c ****   tmpcr1 |= TIM_CounterMode;
 899              		.loc 1 391 0
 900 00a8 FA89     		ldrh	r2, [r7, #14]	@ movhi
 901 00aa 7B88     		ldrh	r3, [r7, #2]	@ movhi
 902 00ac 1343     		orrs	r3, r3, r2
 903 00ae FB81     		strh	r3, [r7, #14]	@ movhi
 392:lib/chip/STM32F4xx_StdPeriph_Driver/src/stm32f4xx_tim.c **** 
 393:lib/chip/STM32F4xx_StdPeriph_Driver/src/stm32f4xx_tim.c ****   /* Write to TIMx CR1 register */
 394:lib/chip/STM32F4xx_StdPeriph_Driver/src/stm32f4xx_tim.c ****   TIMx->CR1 = tmpcr1;
 904              		.loc 1 394 0
 905 00b0 7B68     		ldr	r3, [r7, #4]
 906 00b2 FA89     		ldrh	r2, [r7, #14]	@ movhi
 907 00b4 1A80     		strh	r2, [r3]	@ movhi
 395:lib/chip/STM32F4xx_StdPeriph_Driver/src/stm32f4xx_tim.c **** }
 908              		.loc 1 395 0
 909 00b6 1037     		adds	r7, r7, #16
 910 00b8 BD46     		mov	sp, r7
 911              		@ sp needed
 912 00ba 80BD     		pop	{r7, pc}
 913              		.cfi_endproc
 914              	.LFE114:
 916              		.section	.text.TIM_SetCounter,"ax",%progbits
 917              		.align	2
 918              		.global	TIM_SetCounter
 919              		.thumb
 920              		.thumb_func
 922              	TIM_SetCounter:
 923              	.LFB115:
 396:lib/chip/STM32F4xx_StdPeriph_Driver/src/stm32f4xx_tim.c **** 
 397:lib/chip/STM32F4xx_StdPeriph_Driver/src/stm32f4xx_tim.c **** /**
 398:lib/chip/STM32F4xx_StdPeriph_Driver/src/stm32f4xx_tim.c ****   * @brief  Sets the TIMx Counter Register value
 399:lib/chip/STM32F4xx_StdPeriph_Driver/src/stm32f4xx_tim.c ****   * @param  TIMx: where x can be 1 to 14 to select the TIM peripheral.
 400:lib/chip/STM32F4xx_StdPeriph_Driver/src/stm32f4xx_tim.c ****   * @param  Counter: specifies the Counter register new value.
 401:lib/chip/STM32F4xx_StdPeriph_Driver/src/stm32f4xx_tim.c ****   * @retval None
 402:lib/chip/STM32F4xx_StdPeriph_Driver/src/stm32f4xx_tim.c ****   */
 403:lib/chip/STM32F4xx_StdPeriph_Driver/src/stm32f4xx_tim.c **** void TIM_SetCounter(TIM_TypeDef* TIMx, uint32_t Counter)
 404:lib/chip/STM32F4xx_StdPeriph_Driver/src/stm32f4xx_tim.c **** {
 924              		.loc 1 404 0
 925              		.cfi_startproc
 926              		@ args = 0, pretend = 0, frame = 8
 927              		@ frame_needed = 1, uses_anonymous_args = 0
 928 0000 80B5     		push	{r7, lr}
 929              	.LCFI15:
 930              		.cfi_def_cfa_offset 8
 931              		.cfi_offset 7, -8
 932              		.cfi_offset 14, -4
 933 0002 82B0     		sub	sp, sp, #8
 934              	.LCFI16:
 935              		.cfi_def_cfa_offset 16
 936 0004 00AF     		add	r7, sp, #0
 937              	.LCFI17:
 938              		.cfi_def_cfa_register 7
 939 0006 7860     		str	r0, [r7, #4]
 940 0008 3960     		str	r1, [r7]
 405:lib/chip/STM32F4xx_StdPeriph_Driver/src/stm32f4xx_tim.c ****   /* Check the parameters */
 406:lib/chip/STM32F4xx_StdPeriph_Driver/src/stm32f4xx_tim.c ****    assert_param(IS_TIM_ALL_PERIPH(TIMx));
 941              		.loc 1 406 0
 942 000a 7A68     		ldr	r2, [r7, #4]
 943 000c 0023     		movs	r3, #0
 944 000e C4F20103 		movt	r3, 16385
 945 0012 9A42     		cmp	r2, r3
 946 0014 5FD0     		beq	.L34
 947              		.loc 1 406 0 is_stmt 0 discriminator 1
 948 0016 7B68     		ldr	r3, [r7, #4]
 949 0018 B3F1804F 		cmp	r3, #1073741824
 950 001c 5BD0     		beq	.L34
 951 001e 7A68     		ldr	r2, [r7, #4]
 952 0020 4FF48063 		mov	r3, #1024
 953 0024 C4F20003 		movt	r3, 16384
 954 0028 9A42     		cmp	r2, r3
 955 002a 54D0     		beq	.L34
 956 002c 7A68     		ldr	r2, [r7, #4]
 957 002e 4FF40063 		mov	r3, #2048
 958 0032 C4F20003 		movt	r3, 16384
 959 0036 9A42     		cmp	r2, r3
 960 0038 4DD0     		beq	.L34
 961 003a 7A68     		ldr	r2, [r7, #4]
 962 003c 4FF44063 		mov	r3, #3072
 963 0040 C4F20003 		movt	r3, 16384
 964 0044 9A42     		cmp	r2, r3
 965 0046 46D0     		beq	.L34
 966 0048 7A68     		ldr	r2, [r7, #4]
 967 004a 4FF48053 		mov	r3, #4096
 968 004e C4F20003 		movt	r3, 16384
 969 0052 9A42     		cmp	r2, r3
 970 0054 3FD0     		beq	.L34
 971 0056 7A68     		ldr	r2, [r7, #4]
 972 0058 4FF4A053 		mov	r3, #5120
 973 005c C4F20003 		movt	r3, 16384
 974 0060 9A42     		cmp	r2, r3
 975 0062 38D0     		beq	.L34
 976 0064 7A68     		ldr	r2, [r7, #4]
 977 0066 4FF48063 		mov	r3, #1024
 978 006a C4F20103 		movt	r3, 16385
 979 006e 9A42     		cmp	r2, r3
 980 0070 31D0     		beq	.L34
 981 0072 7A68     		ldr	r2, [r7, #4]
 982 0074 4FF48043 		mov	r3, #16384
 983 0078 C4F20103 		movt	r3, 16385
 984 007c 9A42     		cmp	r2, r3
 985 007e 2AD0     		beq	.L34
 986 0080 7A68     		ldr	r2, [r7, #4]
 987 0082 4FF48843 		mov	r3, #17408
 988 0086 C4F20103 		movt	r3, 16385
 989 008a 9A42     		cmp	r2, r3
 990 008c 23D0     		beq	.L34
 991 008e 7A68     		ldr	r2, [r7, #4]
 992 0090 4FF49043 		mov	r3, #18432
 993 0094 C4F20103 		movt	r3, 16385
 994 0098 9A42     		cmp	r2, r3
 995 009a 1CD0     		beq	.L34
 996 009c 7A68     		ldr	r2, [r7, #4]
 997 009e 4FF4C053 		mov	r3, #6144
 998 00a2 C4F20003 		movt	r3, 16384
 999 00a6 9A42     		cmp	r2, r3
 1000 00a8 15D0     		beq	.L34
 1001 00aa 7A68     		ldr	r2, [r7, #4]
 1002 00ac 4FF4E053 		mov	r3, #7168
 1003 00b0 C4F20003 		movt	r3, 16384
 1004 00b4 9A42     		cmp	r2, r3
 1005 00b6 0ED0     		beq	.L34
 1006 00b8 7A68     		ldr	r2, [r7, #4]
 1007 00ba 4FF40053 		mov	r3, #8192
 1008 00be C4F20003 		movt	r3, 16384
 1009 00c2 9A42     		cmp	r2, r3
 1010 00c4 07D0     		beq	.L34
 1011 00c6 40F20000 		movw	r0, #:lower16:.LC0
 1012 00ca C0F20000 		movt	r0, #:upper16:.LC0
 1013 00ce 4FF4CB71 		mov	r1, #406
 1014 00d2 FFF7FEFF 		bl	assert_failed
 1015              	.L34:
 407:lib/chip/STM32F4xx_StdPeriph_Driver/src/stm32f4xx_tim.c **** 
 408:lib/chip/STM32F4xx_StdPeriph_Driver/src/stm32f4xx_tim.c ****   /* Set the Counter Register value */
 409:lib/chip/STM32F4xx_StdPeriph_Driver/src/stm32f4xx_tim.c ****   TIMx->CNT = Counter;
 1016              		.loc 1 409 0 is_stmt 1
 1017 00d6 7B68     		ldr	r3, [r7, #4]
 1018 00d8 3A68     		ldr	r2, [r7]
 1019 00da 5A62     		str	r2, [r3, #36]
 410:lib/chip/STM32F4xx_StdPeriph_Driver/src/stm32f4xx_tim.c **** }
 1020              		.loc 1 410 0
 1021 00dc 0837     		adds	r7, r7, #8
 1022 00de BD46     		mov	sp, r7
 1023              		@ sp needed
 1024 00e0 80BD     		pop	{r7, pc}
 1025              		.cfi_endproc
 1026              	.LFE115:
 1028 00e2 00BF     		.section	.text.TIM_SetAutoreload,"ax",%progbits
 1029              		.align	2
 1030              		.global	TIM_SetAutoreload
 1031              		.thumb
 1032              		.thumb_func
 1034              	TIM_SetAutoreload:
 1035              	.LFB116:
 411:lib/chip/STM32F4xx_StdPeriph_Driver/src/stm32f4xx_tim.c **** 
 412:lib/chip/STM32F4xx_StdPeriph_Driver/src/stm32f4xx_tim.c **** /**
 413:lib/chip/STM32F4xx_StdPeriph_Driver/src/stm32f4xx_tim.c ****   * @brief  Sets the TIMx Autoreload Register value
 414:lib/chip/STM32F4xx_StdPeriph_Driver/src/stm32f4xx_tim.c ****   * @param  TIMx: where x can be 1 to 14 to select the TIM peripheral.
 415:lib/chip/STM32F4xx_StdPeriph_Driver/src/stm32f4xx_tim.c ****   * @param  Autoreload: specifies the Autoreload register new value.
 416:lib/chip/STM32F4xx_StdPeriph_Driver/src/stm32f4xx_tim.c ****   * @retval None
 417:lib/chip/STM32F4xx_StdPeriph_Driver/src/stm32f4xx_tim.c ****   */
 418:lib/chip/STM32F4xx_StdPeriph_Driver/src/stm32f4xx_tim.c **** void TIM_SetAutoreload(TIM_TypeDef* TIMx, uint32_t Autoreload)
 419:lib/chip/STM32F4xx_StdPeriph_Driver/src/stm32f4xx_tim.c **** {
 1036              		.loc 1 419 0
 1037              		.cfi_startproc
 1038              		@ args = 0, pretend = 0, frame = 8
 1039              		@ frame_needed = 1, uses_anonymous_args = 0
 1040 0000 80B5     		push	{r7, lr}
 1041              	.LCFI18:
 1042              		.cfi_def_cfa_offset 8
 1043              		.cfi_offset 7, -8
 1044              		.cfi_offset 14, -4
 1045 0002 82B0     		sub	sp, sp, #8
 1046              	.LCFI19:
 1047              		.cfi_def_cfa_offset 16
 1048 0004 00AF     		add	r7, sp, #0
 1049              	.LCFI20:
 1050              		.cfi_def_cfa_register 7
 1051 0006 7860     		str	r0, [r7, #4]
 1052 0008 3960     		str	r1, [r7]
 420:lib/chip/STM32F4xx_StdPeriph_Driver/src/stm32f4xx_tim.c ****   /* Check the parameters */
 421:lib/chip/STM32F4xx_StdPeriph_Driver/src/stm32f4xx_tim.c ****   assert_param(IS_TIM_ALL_PERIPH(TIMx));
 1053              		.loc 1 421 0
 1054 000a 7A68     		ldr	r2, [r7, #4]
 1055 000c 0023     		movs	r3, #0
 1056 000e C4F20103 		movt	r3, 16385
 1057 0012 9A42     		cmp	r2, r3
 1058 0014 5FD0     		beq	.L36
 1059              		.loc 1 421 0 is_stmt 0 discriminator 1
 1060 0016 7B68     		ldr	r3, [r7, #4]
 1061 0018 B3F1804F 		cmp	r3, #1073741824
 1062 001c 5BD0     		beq	.L36
 1063 001e 7A68     		ldr	r2, [r7, #4]
 1064 0020 4FF48063 		mov	r3, #1024
 1065 0024 C4F20003 		movt	r3, 16384
 1066 0028 9A42     		cmp	r2, r3
 1067 002a 54D0     		beq	.L36
 1068 002c 7A68     		ldr	r2, [r7, #4]
 1069 002e 4FF40063 		mov	r3, #2048
 1070 0032 C4F20003 		movt	r3, 16384
 1071 0036 9A42     		cmp	r2, r3
 1072 0038 4DD0     		beq	.L36
 1073 003a 7A68     		ldr	r2, [r7, #4]
 1074 003c 4FF44063 		mov	r3, #3072
 1075 0040 C4F20003 		movt	r3, 16384
 1076 0044 9A42     		cmp	r2, r3
 1077 0046 46D0     		beq	.L36
 1078 0048 7A68     		ldr	r2, [r7, #4]
 1079 004a 4FF48053 		mov	r3, #4096
 1080 004e C4F20003 		movt	r3, 16384
 1081 0052 9A42     		cmp	r2, r3
 1082 0054 3FD0     		beq	.L36
 1083 0056 7A68     		ldr	r2, [r7, #4]
 1084 0058 4FF4A053 		mov	r3, #5120
 1085 005c C4F20003 		movt	r3, 16384
 1086 0060 9A42     		cmp	r2, r3
 1087 0062 38D0     		beq	.L36
 1088 0064 7A68     		ldr	r2, [r7, #4]
 1089 0066 4FF48063 		mov	r3, #1024
 1090 006a C4F20103 		movt	r3, 16385
 1091 006e 9A42     		cmp	r2, r3
 1092 0070 31D0     		beq	.L36
 1093 0072 7A68     		ldr	r2, [r7, #4]
 1094 0074 4FF48043 		mov	r3, #16384
 1095 0078 C4F20103 		movt	r3, 16385
 1096 007c 9A42     		cmp	r2, r3
 1097 007e 2AD0     		beq	.L36
 1098 0080 7A68     		ldr	r2, [r7, #4]
 1099 0082 4FF48843 		mov	r3, #17408
 1100 0086 C4F20103 		movt	r3, 16385
 1101 008a 9A42     		cmp	r2, r3
 1102 008c 23D0     		beq	.L36
 1103 008e 7A68     		ldr	r2, [r7, #4]
 1104 0090 4FF49043 		mov	r3, #18432
 1105 0094 C4F20103 		movt	r3, 16385
 1106 0098 9A42     		cmp	r2, r3
 1107 009a 1CD0     		beq	.L36
 1108 009c 7A68     		ldr	r2, [r7, #4]
 1109 009e 4FF4C053 		mov	r3, #6144
 1110 00a2 C4F20003 		movt	r3, 16384
 1111 00a6 9A42     		cmp	r2, r3
 1112 00a8 15D0     		beq	.L36
 1113 00aa 7A68     		ldr	r2, [r7, #4]
 1114 00ac 4FF4E053 		mov	r3, #7168
 1115 00b0 C4F20003 		movt	r3, 16384
 1116 00b4 9A42     		cmp	r2, r3
 1117 00b6 0ED0     		beq	.L36
 1118 00b8 7A68     		ldr	r2, [r7, #4]
 1119 00ba 4FF40053 		mov	r3, #8192
 1120 00be C4F20003 		movt	r3, 16384
 1121 00c2 9A42     		cmp	r2, r3
 1122 00c4 07D0     		beq	.L36
 1123 00c6 40F20000 		movw	r0, #:lower16:.LC0
 1124 00ca C0F20000 		movt	r0, #:upper16:.LC0
 1125 00ce 40F2A511 		movw	r1, #421
 1126 00d2 FFF7FEFF 		bl	assert_failed
 1127              	.L36:
 422:lib/chip/STM32F4xx_StdPeriph_Driver/src/stm32f4xx_tim.c ****   
 423:lib/chip/STM32F4xx_StdPeriph_Driver/src/stm32f4xx_tim.c ****   /* Set the Autoreload Register value */
 424:lib/chip/STM32F4xx_StdPeriph_Driver/src/stm32f4xx_tim.c ****   TIMx->ARR = Autoreload;
 1128              		.loc 1 424 0 is_stmt 1
 1129 00d6 7B68     		ldr	r3, [r7, #4]
 1130 00d8 3A68     		ldr	r2, [r7]
 1131 00da DA62     		str	r2, [r3, #44]
 425:lib/chip/STM32F4xx_StdPeriph_Driver/src/stm32f4xx_tim.c **** }
 1132              		.loc 1 425 0
 1133 00dc 0837     		adds	r7, r7, #8
 1134 00de BD46     		mov	sp, r7
 1135              		@ sp needed
 1136 00e0 80BD     		pop	{r7, pc}
 1137              		.cfi_endproc
 1138              	.LFE116:
 1140 00e2 00BF     		.section	.text.TIM_GetCounter,"ax",%progbits
 1141              		.align	2
 1142              		.global	TIM_GetCounter
 1143              		.thumb
 1144              		.thumb_func
 1146              	TIM_GetCounter:
 1147              	.LFB117:
 426:lib/chip/STM32F4xx_StdPeriph_Driver/src/stm32f4xx_tim.c **** 
 427:lib/chip/STM32F4xx_StdPeriph_Driver/src/stm32f4xx_tim.c **** /**
 428:lib/chip/STM32F4xx_StdPeriph_Driver/src/stm32f4xx_tim.c ****   * @brief  Gets the TIMx Counter value.
 429:lib/chip/STM32F4xx_StdPeriph_Driver/src/stm32f4xx_tim.c ****   * @param  TIMx: where x can be 1 to 14 to select the TIM peripheral.
 430:lib/chip/STM32F4xx_StdPeriph_Driver/src/stm32f4xx_tim.c ****   * @retval Counter Register value
 431:lib/chip/STM32F4xx_StdPeriph_Driver/src/stm32f4xx_tim.c ****   */
 432:lib/chip/STM32F4xx_StdPeriph_Driver/src/stm32f4xx_tim.c **** uint32_t TIM_GetCounter(TIM_TypeDef* TIMx)
 433:lib/chip/STM32F4xx_StdPeriph_Driver/src/stm32f4xx_tim.c **** {
 1148              		.loc 1 433 0
 1149              		.cfi_startproc
 1150              		@ args = 0, pretend = 0, frame = 8
 1151              		@ frame_needed = 1, uses_anonymous_args = 0
 1152 0000 80B5     		push	{r7, lr}
 1153              	.LCFI21:
 1154              		.cfi_def_cfa_offset 8
 1155              		.cfi_offset 7, -8
 1156              		.cfi_offset 14, -4
 1157 0002 82B0     		sub	sp, sp, #8
 1158              	.LCFI22:
 1159              		.cfi_def_cfa_offset 16
 1160 0004 00AF     		add	r7, sp, #0
 1161              	.LCFI23:
 1162              		.cfi_def_cfa_register 7
 1163 0006 7860     		str	r0, [r7, #4]
 434:lib/chip/STM32F4xx_StdPeriph_Driver/src/stm32f4xx_tim.c ****   /* Check the parameters */
 435:lib/chip/STM32F4xx_StdPeriph_Driver/src/stm32f4xx_tim.c ****   assert_param(IS_TIM_ALL_PERIPH(TIMx));
 1164              		.loc 1 435 0
 1165 0008 7A68     		ldr	r2, [r7, #4]
 1166 000a 0023     		movs	r3, #0
 1167 000c C4F20103 		movt	r3, 16385
 1168 0010 9A42     		cmp	r2, r3
 1169 0012 5FD0     		beq	.L38
 1170              		.loc 1 435 0 is_stmt 0 discriminator 1
 1171 0014 7B68     		ldr	r3, [r7, #4]
 1172 0016 B3F1804F 		cmp	r3, #1073741824
 1173 001a 5BD0     		beq	.L38
 1174 001c 7A68     		ldr	r2, [r7, #4]
 1175 001e 4FF48063 		mov	r3, #1024
 1176 0022 C4F20003 		movt	r3, 16384
 1177 0026 9A42     		cmp	r2, r3
 1178 0028 54D0     		beq	.L38
 1179 002a 7A68     		ldr	r2, [r7, #4]
 1180 002c 4FF40063 		mov	r3, #2048
 1181 0030 C4F20003 		movt	r3, 16384
 1182 0034 9A42     		cmp	r2, r3
 1183 0036 4DD0     		beq	.L38
 1184 0038 7A68     		ldr	r2, [r7, #4]
 1185 003a 4FF44063 		mov	r3, #3072
 1186 003e C4F20003 		movt	r3, 16384
 1187 0042 9A42     		cmp	r2, r3
 1188 0044 46D0     		beq	.L38
 1189 0046 7A68     		ldr	r2, [r7, #4]
 1190 0048 4FF48053 		mov	r3, #4096
 1191 004c C4F20003 		movt	r3, 16384
 1192 0050 9A42     		cmp	r2, r3
 1193 0052 3FD0     		beq	.L38
 1194 0054 7A68     		ldr	r2, [r7, #4]
 1195 0056 4FF4A053 		mov	r3, #5120
 1196 005a C4F20003 		movt	r3, 16384
 1197 005e 9A42     		cmp	r2, r3
 1198 0060 38D0     		beq	.L38
 1199 0062 7A68     		ldr	r2, [r7, #4]
 1200 0064 4FF48063 		mov	r3, #1024
 1201 0068 C4F20103 		movt	r3, 16385
 1202 006c 9A42     		cmp	r2, r3
 1203 006e 31D0     		beq	.L38
 1204 0070 7A68     		ldr	r2, [r7, #4]
 1205 0072 4FF48043 		mov	r3, #16384
 1206 0076 C4F20103 		movt	r3, 16385
 1207 007a 9A42     		cmp	r2, r3
 1208 007c 2AD0     		beq	.L38
 1209 007e 7A68     		ldr	r2, [r7, #4]
 1210 0080 4FF48843 		mov	r3, #17408
 1211 0084 C4F20103 		movt	r3, 16385
 1212 0088 9A42     		cmp	r2, r3
 1213 008a 23D0     		beq	.L38
 1214 008c 7A68     		ldr	r2, [r7, #4]
 1215 008e 4FF49043 		mov	r3, #18432
 1216 0092 C4F20103 		movt	r3, 16385
 1217 0096 9A42     		cmp	r2, r3
 1218 0098 1CD0     		beq	.L38
 1219 009a 7A68     		ldr	r2, [r7, #4]
 1220 009c 4FF4C053 		mov	r3, #6144
 1221 00a0 C4F20003 		movt	r3, 16384
 1222 00a4 9A42     		cmp	r2, r3
 1223 00a6 15D0     		beq	.L38
 1224 00a8 7A68     		ldr	r2, [r7, #4]
 1225 00aa 4FF4E053 		mov	r3, #7168
 1226 00ae C4F20003 		movt	r3, 16384
 1227 00b2 9A42     		cmp	r2, r3
 1228 00b4 0ED0     		beq	.L38
 1229 00b6 7A68     		ldr	r2, [r7, #4]
 1230 00b8 4FF40053 		mov	r3, #8192
 1231 00bc C4F20003 		movt	r3, 16384
 1232 00c0 9A42     		cmp	r2, r3
 1233 00c2 07D0     		beq	.L38
 1234 00c4 40F20000 		movw	r0, #:lower16:.LC0
 1235 00c8 C0F20000 		movt	r0, #:upper16:.LC0
 1236 00cc 40F2B311 		movw	r1, #435
 1237 00d0 FFF7FEFF 		bl	assert_failed
 1238              	.L38:
 436:lib/chip/STM32F4xx_StdPeriph_Driver/src/stm32f4xx_tim.c **** 
 437:lib/chip/STM32F4xx_StdPeriph_Driver/src/stm32f4xx_tim.c ****   /* Get the Counter Register value */
 438:lib/chip/STM32F4xx_StdPeriph_Driver/src/stm32f4xx_tim.c ****   return TIMx->CNT;
 1239              		.loc 1 438 0 is_stmt 1
 1240 00d4 7B68     		ldr	r3, [r7, #4]
 1241 00d6 5B6A     		ldr	r3, [r3, #36]
 439:lib/chip/STM32F4xx_StdPeriph_Driver/src/stm32f4xx_tim.c **** }
 1242              		.loc 1 439 0
 1243 00d8 1846     		mov	r0, r3
 1244 00da 0837     		adds	r7, r7, #8
 1245 00dc BD46     		mov	sp, r7
 1246              		@ sp needed
 1247 00de 80BD     		pop	{r7, pc}
 1248              		.cfi_endproc
 1249              	.LFE117:
 1251              		.section	.text.TIM_GetPrescaler,"ax",%progbits
 1252              		.align	2
 1253              		.global	TIM_GetPrescaler
 1254              		.thumb
 1255              		.thumb_func
 1257              	TIM_GetPrescaler:
 1258              	.LFB118:
 440:lib/chip/STM32F4xx_StdPeriph_Driver/src/stm32f4xx_tim.c **** 
 441:lib/chip/STM32F4xx_StdPeriph_Driver/src/stm32f4xx_tim.c **** /**
 442:lib/chip/STM32F4xx_StdPeriph_Driver/src/stm32f4xx_tim.c ****   * @brief  Gets the TIMx Prescaler value.
 443:lib/chip/STM32F4xx_StdPeriph_Driver/src/stm32f4xx_tim.c ****   * @param  TIMx: where x can be 1 to 14 to select the TIM peripheral.
 444:lib/chip/STM32F4xx_StdPeriph_Driver/src/stm32f4xx_tim.c ****   * @retval Prescaler Register value.
 445:lib/chip/STM32F4xx_StdPeriph_Driver/src/stm32f4xx_tim.c ****   */
 446:lib/chip/STM32F4xx_StdPeriph_Driver/src/stm32f4xx_tim.c **** uint16_t TIM_GetPrescaler(TIM_TypeDef* TIMx)
 447:lib/chip/STM32F4xx_StdPeriph_Driver/src/stm32f4xx_tim.c **** {
 1259              		.loc 1 447 0
 1260              		.cfi_startproc
 1261              		@ args = 0, pretend = 0, frame = 8
 1262              		@ frame_needed = 1, uses_anonymous_args = 0
 1263 0000 80B5     		push	{r7, lr}
 1264              	.LCFI24:
 1265              		.cfi_def_cfa_offset 8
 1266              		.cfi_offset 7, -8
 1267              		.cfi_offset 14, -4
 1268 0002 82B0     		sub	sp, sp, #8
 1269              	.LCFI25:
 1270              		.cfi_def_cfa_offset 16
 1271 0004 00AF     		add	r7, sp, #0
 1272              	.LCFI26:
 1273              		.cfi_def_cfa_register 7
 1274 0006 7860     		str	r0, [r7, #4]
 448:lib/chip/STM32F4xx_StdPeriph_Driver/src/stm32f4xx_tim.c ****   /* Check the parameters */
 449:lib/chip/STM32F4xx_StdPeriph_Driver/src/stm32f4xx_tim.c ****   assert_param(IS_TIM_ALL_PERIPH(TIMx));
 1275              		.loc 1 449 0
 1276 0008 7A68     		ldr	r2, [r7, #4]
 1277 000a 0023     		movs	r3, #0
 1278 000c C4F20103 		movt	r3, 16385
 1279 0010 9A42     		cmp	r2, r3
 1280 0012 5FD0     		beq	.L41
 1281              		.loc 1 449 0 is_stmt 0 discriminator 1
 1282 0014 7B68     		ldr	r3, [r7, #4]
 1283 0016 B3F1804F 		cmp	r3, #1073741824
 1284 001a 5BD0     		beq	.L41
 1285 001c 7A68     		ldr	r2, [r7, #4]
 1286 001e 4FF48063 		mov	r3, #1024
 1287 0022 C4F20003 		movt	r3, 16384
 1288 0026 9A42     		cmp	r2, r3
 1289 0028 54D0     		beq	.L41
 1290 002a 7A68     		ldr	r2, [r7, #4]
 1291 002c 4FF40063 		mov	r3, #2048
 1292 0030 C4F20003 		movt	r3, 16384
 1293 0034 9A42     		cmp	r2, r3
 1294 0036 4DD0     		beq	.L41
 1295 0038 7A68     		ldr	r2, [r7, #4]
 1296 003a 4FF44063 		mov	r3, #3072
 1297 003e C4F20003 		movt	r3, 16384
 1298 0042 9A42     		cmp	r2, r3
 1299 0044 46D0     		beq	.L41
 1300 0046 7A68     		ldr	r2, [r7, #4]
 1301 0048 4FF48053 		mov	r3, #4096
 1302 004c C4F20003 		movt	r3, 16384
 1303 0050 9A42     		cmp	r2, r3
 1304 0052 3FD0     		beq	.L41
 1305 0054 7A68     		ldr	r2, [r7, #4]
 1306 0056 4FF4A053 		mov	r3, #5120
 1307 005a C4F20003 		movt	r3, 16384
 1308 005e 9A42     		cmp	r2, r3
 1309 0060 38D0     		beq	.L41
 1310 0062 7A68     		ldr	r2, [r7, #4]
 1311 0064 4FF48063 		mov	r3, #1024
 1312 0068 C4F20103 		movt	r3, 16385
 1313 006c 9A42     		cmp	r2, r3
 1314 006e 31D0     		beq	.L41
 1315 0070 7A68     		ldr	r2, [r7, #4]
 1316 0072 4FF48043 		mov	r3, #16384
 1317 0076 C4F20103 		movt	r3, 16385
 1318 007a 9A42     		cmp	r2, r3
 1319 007c 2AD0     		beq	.L41
 1320 007e 7A68     		ldr	r2, [r7, #4]
 1321 0080 4FF48843 		mov	r3, #17408
 1322 0084 C4F20103 		movt	r3, 16385
 1323 0088 9A42     		cmp	r2, r3
 1324 008a 23D0     		beq	.L41
 1325 008c 7A68     		ldr	r2, [r7, #4]
 1326 008e 4FF49043 		mov	r3, #18432
 1327 0092 C4F20103 		movt	r3, 16385
 1328 0096 9A42     		cmp	r2, r3
 1329 0098 1CD0     		beq	.L41
 1330 009a 7A68     		ldr	r2, [r7, #4]
 1331 009c 4FF4C053 		mov	r3, #6144
 1332 00a0 C4F20003 		movt	r3, 16384
 1333 00a4 9A42     		cmp	r2, r3
 1334 00a6 15D0     		beq	.L41
 1335 00a8 7A68     		ldr	r2, [r7, #4]
 1336 00aa 4FF4E053 		mov	r3, #7168
 1337 00ae C4F20003 		movt	r3, 16384
 1338 00b2 9A42     		cmp	r2, r3
 1339 00b4 0ED0     		beq	.L41
 1340 00b6 7A68     		ldr	r2, [r7, #4]
 1341 00b8 4FF40053 		mov	r3, #8192
 1342 00bc C4F20003 		movt	r3, 16384
 1343 00c0 9A42     		cmp	r2, r3
 1344 00c2 07D0     		beq	.L41
 1345 00c4 40F20000 		movw	r0, #:lower16:.LC0
 1346 00c8 C0F20000 		movt	r0, #:upper16:.LC0
 1347 00cc 40F2C111 		movw	r1, #449
 1348 00d0 FFF7FEFF 		bl	assert_failed
 1349              	.L41:
 450:lib/chip/STM32F4xx_StdPeriph_Driver/src/stm32f4xx_tim.c **** 
 451:lib/chip/STM32F4xx_StdPeriph_Driver/src/stm32f4xx_tim.c ****   /* Get the Prescaler Register value */
 452:lib/chip/STM32F4xx_StdPeriph_Driver/src/stm32f4xx_tim.c ****   return TIMx->PSC;
 1350              		.loc 1 452 0 is_stmt 1
 1351 00d4 7B68     		ldr	r3, [r7, #4]
 1352 00d6 1B8D     		ldrh	r3, [r3, #40]	@ movhi
 1353 00d8 9BB2     		uxth	r3, r3
 453:lib/chip/STM32F4xx_StdPeriph_Driver/src/stm32f4xx_tim.c **** }
 1354              		.loc 1 453 0
 1355 00da 1846     		mov	r0, r3
 1356 00dc 0837     		adds	r7, r7, #8
 1357 00de BD46     		mov	sp, r7
 1358              		@ sp needed
 1359 00e0 80BD     		pop	{r7, pc}
 1360              		.cfi_endproc
 1361              	.LFE118:
 1363 00e2 00BF     		.section	.text.TIM_UpdateDisableConfig,"ax",%progbits
 1364              		.align	2
 1365              		.global	TIM_UpdateDisableConfig
 1366              		.thumb
 1367              		.thumb_func
 1369              	TIM_UpdateDisableConfig:
 1370              	.LFB119:
 454:lib/chip/STM32F4xx_StdPeriph_Driver/src/stm32f4xx_tim.c **** 
 455:lib/chip/STM32F4xx_StdPeriph_Driver/src/stm32f4xx_tim.c **** /**
 456:lib/chip/STM32F4xx_StdPeriph_Driver/src/stm32f4xx_tim.c ****   * @brief  Enables or Disables the TIMx Update event.
 457:lib/chip/STM32F4xx_StdPeriph_Driver/src/stm32f4xx_tim.c ****   * @param  TIMx: where x can be 1 to 14 to select the TIM peripheral.
 458:lib/chip/STM32F4xx_StdPeriph_Driver/src/stm32f4xx_tim.c ****   * @param  NewState: new state of the TIMx UDIS bit
 459:lib/chip/STM32F4xx_StdPeriph_Driver/src/stm32f4xx_tim.c ****   *          This parameter can be: ENABLE or DISABLE.
 460:lib/chip/STM32F4xx_StdPeriph_Driver/src/stm32f4xx_tim.c ****   * @retval None
 461:lib/chip/STM32F4xx_StdPeriph_Driver/src/stm32f4xx_tim.c ****   */
 462:lib/chip/STM32F4xx_StdPeriph_Driver/src/stm32f4xx_tim.c **** void TIM_UpdateDisableConfig(TIM_TypeDef* TIMx, FunctionalState NewState)
 463:lib/chip/STM32F4xx_StdPeriph_Driver/src/stm32f4xx_tim.c **** {
 1371              		.loc 1 463 0
 1372              		.cfi_startproc
 1373              		@ args = 0, pretend = 0, frame = 8
 1374              		@ frame_needed = 1, uses_anonymous_args = 0
 1375 0000 80B5     		push	{r7, lr}
 1376              	.LCFI27:
 1377              		.cfi_def_cfa_offset 8
 1378              		.cfi_offset 7, -8
 1379              		.cfi_offset 14, -4
 1380 0002 82B0     		sub	sp, sp, #8
 1381              	.LCFI28:
 1382              		.cfi_def_cfa_offset 16
 1383 0004 00AF     		add	r7, sp, #0
 1384              	.LCFI29:
 1385              		.cfi_def_cfa_register 7
 1386 0006 7860     		str	r0, [r7, #4]
 1387 0008 0B46     		mov	r3, r1
 1388 000a FB70     		strb	r3, [r7, #3]
 464:lib/chip/STM32F4xx_StdPeriph_Driver/src/stm32f4xx_tim.c ****   /* Check the parameters */
 465:lib/chip/STM32F4xx_StdPeriph_Driver/src/stm32f4xx_tim.c ****   assert_param(IS_TIM_ALL_PERIPH(TIMx));
 1389              		.loc 1 465 0
 1390 000c 7A68     		ldr	r2, [r7, #4]
 1391 000e 0023     		movs	r3, #0
 1392 0010 C4F20103 		movt	r3, 16385
 1393 0014 9A42     		cmp	r2, r3
 1394 0016 5FD0     		beq	.L44
 1395              		.loc 1 465 0 is_stmt 0 discriminator 1
 1396 0018 7B68     		ldr	r3, [r7, #4]
 1397 001a B3F1804F 		cmp	r3, #1073741824
 1398 001e 5BD0     		beq	.L44
 1399 0020 7A68     		ldr	r2, [r7, #4]
 1400 0022 4FF48063 		mov	r3, #1024
 1401 0026 C4F20003 		movt	r3, 16384
 1402 002a 9A42     		cmp	r2, r3
 1403 002c 54D0     		beq	.L44
 1404 002e 7A68     		ldr	r2, [r7, #4]
 1405 0030 4FF40063 		mov	r3, #2048
 1406 0034 C4F20003 		movt	r3, 16384
 1407 0038 9A42     		cmp	r2, r3
 1408 003a 4DD0     		beq	.L44
 1409 003c 7A68     		ldr	r2, [r7, #4]
 1410 003e 4FF44063 		mov	r3, #3072
 1411 0042 C4F20003 		movt	r3, 16384
 1412 0046 9A42     		cmp	r2, r3
 1413 0048 46D0     		beq	.L44
 1414 004a 7A68     		ldr	r2, [r7, #4]
 1415 004c 4FF48053 		mov	r3, #4096
 1416 0050 C4F20003 		movt	r3, 16384
 1417 0054 9A42     		cmp	r2, r3
 1418 0056 3FD0     		beq	.L44
 1419 0058 7A68     		ldr	r2, [r7, #4]
 1420 005a 4FF4A053 		mov	r3, #5120
 1421 005e C4F20003 		movt	r3, 16384
 1422 0062 9A42     		cmp	r2, r3
 1423 0064 38D0     		beq	.L44
 1424 0066 7A68     		ldr	r2, [r7, #4]
 1425 0068 4FF48063 		mov	r3, #1024
 1426 006c C4F20103 		movt	r3, 16385
 1427 0070 9A42     		cmp	r2, r3
 1428 0072 31D0     		beq	.L44
 1429 0074 7A68     		ldr	r2, [r7, #4]
 1430 0076 4FF48043 		mov	r3, #16384
 1431 007a C4F20103 		movt	r3, 16385
 1432 007e 9A42     		cmp	r2, r3
 1433 0080 2AD0     		beq	.L44
 1434 0082 7A68     		ldr	r2, [r7, #4]
 1435 0084 4FF48843 		mov	r3, #17408
 1436 0088 C4F20103 		movt	r3, 16385
 1437 008c 9A42     		cmp	r2, r3
 1438 008e 23D0     		beq	.L44
 1439 0090 7A68     		ldr	r2, [r7, #4]
 1440 0092 4FF49043 		mov	r3, #18432
 1441 0096 C4F20103 		movt	r3, 16385
 1442 009a 9A42     		cmp	r2, r3
 1443 009c 1CD0     		beq	.L44
 1444 009e 7A68     		ldr	r2, [r7, #4]
 1445 00a0 4FF4C053 		mov	r3, #6144
 1446 00a4 C4F20003 		movt	r3, 16384
 1447 00a8 9A42     		cmp	r2, r3
 1448 00aa 15D0     		beq	.L44
 1449 00ac 7A68     		ldr	r2, [r7, #4]
 1450 00ae 4FF4E053 		mov	r3, #7168
 1451 00b2 C4F20003 		movt	r3, 16384
 1452 00b6 9A42     		cmp	r2, r3
 1453 00b8 0ED0     		beq	.L44
 1454 00ba 7A68     		ldr	r2, [r7, #4]
 1455 00bc 4FF40053 		mov	r3, #8192
 1456 00c0 C4F20003 		movt	r3, 16384
 1457 00c4 9A42     		cmp	r2, r3
 1458 00c6 07D0     		beq	.L44
 1459 00c8 40F20000 		movw	r0, #:lower16:.LC0
 1460 00cc C0F20000 		movt	r0, #:upper16:.LC0
 1461 00d0 40F2D111 		movw	r1, #465
 1462 00d4 FFF7FEFF 		bl	assert_failed
 1463              	.L44:
 466:lib/chip/STM32F4xx_StdPeriph_Driver/src/stm32f4xx_tim.c ****   assert_param(IS_FUNCTIONAL_STATE(NewState));
 1464              		.loc 1 466 0 is_stmt 1
 1465 00d8 FB78     		ldrb	r3, [r7, #3]	@ zero_extendqisi2
 1466 00da 002B     		cmp	r3, #0
 1467 00dc 0AD0     		beq	.L45
 1468              		.loc 1 466 0 is_stmt 0 discriminator 1
 1469 00de FB78     		ldrb	r3, [r7, #3]	@ zero_extendqisi2
 1470 00e0 012B     		cmp	r3, #1
 1471 00e2 07D0     		beq	.L45
 1472 00e4 40F20000 		movw	r0, #:lower16:.LC0
 1473 00e8 C0F20000 		movt	r0, #:upper16:.LC0
 1474 00ec 4FF4E971 		mov	r1, #466
 1475 00f0 FFF7FEFF 		bl	assert_failed
 1476              	.L45:
 467:lib/chip/STM32F4xx_StdPeriph_Driver/src/stm32f4xx_tim.c **** 
 468:lib/chip/STM32F4xx_StdPeriph_Driver/src/stm32f4xx_tim.c ****   if (NewState != DISABLE)
 1477              		.loc 1 468 0 is_stmt 1
 1478 00f4 FB78     		ldrb	r3, [r7, #3]	@ zero_extendqisi2
 1479 00f6 002B     		cmp	r3, #0
 1480 00f8 08D0     		beq	.L46
 469:lib/chip/STM32F4xx_StdPeriph_Driver/src/stm32f4xx_tim.c ****   {
 470:lib/chip/STM32F4xx_StdPeriph_Driver/src/stm32f4xx_tim.c ****     /* Set the Update Disable Bit */
 471:lib/chip/STM32F4xx_StdPeriph_Driver/src/stm32f4xx_tim.c ****     TIMx->CR1 |= TIM_CR1_UDIS;
 1481              		.loc 1 471 0
 1482 00fa 7B68     		ldr	r3, [r7, #4]
 1483 00fc 1B88     		ldrh	r3, [r3]	@ movhi
 1484 00fe 9BB2     		uxth	r3, r3
 1485 0100 43F00203 		orr	r3, r3, #2
 1486 0104 9AB2     		uxth	r2, r3
 1487 0106 7B68     		ldr	r3, [r7, #4]
 1488 0108 1A80     		strh	r2, [r3]	@ movhi
 1489 010a 07E0     		b	.L43
 1490              	.L46:
 472:lib/chip/STM32F4xx_StdPeriph_Driver/src/stm32f4xx_tim.c ****   }
 473:lib/chip/STM32F4xx_StdPeriph_Driver/src/stm32f4xx_tim.c ****   else
 474:lib/chip/STM32F4xx_StdPeriph_Driver/src/stm32f4xx_tim.c ****   {
 475:lib/chip/STM32F4xx_StdPeriph_Driver/src/stm32f4xx_tim.c ****     /* Reset the Update Disable Bit */
 476:lib/chip/STM32F4xx_StdPeriph_Driver/src/stm32f4xx_tim.c ****     TIMx->CR1 &= (uint16_t)~TIM_CR1_UDIS;
 1491              		.loc 1 476 0
 1492 010c 7B68     		ldr	r3, [r7, #4]
 1493 010e 1B88     		ldrh	r3, [r3]	@ movhi
 1494 0110 9BB2     		uxth	r3, r3
 1495 0112 23F00203 		bic	r3, r3, #2
 1496 0116 9AB2     		uxth	r2, r3
 1497 0118 7B68     		ldr	r3, [r7, #4]
 1498 011a 1A80     		strh	r2, [r3]	@ movhi
 1499              	.L43:
 477:lib/chip/STM32F4xx_StdPeriph_Driver/src/stm32f4xx_tim.c ****   }
 478:lib/chip/STM32F4xx_StdPeriph_Driver/src/stm32f4xx_tim.c **** }
 1500              		.loc 1 478 0
 1501 011c 0837     		adds	r7, r7, #8
 1502 011e BD46     		mov	sp, r7
 1503              		@ sp needed
 1504 0120 80BD     		pop	{r7, pc}
 1505              		.cfi_endproc
 1506              	.LFE119:
 1508 0122 00BF     		.section	.text.TIM_UpdateRequestConfig,"ax",%progbits
 1509              		.align	2
 1510              		.global	TIM_UpdateRequestConfig
 1511              		.thumb
 1512              		.thumb_func
 1514              	TIM_UpdateRequestConfig:
 1515              	.LFB120:
 479:lib/chip/STM32F4xx_StdPeriph_Driver/src/stm32f4xx_tim.c **** 
 480:lib/chip/STM32F4xx_StdPeriph_Driver/src/stm32f4xx_tim.c **** /**
 481:lib/chip/STM32F4xx_StdPeriph_Driver/src/stm32f4xx_tim.c ****   * @brief  Configures the TIMx Update Request Interrupt source.
 482:lib/chip/STM32F4xx_StdPeriph_Driver/src/stm32f4xx_tim.c ****   * @param  TIMx: where x can be 1 to 14 to select the TIM peripheral.
 483:lib/chip/STM32F4xx_StdPeriph_Driver/src/stm32f4xx_tim.c ****   * @param  TIM_UpdateSource: specifies the Update source.
 484:lib/chip/STM32F4xx_StdPeriph_Driver/src/stm32f4xx_tim.c ****   *          This parameter can be one of the following values:
 485:lib/chip/STM32F4xx_StdPeriph_Driver/src/stm32f4xx_tim.c ****   *            @arg TIM_UpdateSource_Global: Source of update is the counter
 486:lib/chip/STM32F4xx_StdPeriph_Driver/src/stm32f4xx_tim.c ****   *                 overflow/underflow or the setting of UG bit, or an update
 487:lib/chip/STM32F4xx_StdPeriph_Driver/src/stm32f4xx_tim.c ****   *                 generation through the slave mode controller.
 488:lib/chip/STM32F4xx_StdPeriph_Driver/src/stm32f4xx_tim.c ****   *            @arg TIM_UpdateSource_Regular: Source of update is counter overflow/underflow.
 489:lib/chip/STM32F4xx_StdPeriph_Driver/src/stm32f4xx_tim.c ****   * @retval None
 490:lib/chip/STM32F4xx_StdPeriph_Driver/src/stm32f4xx_tim.c ****   */
 491:lib/chip/STM32F4xx_StdPeriph_Driver/src/stm32f4xx_tim.c **** void TIM_UpdateRequestConfig(TIM_TypeDef* TIMx, uint16_t TIM_UpdateSource)
 492:lib/chip/STM32F4xx_StdPeriph_Driver/src/stm32f4xx_tim.c **** {
 1516              		.loc 1 492 0
 1517              		.cfi_startproc
 1518              		@ args = 0, pretend = 0, frame = 8
 1519              		@ frame_needed = 1, uses_anonymous_args = 0
 1520 0000 80B5     		push	{r7, lr}
 1521              	.LCFI30:
 1522              		.cfi_def_cfa_offset 8
 1523              		.cfi_offset 7, -8
 1524              		.cfi_offset 14, -4
 1525 0002 82B0     		sub	sp, sp, #8
 1526              	.LCFI31:
 1527              		.cfi_def_cfa_offset 16
 1528 0004 00AF     		add	r7, sp, #0
 1529              	.LCFI32:
 1530              		.cfi_def_cfa_register 7
 1531 0006 7860     		str	r0, [r7, #4]
 1532 0008 0B46     		mov	r3, r1
 1533 000a 7B80     		strh	r3, [r7, #2]	@ movhi
 493:lib/chip/STM32F4xx_StdPeriph_Driver/src/stm32f4xx_tim.c ****   /* Check the parameters */
 494:lib/chip/STM32F4xx_StdPeriph_Driver/src/stm32f4xx_tim.c ****   assert_param(IS_TIM_ALL_PERIPH(TIMx));
 1534              		.loc 1 494 0
 1535 000c 7A68     		ldr	r2, [r7, #4]
 1536 000e 0023     		movs	r3, #0
 1537 0010 C4F20103 		movt	r3, 16385
 1538 0014 9A42     		cmp	r2, r3
 1539 0016 5FD0     		beq	.L49
 1540              		.loc 1 494 0 is_stmt 0 discriminator 1
 1541 0018 7B68     		ldr	r3, [r7, #4]
 1542 001a B3F1804F 		cmp	r3, #1073741824
 1543 001e 5BD0     		beq	.L49
 1544 0020 7A68     		ldr	r2, [r7, #4]
 1545 0022 4FF48063 		mov	r3, #1024
 1546 0026 C4F20003 		movt	r3, 16384
 1547 002a 9A42     		cmp	r2, r3
 1548 002c 54D0     		beq	.L49
 1549 002e 7A68     		ldr	r2, [r7, #4]
 1550 0030 4FF40063 		mov	r3, #2048
 1551 0034 C4F20003 		movt	r3, 16384
 1552 0038 9A42     		cmp	r2, r3
 1553 003a 4DD0     		beq	.L49
 1554 003c 7A68     		ldr	r2, [r7, #4]
 1555 003e 4FF44063 		mov	r3, #3072
 1556 0042 C4F20003 		movt	r3, 16384
 1557 0046 9A42     		cmp	r2, r3
 1558 0048 46D0     		beq	.L49
 1559 004a 7A68     		ldr	r2, [r7, #4]
 1560 004c 4FF48053 		mov	r3, #4096
 1561 0050 C4F20003 		movt	r3, 16384
 1562 0054 9A42     		cmp	r2, r3
 1563 0056 3FD0     		beq	.L49
 1564 0058 7A68     		ldr	r2, [r7, #4]
 1565 005a 4FF4A053 		mov	r3, #5120
 1566 005e C4F20003 		movt	r3, 16384
 1567 0062 9A42     		cmp	r2, r3
 1568 0064 38D0     		beq	.L49
 1569 0066 7A68     		ldr	r2, [r7, #4]
 1570 0068 4FF48063 		mov	r3, #1024
 1571 006c C4F20103 		movt	r3, 16385
 1572 0070 9A42     		cmp	r2, r3
 1573 0072 31D0     		beq	.L49
 1574 0074 7A68     		ldr	r2, [r7, #4]
 1575 0076 4FF48043 		mov	r3, #16384
 1576 007a C4F20103 		movt	r3, 16385
 1577 007e 9A42     		cmp	r2, r3
 1578 0080 2AD0     		beq	.L49
 1579 0082 7A68     		ldr	r2, [r7, #4]
 1580 0084 4FF48843 		mov	r3, #17408
 1581 0088 C4F20103 		movt	r3, 16385
 1582 008c 9A42     		cmp	r2, r3
 1583 008e 23D0     		beq	.L49
 1584 0090 7A68     		ldr	r2, [r7, #4]
 1585 0092 4FF49043 		mov	r3, #18432
 1586 0096 C4F20103 		movt	r3, 16385
 1587 009a 9A42     		cmp	r2, r3
 1588 009c 1CD0     		beq	.L49
 1589 009e 7A68     		ldr	r2, [r7, #4]
 1590 00a0 4FF4C053 		mov	r3, #6144
 1591 00a4 C4F20003 		movt	r3, 16384
 1592 00a8 9A42     		cmp	r2, r3
 1593 00aa 15D0     		beq	.L49
 1594 00ac 7A68     		ldr	r2, [r7, #4]
 1595 00ae 4FF4E053 		mov	r3, #7168
 1596 00b2 C4F20003 		movt	r3, 16384
 1597 00b6 9A42     		cmp	r2, r3
 1598 00b8 0ED0     		beq	.L49
 1599 00ba 7A68     		ldr	r2, [r7, #4]
 1600 00bc 4FF40053 		mov	r3, #8192
 1601 00c0 C4F20003 		movt	r3, 16384
 1602 00c4 9A42     		cmp	r2, r3
 1603 00c6 07D0     		beq	.L49
 1604 00c8 40F20000 		movw	r0, #:lower16:.LC0
 1605 00cc C0F20000 		movt	r0, #:upper16:.LC0
 1606 00d0 4FF4F771 		mov	r1, #494
 1607 00d4 FFF7FEFF 		bl	assert_failed
 1608              	.L49:
 495:lib/chip/STM32F4xx_StdPeriph_Driver/src/stm32f4xx_tim.c ****   assert_param(IS_TIM_UPDATE_SOURCE(TIM_UpdateSource));
 1609              		.loc 1 495 0 is_stmt 1
 1610 00d8 7B88     		ldrh	r3, [r7, #2]
 1611 00da 002B     		cmp	r3, #0
 1612 00dc 0AD0     		beq	.L50
 1613              		.loc 1 495 0 is_stmt 0 discriminator 1
 1614 00de 7B88     		ldrh	r3, [r7, #2]
 1615 00e0 012B     		cmp	r3, #1
 1616 00e2 07D0     		beq	.L50
 1617 00e4 40F20000 		movw	r0, #:lower16:.LC0
 1618 00e8 C0F20000 		movt	r0, #:upper16:.LC0
 1619 00ec 40F2EF11 		movw	r1, #495
 1620 00f0 FFF7FEFF 		bl	assert_failed
 1621              	.L50:
 496:lib/chip/STM32F4xx_StdPeriph_Driver/src/stm32f4xx_tim.c **** 
 497:lib/chip/STM32F4xx_StdPeriph_Driver/src/stm32f4xx_tim.c ****   if (TIM_UpdateSource != TIM_UpdateSource_Global)
 1622              		.loc 1 497 0 is_stmt 1
 1623 00f4 7B88     		ldrh	r3, [r7, #2]
 1624 00f6 002B     		cmp	r3, #0
 1625 00f8 08D0     		beq	.L51
 498:lib/chip/STM32F4xx_StdPeriph_Driver/src/stm32f4xx_tim.c ****   {
 499:lib/chip/STM32F4xx_StdPeriph_Driver/src/stm32f4xx_tim.c ****     /* Set the URS Bit */
 500:lib/chip/STM32F4xx_StdPeriph_Driver/src/stm32f4xx_tim.c ****     TIMx->CR1 |= TIM_CR1_URS;
 1626              		.loc 1 500 0
 1627 00fa 7B68     		ldr	r3, [r7, #4]
 1628 00fc 1B88     		ldrh	r3, [r3]	@ movhi
 1629 00fe 9BB2     		uxth	r3, r3
 1630 0100 43F00403 		orr	r3, r3, #4
 1631 0104 9AB2     		uxth	r2, r3
 1632 0106 7B68     		ldr	r3, [r7, #4]
 1633 0108 1A80     		strh	r2, [r3]	@ movhi
 1634 010a 07E0     		b	.L48
 1635              	.L51:
 501:lib/chip/STM32F4xx_StdPeriph_Driver/src/stm32f4xx_tim.c ****   }
 502:lib/chip/STM32F4xx_StdPeriph_Driver/src/stm32f4xx_tim.c ****   else
 503:lib/chip/STM32F4xx_StdPeriph_Driver/src/stm32f4xx_tim.c ****   {
 504:lib/chip/STM32F4xx_StdPeriph_Driver/src/stm32f4xx_tim.c ****     /* Reset the URS Bit */
 505:lib/chip/STM32F4xx_StdPeriph_Driver/src/stm32f4xx_tim.c ****     TIMx->CR1 &= (uint16_t)~TIM_CR1_URS;
 1636              		.loc 1 505 0
 1637 010c 7B68     		ldr	r3, [r7, #4]
 1638 010e 1B88     		ldrh	r3, [r3]	@ movhi
 1639 0110 9BB2     		uxth	r3, r3
 1640 0112 23F00403 		bic	r3, r3, #4
 1641 0116 9AB2     		uxth	r2, r3
 1642 0118 7B68     		ldr	r3, [r7, #4]
 1643 011a 1A80     		strh	r2, [r3]	@ movhi
 1644              	.L48:
 506:lib/chip/STM32F4xx_StdPeriph_Driver/src/stm32f4xx_tim.c ****   }
 507:lib/chip/STM32F4xx_StdPeriph_Driver/src/stm32f4xx_tim.c **** }
 1645              		.loc 1 507 0
 1646 011c 0837     		adds	r7, r7, #8
 1647 011e BD46     		mov	sp, r7
 1648              		@ sp needed
 1649 0120 80BD     		pop	{r7, pc}
 1650              		.cfi_endproc
 1651              	.LFE120:
 1653 0122 00BF     		.section	.text.TIM_ARRPreloadConfig,"ax",%progbits
 1654              		.align	2
 1655              		.global	TIM_ARRPreloadConfig
 1656              		.thumb
 1657              		.thumb_func
 1659              	TIM_ARRPreloadConfig:
 1660              	.LFB121:
 508:lib/chip/STM32F4xx_StdPeriph_Driver/src/stm32f4xx_tim.c **** 
 509:lib/chip/STM32F4xx_StdPeriph_Driver/src/stm32f4xx_tim.c **** /**
 510:lib/chip/STM32F4xx_StdPeriph_Driver/src/stm32f4xx_tim.c ****   * @brief  Enables or disables TIMx peripheral Preload register on ARR.
 511:lib/chip/STM32F4xx_StdPeriph_Driver/src/stm32f4xx_tim.c ****   * @param  TIMx: where x can be 1 to 14 to select the TIM peripheral.
 512:lib/chip/STM32F4xx_StdPeriph_Driver/src/stm32f4xx_tim.c ****   * @param  NewState: new state of the TIMx peripheral Preload register
 513:lib/chip/STM32F4xx_StdPeriph_Driver/src/stm32f4xx_tim.c ****   *          This parameter can be: ENABLE or DISABLE.
 514:lib/chip/STM32F4xx_StdPeriph_Driver/src/stm32f4xx_tim.c ****   * @retval None
 515:lib/chip/STM32F4xx_StdPeriph_Driver/src/stm32f4xx_tim.c ****   */
 516:lib/chip/STM32F4xx_StdPeriph_Driver/src/stm32f4xx_tim.c **** void TIM_ARRPreloadConfig(TIM_TypeDef* TIMx, FunctionalState NewState)
 517:lib/chip/STM32F4xx_StdPeriph_Driver/src/stm32f4xx_tim.c **** {
 1661              		.loc 1 517 0
 1662              		.cfi_startproc
 1663              		@ args = 0, pretend = 0, frame = 8
 1664              		@ frame_needed = 1, uses_anonymous_args = 0
 1665 0000 80B5     		push	{r7, lr}
 1666              	.LCFI33:
 1667              		.cfi_def_cfa_offset 8
 1668              		.cfi_offset 7, -8
 1669              		.cfi_offset 14, -4
 1670 0002 82B0     		sub	sp, sp, #8
 1671              	.LCFI34:
 1672              		.cfi_def_cfa_offset 16
 1673 0004 00AF     		add	r7, sp, #0
 1674              	.LCFI35:
 1675              		.cfi_def_cfa_register 7
 1676 0006 7860     		str	r0, [r7, #4]
 1677 0008 0B46     		mov	r3, r1
 1678 000a FB70     		strb	r3, [r7, #3]
 518:lib/chip/STM32F4xx_StdPeriph_Driver/src/stm32f4xx_tim.c ****   /* Check the parameters */
 519:lib/chip/STM32F4xx_StdPeriph_Driver/src/stm32f4xx_tim.c ****   assert_param(IS_TIM_ALL_PERIPH(TIMx));
 1679              		.loc 1 519 0
 1680 000c 7A68     		ldr	r2, [r7, #4]
 1681 000e 0023     		movs	r3, #0
 1682 0010 C4F20103 		movt	r3, 16385
 1683 0014 9A42     		cmp	r2, r3
 1684 0016 5FD0     		beq	.L54
 1685              		.loc 1 519 0 is_stmt 0 discriminator 1
 1686 0018 7B68     		ldr	r3, [r7, #4]
 1687 001a B3F1804F 		cmp	r3, #1073741824
 1688 001e 5BD0     		beq	.L54
 1689 0020 7A68     		ldr	r2, [r7, #4]
 1690 0022 4FF48063 		mov	r3, #1024
 1691 0026 C4F20003 		movt	r3, 16384
 1692 002a 9A42     		cmp	r2, r3
 1693 002c 54D0     		beq	.L54
 1694 002e 7A68     		ldr	r2, [r7, #4]
 1695 0030 4FF40063 		mov	r3, #2048
 1696 0034 C4F20003 		movt	r3, 16384
 1697 0038 9A42     		cmp	r2, r3
 1698 003a 4DD0     		beq	.L54
 1699 003c 7A68     		ldr	r2, [r7, #4]
 1700 003e 4FF44063 		mov	r3, #3072
 1701 0042 C4F20003 		movt	r3, 16384
 1702 0046 9A42     		cmp	r2, r3
 1703 0048 46D0     		beq	.L54
 1704 004a 7A68     		ldr	r2, [r7, #4]
 1705 004c 4FF48053 		mov	r3, #4096
 1706 0050 C4F20003 		movt	r3, 16384
 1707 0054 9A42     		cmp	r2, r3
 1708 0056 3FD0     		beq	.L54
 1709 0058 7A68     		ldr	r2, [r7, #4]
 1710 005a 4FF4A053 		mov	r3, #5120
 1711 005e C4F20003 		movt	r3, 16384
 1712 0062 9A42     		cmp	r2, r3
 1713 0064 38D0     		beq	.L54
 1714 0066 7A68     		ldr	r2, [r7, #4]
 1715 0068 4FF48063 		mov	r3, #1024
 1716 006c C4F20103 		movt	r3, 16385
 1717 0070 9A42     		cmp	r2, r3
 1718 0072 31D0     		beq	.L54
 1719 0074 7A68     		ldr	r2, [r7, #4]
 1720 0076 4FF48043 		mov	r3, #16384
 1721 007a C4F20103 		movt	r3, 16385
 1722 007e 9A42     		cmp	r2, r3
 1723 0080 2AD0     		beq	.L54
 1724 0082 7A68     		ldr	r2, [r7, #4]
 1725 0084 4FF48843 		mov	r3, #17408
 1726 0088 C4F20103 		movt	r3, 16385
 1727 008c 9A42     		cmp	r2, r3
 1728 008e 23D0     		beq	.L54
 1729 0090 7A68     		ldr	r2, [r7, #4]
 1730 0092 4FF49043 		mov	r3, #18432
 1731 0096 C4F20103 		movt	r3, 16385
 1732 009a 9A42     		cmp	r2, r3
 1733 009c 1CD0     		beq	.L54
 1734 009e 7A68     		ldr	r2, [r7, #4]
 1735 00a0 4FF4C053 		mov	r3, #6144
 1736 00a4 C4F20003 		movt	r3, 16384
 1737 00a8 9A42     		cmp	r2, r3
 1738 00aa 15D0     		beq	.L54
 1739 00ac 7A68     		ldr	r2, [r7, #4]
 1740 00ae 4FF4E053 		mov	r3, #7168
 1741 00b2 C4F20003 		movt	r3, 16384
 1742 00b6 9A42     		cmp	r2, r3
 1743 00b8 0ED0     		beq	.L54
 1744 00ba 7A68     		ldr	r2, [r7, #4]
 1745 00bc 4FF40053 		mov	r3, #8192
 1746 00c0 C4F20003 		movt	r3, 16384
 1747 00c4 9A42     		cmp	r2, r3
 1748 00c6 07D0     		beq	.L54
 1749 00c8 40F20000 		movw	r0, #:lower16:.LC0
 1750 00cc C0F20000 		movt	r0, #:upper16:.LC0
 1751 00d0 40F20721 		movw	r1, #519
 1752 00d4 FFF7FEFF 		bl	assert_failed
 1753              	.L54:
 520:lib/chip/STM32F4xx_StdPeriph_Driver/src/stm32f4xx_tim.c ****   assert_param(IS_FUNCTIONAL_STATE(NewState));
 1754              		.loc 1 520 0 is_stmt 1
 1755 00d8 FB78     		ldrb	r3, [r7, #3]	@ zero_extendqisi2
 1756 00da 002B     		cmp	r3, #0
 1757 00dc 0AD0     		beq	.L55
 1758              		.loc 1 520 0 is_stmt 0 discriminator 1
 1759 00de FB78     		ldrb	r3, [r7, #3]	@ zero_extendqisi2
 1760 00e0 012B     		cmp	r3, #1
 1761 00e2 07D0     		beq	.L55
 1762 00e4 40F20000 		movw	r0, #:lower16:.LC0
 1763 00e8 C0F20000 		movt	r0, #:upper16:.LC0
 1764 00ec 4FF40271 		mov	r1, #520
 1765 00f0 FFF7FEFF 		bl	assert_failed
 1766              	.L55:
 521:lib/chip/STM32F4xx_StdPeriph_Driver/src/stm32f4xx_tim.c **** 
 522:lib/chip/STM32F4xx_StdPeriph_Driver/src/stm32f4xx_tim.c ****   if (NewState != DISABLE)
 1767              		.loc 1 522 0 is_stmt 1
 1768 00f4 FB78     		ldrb	r3, [r7, #3]	@ zero_extendqisi2
 1769 00f6 002B     		cmp	r3, #0
 1770 00f8 08D0     		beq	.L56
 523:lib/chip/STM32F4xx_StdPeriph_Driver/src/stm32f4xx_tim.c ****   {
 524:lib/chip/STM32F4xx_StdPeriph_Driver/src/stm32f4xx_tim.c ****     /* Set the ARR Preload Bit */
 525:lib/chip/STM32F4xx_StdPeriph_Driver/src/stm32f4xx_tim.c ****     TIMx->CR1 |= TIM_CR1_ARPE;
 1771              		.loc 1 525 0
 1772 00fa 7B68     		ldr	r3, [r7, #4]
 1773 00fc 1B88     		ldrh	r3, [r3]	@ movhi
 1774 00fe 9BB2     		uxth	r3, r3
 1775 0100 43F08003 		orr	r3, r3, #128
 1776 0104 9AB2     		uxth	r2, r3
 1777 0106 7B68     		ldr	r3, [r7, #4]
 1778 0108 1A80     		strh	r2, [r3]	@ movhi
 1779 010a 07E0     		b	.L53
 1780              	.L56:
 526:lib/chip/STM32F4xx_StdPeriph_Driver/src/stm32f4xx_tim.c ****   }
 527:lib/chip/STM32F4xx_StdPeriph_Driver/src/stm32f4xx_tim.c ****   else
 528:lib/chip/STM32F4xx_StdPeriph_Driver/src/stm32f4xx_tim.c ****   {
 529:lib/chip/STM32F4xx_StdPeriph_Driver/src/stm32f4xx_tim.c ****     /* Reset the ARR Preload Bit */
 530:lib/chip/STM32F4xx_StdPeriph_Driver/src/stm32f4xx_tim.c ****     TIMx->CR1 &= (uint16_t)~TIM_CR1_ARPE;
 1781              		.loc 1 530 0
 1782 010c 7B68     		ldr	r3, [r7, #4]
 1783 010e 1B88     		ldrh	r3, [r3]	@ movhi
 1784 0110 9BB2     		uxth	r3, r3
 1785 0112 23F08003 		bic	r3, r3, #128
 1786 0116 9AB2     		uxth	r2, r3
 1787 0118 7B68     		ldr	r3, [r7, #4]
 1788 011a 1A80     		strh	r2, [r3]	@ movhi
 1789              	.L53:
 531:lib/chip/STM32F4xx_StdPeriph_Driver/src/stm32f4xx_tim.c ****   }
 532:lib/chip/STM32F4xx_StdPeriph_Driver/src/stm32f4xx_tim.c **** }
 1790              		.loc 1 532 0
 1791 011c 0837     		adds	r7, r7, #8
 1792 011e BD46     		mov	sp, r7
 1793              		@ sp needed
 1794 0120 80BD     		pop	{r7, pc}
 1795              		.cfi_endproc
 1796              	.LFE121:
 1798 0122 00BF     		.section	.text.TIM_SelectOnePulseMode,"ax",%progbits
 1799              		.align	2
 1800              		.global	TIM_SelectOnePulseMode
 1801              		.thumb
 1802              		.thumb_func
 1804              	TIM_SelectOnePulseMode:
 1805              	.LFB122:
 533:lib/chip/STM32F4xx_StdPeriph_Driver/src/stm32f4xx_tim.c **** 
 534:lib/chip/STM32F4xx_StdPeriph_Driver/src/stm32f4xx_tim.c **** /**
 535:lib/chip/STM32F4xx_StdPeriph_Driver/src/stm32f4xx_tim.c ****   * @brief  Selects the TIMx's One Pulse Mode.
 536:lib/chip/STM32F4xx_StdPeriph_Driver/src/stm32f4xx_tim.c ****   * @param  TIMx: where x can be 1 to 14 to select the TIM peripheral.
 537:lib/chip/STM32F4xx_StdPeriph_Driver/src/stm32f4xx_tim.c ****   * @param  TIM_OPMode: specifies the OPM Mode to be used.
 538:lib/chip/STM32F4xx_StdPeriph_Driver/src/stm32f4xx_tim.c ****   *          This parameter can be one of the following values:
 539:lib/chip/STM32F4xx_StdPeriph_Driver/src/stm32f4xx_tim.c ****   *            @arg TIM_OPMode_Single
 540:lib/chip/STM32F4xx_StdPeriph_Driver/src/stm32f4xx_tim.c ****   *            @arg TIM_OPMode_Repetitive
 541:lib/chip/STM32F4xx_StdPeriph_Driver/src/stm32f4xx_tim.c ****   * @retval None
 542:lib/chip/STM32F4xx_StdPeriph_Driver/src/stm32f4xx_tim.c ****   */
 543:lib/chip/STM32F4xx_StdPeriph_Driver/src/stm32f4xx_tim.c **** void TIM_SelectOnePulseMode(TIM_TypeDef* TIMx, uint16_t TIM_OPMode)
 544:lib/chip/STM32F4xx_StdPeriph_Driver/src/stm32f4xx_tim.c **** {
 1806              		.loc 1 544 0
 1807              		.cfi_startproc
 1808              		@ args = 0, pretend = 0, frame = 8
 1809              		@ frame_needed = 1, uses_anonymous_args = 0
 1810 0000 80B5     		push	{r7, lr}
 1811              	.LCFI36:
 1812              		.cfi_def_cfa_offset 8
 1813              		.cfi_offset 7, -8
 1814              		.cfi_offset 14, -4
 1815 0002 82B0     		sub	sp, sp, #8
 1816              	.LCFI37:
 1817              		.cfi_def_cfa_offset 16
 1818 0004 00AF     		add	r7, sp, #0
 1819              	.LCFI38:
 1820              		.cfi_def_cfa_register 7
 1821 0006 7860     		str	r0, [r7, #4]
 1822 0008 0B46     		mov	r3, r1
 1823 000a 7B80     		strh	r3, [r7, #2]	@ movhi
 545:lib/chip/STM32F4xx_StdPeriph_Driver/src/stm32f4xx_tim.c ****   /* Check the parameters */
 546:lib/chip/STM32F4xx_StdPeriph_Driver/src/stm32f4xx_tim.c ****   assert_param(IS_TIM_ALL_PERIPH(TIMx));
 1824              		.loc 1 546 0
 1825 000c 7A68     		ldr	r2, [r7, #4]
 1826 000e 0023     		movs	r3, #0
 1827 0010 C4F20103 		movt	r3, 16385
 1828 0014 9A42     		cmp	r2, r3
 1829 0016 5FD0     		beq	.L59
 1830              		.loc 1 546 0 is_stmt 0 discriminator 1
 1831 0018 7B68     		ldr	r3, [r7, #4]
 1832 001a B3F1804F 		cmp	r3, #1073741824
 1833 001e 5BD0     		beq	.L59
 1834 0020 7A68     		ldr	r2, [r7, #4]
 1835 0022 4FF48063 		mov	r3, #1024
 1836 0026 C4F20003 		movt	r3, 16384
 1837 002a 9A42     		cmp	r2, r3
 1838 002c 54D0     		beq	.L59
 1839 002e 7A68     		ldr	r2, [r7, #4]
 1840 0030 4FF40063 		mov	r3, #2048
 1841 0034 C4F20003 		movt	r3, 16384
 1842 0038 9A42     		cmp	r2, r3
 1843 003a 4DD0     		beq	.L59
 1844 003c 7A68     		ldr	r2, [r7, #4]
 1845 003e 4FF44063 		mov	r3, #3072
 1846 0042 C4F20003 		movt	r3, 16384
 1847 0046 9A42     		cmp	r2, r3
 1848 0048 46D0     		beq	.L59
 1849 004a 7A68     		ldr	r2, [r7, #4]
 1850 004c 4FF48053 		mov	r3, #4096
 1851 0050 C4F20003 		movt	r3, 16384
 1852 0054 9A42     		cmp	r2, r3
 1853 0056 3FD0     		beq	.L59
 1854 0058 7A68     		ldr	r2, [r7, #4]
 1855 005a 4FF4A053 		mov	r3, #5120
 1856 005e C4F20003 		movt	r3, 16384
 1857 0062 9A42     		cmp	r2, r3
 1858 0064 38D0     		beq	.L59
 1859 0066 7A68     		ldr	r2, [r7, #4]
 1860 0068 4FF48063 		mov	r3, #1024
 1861 006c C4F20103 		movt	r3, 16385
 1862 0070 9A42     		cmp	r2, r3
 1863 0072 31D0     		beq	.L59
 1864 0074 7A68     		ldr	r2, [r7, #4]
 1865 0076 4FF48043 		mov	r3, #16384
 1866 007a C4F20103 		movt	r3, 16385
 1867 007e 9A42     		cmp	r2, r3
 1868 0080 2AD0     		beq	.L59
 1869 0082 7A68     		ldr	r2, [r7, #4]
 1870 0084 4FF48843 		mov	r3, #17408
 1871 0088 C4F20103 		movt	r3, 16385
 1872 008c 9A42     		cmp	r2, r3
 1873 008e 23D0     		beq	.L59
 1874 0090 7A68     		ldr	r2, [r7, #4]
 1875 0092 4FF49043 		mov	r3, #18432
 1876 0096 C4F20103 		movt	r3, 16385
 1877 009a 9A42     		cmp	r2, r3
 1878 009c 1CD0     		beq	.L59
 1879 009e 7A68     		ldr	r2, [r7, #4]
 1880 00a0 4FF4C053 		mov	r3, #6144
 1881 00a4 C4F20003 		movt	r3, 16384
 1882 00a8 9A42     		cmp	r2, r3
 1883 00aa 15D0     		beq	.L59
 1884 00ac 7A68     		ldr	r2, [r7, #4]
 1885 00ae 4FF4E053 		mov	r3, #7168
 1886 00b2 C4F20003 		movt	r3, 16384
 1887 00b6 9A42     		cmp	r2, r3
 1888 00b8 0ED0     		beq	.L59
 1889 00ba 7A68     		ldr	r2, [r7, #4]
 1890 00bc 4FF40053 		mov	r3, #8192
 1891 00c0 C4F20003 		movt	r3, 16384
 1892 00c4 9A42     		cmp	r2, r3
 1893 00c6 07D0     		beq	.L59
 1894 00c8 40F20000 		movw	r0, #:lower16:.LC0
 1895 00cc C0F20000 		movt	r0, #:upper16:.LC0
 1896 00d0 40F22221 		movw	r1, #546
 1897 00d4 FFF7FEFF 		bl	assert_failed
 1898              	.L59:
 547:lib/chip/STM32F4xx_StdPeriph_Driver/src/stm32f4xx_tim.c ****   assert_param(IS_TIM_OPM_MODE(TIM_OPMode));
 1899              		.loc 1 547 0 is_stmt 1
 1900 00d8 7B88     		ldrh	r3, [r7, #2]
 1901 00da 082B     		cmp	r3, #8
 1902 00dc 0AD0     		beq	.L60
 1903              		.loc 1 547 0 is_stmt 0 discriminator 1
 1904 00de 7B88     		ldrh	r3, [r7, #2]
 1905 00e0 002B     		cmp	r3, #0
 1906 00e2 07D0     		beq	.L60
 1907 00e4 40F20000 		movw	r0, #:lower16:.LC0
 1908 00e8 C0F20000 		movt	r0, #:upper16:.LC0
 1909 00ec 40F22321 		movw	r1, #547
 1910 00f0 FFF7FEFF 		bl	assert_failed
 1911              	.L60:
 548:lib/chip/STM32F4xx_StdPeriph_Driver/src/stm32f4xx_tim.c **** 
 549:lib/chip/STM32F4xx_StdPeriph_Driver/src/stm32f4xx_tim.c ****   /* Reset the OPM Bit */
 550:lib/chip/STM32F4xx_StdPeriph_Driver/src/stm32f4xx_tim.c ****   TIMx->CR1 &= (uint16_t)~TIM_CR1_OPM;
 1912              		.loc 1 550 0 is_stmt 1
 1913 00f4 7B68     		ldr	r3, [r7, #4]
 1914 00f6 1B88     		ldrh	r3, [r3]	@ movhi
 1915 00f8 9BB2     		uxth	r3, r3
 1916 00fa 23F00803 		bic	r3, r3, #8
 1917 00fe 9AB2     		uxth	r2, r3
 1918 0100 7B68     		ldr	r3, [r7, #4]
 1919 0102 1A80     		strh	r2, [r3]	@ movhi
 551:lib/chip/STM32F4xx_StdPeriph_Driver/src/stm32f4xx_tim.c **** 
 552:lib/chip/STM32F4xx_StdPeriph_Driver/src/stm32f4xx_tim.c ****   /* Configure the OPM Mode */
 553:lib/chip/STM32F4xx_StdPeriph_Driver/src/stm32f4xx_tim.c ****   TIMx->CR1 |= TIM_OPMode;
 1920              		.loc 1 553 0
 1921 0104 7B68     		ldr	r3, [r7, #4]
 1922 0106 1B88     		ldrh	r3, [r3]	@ movhi
 1923 0108 9AB2     		uxth	r2, r3
 1924 010a 7B88     		ldrh	r3, [r7, #2]	@ movhi
 1925 010c 1343     		orrs	r3, r3, r2
 1926 010e 9AB2     		uxth	r2, r3
 1927 0110 7B68     		ldr	r3, [r7, #4]
 1928 0112 1A80     		strh	r2, [r3]	@ movhi
 554:lib/chip/STM32F4xx_StdPeriph_Driver/src/stm32f4xx_tim.c **** }
 1929              		.loc 1 554 0
 1930 0114 0837     		adds	r7, r7, #8
 1931 0116 BD46     		mov	sp, r7
 1932              		@ sp needed
 1933 0118 80BD     		pop	{r7, pc}
 1934              		.cfi_endproc
 1935              	.LFE122:
 1937 011a 00BF     		.section	.text.TIM_SetClockDivision,"ax",%progbits
 1938              		.align	2
 1939              		.global	TIM_SetClockDivision
 1940              		.thumb
 1941              		.thumb_func
 1943              	TIM_SetClockDivision:
 1944              	.LFB123:
 555:lib/chip/STM32F4xx_StdPeriph_Driver/src/stm32f4xx_tim.c **** 
 556:lib/chip/STM32F4xx_StdPeriph_Driver/src/stm32f4xx_tim.c **** /**
 557:lib/chip/STM32F4xx_StdPeriph_Driver/src/stm32f4xx_tim.c ****   * @brief  Sets the TIMx Clock Division value.
 558:lib/chip/STM32F4xx_StdPeriph_Driver/src/stm32f4xx_tim.c ****   * @param  TIMx: where x can be 1 to 14 except 6 and 7, to select the TIM peripheral.
 559:lib/chip/STM32F4xx_StdPeriph_Driver/src/stm32f4xx_tim.c ****   * @param  TIM_CKD: specifies the clock division value.
 560:lib/chip/STM32F4xx_StdPeriph_Driver/src/stm32f4xx_tim.c ****   *          This parameter can be one of the following value:
 561:lib/chip/STM32F4xx_StdPeriph_Driver/src/stm32f4xx_tim.c ****   *            @arg TIM_CKD_DIV1: TDTS = Tck_tim
 562:lib/chip/STM32F4xx_StdPeriph_Driver/src/stm32f4xx_tim.c ****   *            @arg TIM_CKD_DIV2: TDTS = 2*Tck_tim
 563:lib/chip/STM32F4xx_StdPeriph_Driver/src/stm32f4xx_tim.c ****   *            @arg TIM_CKD_DIV4: TDTS = 4*Tck_tim
 564:lib/chip/STM32F4xx_StdPeriph_Driver/src/stm32f4xx_tim.c ****   * @retval None
 565:lib/chip/STM32F4xx_StdPeriph_Driver/src/stm32f4xx_tim.c ****   */
 566:lib/chip/STM32F4xx_StdPeriph_Driver/src/stm32f4xx_tim.c **** void TIM_SetClockDivision(TIM_TypeDef* TIMx, uint16_t TIM_CKD)
 567:lib/chip/STM32F4xx_StdPeriph_Driver/src/stm32f4xx_tim.c **** {
 1945              		.loc 1 567 0
 1946              		.cfi_startproc
 1947              		@ args = 0, pretend = 0, frame = 8
 1948              		@ frame_needed = 1, uses_anonymous_args = 0
 1949 0000 80B5     		push	{r7, lr}
 1950              	.LCFI39:
 1951              		.cfi_def_cfa_offset 8
 1952              		.cfi_offset 7, -8
 1953              		.cfi_offset 14, -4
 1954 0002 82B0     		sub	sp, sp, #8
 1955              	.LCFI40:
 1956              		.cfi_def_cfa_offset 16
 1957 0004 00AF     		add	r7, sp, #0
 1958              	.LCFI41:
 1959              		.cfi_def_cfa_register 7
 1960 0006 7860     		str	r0, [r7, #4]
 1961 0008 0B46     		mov	r3, r1
 1962 000a 7B80     		strh	r3, [r7, #2]	@ movhi
 568:lib/chip/STM32F4xx_StdPeriph_Driver/src/stm32f4xx_tim.c ****   /* Check the parameters */
 569:lib/chip/STM32F4xx_StdPeriph_Driver/src/stm32f4xx_tim.c ****   assert_param(IS_TIM_LIST1_PERIPH(TIMx));
 1963              		.loc 1 569 0
 1964 000c 7A68     		ldr	r2, [r7, #4]
 1965 000e 0023     		movs	r3, #0
 1966 0010 C4F20103 		movt	r3, 16385
 1967 0014 9A42     		cmp	r2, r3
 1968 0016 51D0     		beq	.L62
 1969              		.loc 1 569 0 is_stmt 0 discriminator 1
 1970 0018 7B68     		ldr	r3, [r7, #4]
 1971 001a B3F1804F 		cmp	r3, #1073741824
 1972 001e 4DD0     		beq	.L62
 1973 0020 7A68     		ldr	r2, [r7, #4]
 1974 0022 4FF48063 		mov	r3, #1024
 1975 0026 C4F20003 		movt	r3, 16384
 1976 002a 9A42     		cmp	r2, r3
 1977 002c 46D0     		beq	.L62
 1978 002e 7A68     		ldr	r2, [r7, #4]
 1979 0030 4FF40063 		mov	r3, #2048
 1980 0034 C4F20003 		movt	r3, 16384
 1981 0038 9A42     		cmp	r2, r3
 1982 003a 3FD0     		beq	.L62
 1983 003c 7A68     		ldr	r2, [r7, #4]
 1984 003e 4FF44063 		mov	r3, #3072
 1985 0042 C4F20003 		movt	r3, 16384
 1986 0046 9A42     		cmp	r2, r3
 1987 0048 38D0     		beq	.L62
 1988 004a 7A68     		ldr	r2, [r7, #4]
 1989 004c 4FF48063 		mov	r3, #1024
 1990 0050 C4F20103 		movt	r3, 16385
 1991 0054 9A42     		cmp	r2, r3
 1992 0056 31D0     		beq	.L62
 1993 0058 7A68     		ldr	r2, [r7, #4]
 1994 005a 4FF48043 		mov	r3, #16384
 1995 005e C4F20103 		movt	r3, 16385
 1996 0062 9A42     		cmp	r2, r3
 1997 0064 2AD0     		beq	.L62
 1998 0066 7A68     		ldr	r2, [r7, #4]
 1999 0068 4FF48843 		mov	r3, #17408
 2000 006c C4F20103 		movt	r3, 16385
 2001 0070 9A42     		cmp	r2, r3
 2002 0072 23D0     		beq	.L62
 2003 0074 7A68     		ldr	r2, [r7, #4]
 2004 0076 4FF49043 		mov	r3, #18432
 2005 007a C4F20103 		movt	r3, 16385
 2006 007e 9A42     		cmp	r2, r3
 2007 0080 1CD0     		beq	.L62
 2008 0082 7A68     		ldr	r2, [r7, #4]
 2009 0084 4FF4C053 		mov	r3, #6144
 2010 0088 C4F20003 		movt	r3, 16384
 2011 008c 9A42     		cmp	r2, r3
 2012 008e 15D0     		beq	.L62
 2013 0090 7A68     		ldr	r2, [r7, #4]
 2014 0092 4FF4E053 		mov	r3, #7168
 2015 0096 C4F20003 		movt	r3, 16384
 2016 009a 9A42     		cmp	r2, r3
 2017 009c 0ED0     		beq	.L62
 2018 009e 7A68     		ldr	r2, [r7, #4]
 2019 00a0 4FF40053 		mov	r3, #8192
 2020 00a4 C4F20003 		movt	r3, 16384
 2021 00a8 9A42     		cmp	r2, r3
 2022 00aa 07D0     		beq	.L62
 2023 00ac 40F20000 		movw	r0, #:lower16:.LC0
 2024 00b0 C0F20000 		movt	r0, #:upper16:.LC0
 2025 00b4 40F23921 		movw	r1, #569
 2026 00b8 FFF7FEFF 		bl	assert_failed
 2027              	.L62:
 570:lib/chip/STM32F4xx_StdPeriph_Driver/src/stm32f4xx_tim.c ****   assert_param(IS_TIM_CKD_DIV(TIM_CKD));
 2028              		.loc 1 570 0 is_stmt 1
 2029 00bc 7B88     		ldrh	r3, [r7, #2]
 2030 00be 002B     		cmp	r3, #0
 2031 00c0 0FD0     		beq	.L63
 2032              		.loc 1 570 0 is_stmt 0 discriminator 1
 2033 00c2 7B88     		ldrh	r3, [r7, #2]
 2034 00c4 B3F5807F 		cmp	r3, #256
 2035 00c8 0BD0     		beq	.L63
 2036 00ca 7B88     		ldrh	r3, [r7, #2]
 2037 00cc B3F5007F 		cmp	r3, #512
 2038 00d0 07D0     		beq	.L63
 2039 00d2 40F20000 		movw	r0, #:lower16:.LC0
 2040 00d6 C0F20000 		movt	r0, #:upper16:.LC0
 2041 00da 40F23A21 		movw	r1, #570
 2042 00de FFF7FEFF 		bl	assert_failed
 2043              	.L63:
 571:lib/chip/STM32F4xx_StdPeriph_Driver/src/stm32f4xx_tim.c **** 
 572:lib/chip/STM32F4xx_StdPeriph_Driver/src/stm32f4xx_tim.c ****   /* Reset the CKD Bits */
 573:lib/chip/STM32F4xx_StdPeriph_Driver/src/stm32f4xx_tim.c ****   TIMx->CR1 &= (uint16_t)(~TIM_CR1_CKD);
 2044              		.loc 1 573 0 is_stmt 1
 2045 00e2 7B68     		ldr	r3, [r7, #4]
 2046 00e4 1B88     		ldrh	r3, [r3]	@ movhi
 2047 00e6 9BB2     		uxth	r3, r3
 2048 00e8 23F44073 		bic	r3, r3, #768
 2049 00ec 9AB2     		uxth	r2, r3
 2050 00ee 7B68     		ldr	r3, [r7, #4]
 2051 00f0 1A80     		strh	r2, [r3]	@ movhi
 574:lib/chip/STM32F4xx_StdPeriph_Driver/src/stm32f4xx_tim.c **** 
 575:lib/chip/STM32F4xx_StdPeriph_Driver/src/stm32f4xx_tim.c ****   /* Set the CKD value */
 576:lib/chip/STM32F4xx_StdPeriph_Driver/src/stm32f4xx_tim.c ****   TIMx->CR1 |= TIM_CKD;
 2052              		.loc 1 576 0
 2053 00f2 7B68     		ldr	r3, [r7, #4]
 2054 00f4 1B88     		ldrh	r3, [r3]	@ movhi
 2055 00f6 9AB2     		uxth	r2, r3
 2056 00f8 7B88     		ldrh	r3, [r7, #2]	@ movhi
 2057 00fa 1343     		orrs	r3, r3, r2
 2058 00fc 9AB2     		uxth	r2, r3
 2059 00fe 7B68     		ldr	r3, [r7, #4]
 2060 0100 1A80     		strh	r2, [r3]	@ movhi
 577:lib/chip/STM32F4xx_StdPeriph_Driver/src/stm32f4xx_tim.c **** }
 2061              		.loc 1 577 0
 2062 0102 0837     		adds	r7, r7, #8
 2063 0104 BD46     		mov	sp, r7
 2064              		@ sp needed
 2065 0106 80BD     		pop	{r7, pc}
 2066              		.cfi_endproc
 2067              	.LFE123:
 2069              		.section	.text.TIM_Cmd,"ax",%progbits
 2070              		.align	2
 2071              		.global	TIM_Cmd
 2072              		.thumb
 2073              		.thumb_func
 2075              	TIM_Cmd:
 2076              	.LFB124:
 578:lib/chip/STM32F4xx_StdPeriph_Driver/src/stm32f4xx_tim.c **** 
 579:lib/chip/STM32F4xx_StdPeriph_Driver/src/stm32f4xx_tim.c **** /**
 580:lib/chip/STM32F4xx_StdPeriph_Driver/src/stm32f4xx_tim.c ****   * @brief  Enables or disables the specified TIM peripheral.
 581:lib/chip/STM32F4xx_StdPeriph_Driver/src/stm32f4xx_tim.c ****   * @param  TIMx: where x can be 1 to 14 to select the TIMx peripheral.
 582:lib/chip/STM32F4xx_StdPeriph_Driver/src/stm32f4xx_tim.c ****   * @param  NewState: new state of the TIMx peripheral.
 583:lib/chip/STM32F4xx_StdPeriph_Driver/src/stm32f4xx_tim.c ****   *          This parameter can be: ENABLE or DISABLE.
 584:lib/chip/STM32F4xx_StdPeriph_Driver/src/stm32f4xx_tim.c ****   * @retval None
 585:lib/chip/STM32F4xx_StdPeriph_Driver/src/stm32f4xx_tim.c ****   */
 586:lib/chip/STM32F4xx_StdPeriph_Driver/src/stm32f4xx_tim.c **** void TIM_Cmd(TIM_TypeDef* TIMx, FunctionalState NewState)
 587:lib/chip/STM32F4xx_StdPeriph_Driver/src/stm32f4xx_tim.c **** {
 2077              		.loc 1 587 0
 2078              		.cfi_startproc
 2079              		@ args = 0, pretend = 0, frame = 8
 2080              		@ frame_needed = 1, uses_anonymous_args = 0
 2081 0000 80B5     		push	{r7, lr}
 2082              	.LCFI42:
 2083              		.cfi_def_cfa_offset 8
 2084              		.cfi_offset 7, -8
 2085              		.cfi_offset 14, -4
 2086 0002 82B0     		sub	sp, sp, #8
 2087              	.LCFI43:
 2088              		.cfi_def_cfa_offset 16
 2089 0004 00AF     		add	r7, sp, #0
 2090              	.LCFI44:
 2091              		.cfi_def_cfa_register 7
 2092 0006 7860     		str	r0, [r7, #4]
 2093 0008 0B46     		mov	r3, r1
 2094 000a FB70     		strb	r3, [r7, #3]
 588:lib/chip/STM32F4xx_StdPeriph_Driver/src/stm32f4xx_tim.c ****   /* Check the parameters */
 589:lib/chip/STM32F4xx_StdPeriph_Driver/src/stm32f4xx_tim.c ****   assert_param(IS_TIM_ALL_PERIPH(TIMx)); 
 2095              		.loc 1 589 0
 2096 000c 7A68     		ldr	r2, [r7, #4]
 2097 000e 0023     		movs	r3, #0
 2098 0010 C4F20103 		movt	r3, 16385
 2099 0014 9A42     		cmp	r2, r3
 2100 0016 5FD0     		beq	.L65
 2101              		.loc 1 589 0 is_stmt 0 discriminator 1
 2102 0018 7B68     		ldr	r3, [r7, #4]
 2103 001a B3F1804F 		cmp	r3, #1073741824
 2104 001e 5BD0     		beq	.L65
 2105 0020 7A68     		ldr	r2, [r7, #4]
 2106 0022 4FF48063 		mov	r3, #1024
 2107 0026 C4F20003 		movt	r3, 16384
 2108 002a 9A42     		cmp	r2, r3
 2109 002c 54D0     		beq	.L65
 2110 002e 7A68     		ldr	r2, [r7, #4]
 2111 0030 4FF40063 		mov	r3, #2048
 2112 0034 C4F20003 		movt	r3, 16384
 2113 0038 9A42     		cmp	r2, r3
 2114 003a 4DD0     		beq	.L65
 2115 003c 7A68     		ldr	r2, [r7, #4]
 2116 003e 4FF44063 		mov	r3, #3072
 2117 0042 C4F20003 		movt	r3, 16384
 2118 0046 9A42     		cmp	r2, r3
 2119 0048 46D0     		beq	.L65
 2120 004a 7A68     		ldr	r2, [r7, #4]
 2121 004c 4FF48053 		mov	r3, #4096
 2122 0050 C4F20003 		movt	r3, 16384
 2123 0054 9A42     		cmp	r2, r3
 2124 0056 3FD0     		beq	.L65
 2125 0058 7A68     		ldr	r2, [r7, #4]
 2126 005a 4FF4A053 		mov	r3, #5120
 2127 005e C4F20003 		movt	r3, 16384
 2128 0062 9A42     		cmp	r2, r3
 2129 0064 38D0     		beq	.L65
 2130 0066 7A68     		ldr	r2, [r7, #4]
 2131 0068 4FF48063 		mov	r3, #1024
 2132 006c C4F20103 		movt	r3, 16385
 2133 0070 9A42     		cmp	r2, r3
 2134 0072 31D0     		beq	.L65
 2135 0074 7A68     		ldr	r2, [r7, #4]
 2136 0076 4FF48043 		mov	r3, #16384
 2137 007a C4F20103 		movt	r3, 16385
 2138 007e 9A42     		cmp	r2, r3
 2139 0080 2AD0     		beq	.L65
 2140 0082 7A68     		ldr	r2, [r7, #4]
 2141 0084 4FF48843 		mov	r3, #17408
 2142 0088 C4F20103 		movt	r3, 16385
 2143 008c 9A42     		cmp	r2, r3
 2144 008e 23D0     		beq	.L65
 2145 0090 7A68     		ldr	r2, [r7, #4]
 2146 0092 4FF49043 		mov	r3, #18432
 2147 0096 C4F20103 		movt	r3, 16385
 2148 009a 9A42     		cmp	r2, r3
 2149 009c 1CD0     		beq	.L65
 2150 009e 7A68     		ldr	r2, [r7, #4]
 2151 00a0 4FF4C053 		mov	r3, #6144
 2152 00a4 C4F20003 		movt	r3, 16384
 2153 00a8 9A42     		cmp	r2, r3
 2154 00aa 15D0     		beq	.L65
 2155 00ac 7A68     		ldr	r2, [r7, #4]
 2156 00ae 4FF4E053 		mov	r3, #7168
 2157 00b2 C4F20003 		movt	r3, 16384
 2158 00b6 9A42     		cmp	r2, r3
 2159 00b8 0ED0     		beq	.L65
 2160 00ba 7A68     		ldr	r2, [r7, #4]
 2161 00bc 4FF40053 		mov	r3, #8192
 2162 00c0 C4F20003 		movt	r3, 16384
 2163 00c4 9A42     		cmp	r2, r3
 2164 00c6 07D0     		beq	.L65
 2165 00c8 40F20000 		movw	r0, #:lower16:.LC0
 2166 00cc C0F20000 		movt	r0, #:upper16:.LC0
 2167 00d0 40F24D21 		movw	r1, #589
 2168 00d4 FFF7FEFF 		bl	assert_failed
 2169              	.L65:
 590:lib/chip/STM32F4xx_StdPeriph_Driver/src/stm32f4xx_tim.c ****   assert_param(IS_FUNCTIONAL_STATE(NewState));
 2170              		.loc 1 590 0 is_stmt 1
 2171 00d8 FB78     		ldrb	r3, [r7, #3]	@ zero_extendqisi2
 2172 00da 002B     		cmp	r3, #0
 2173 00dc 0AD0     		beq	.L66
 2174              		.loc 1 590 0 is_stmt 0 discriminator 1
 2175 00de FB78     		ldrb	r3, [r7, #3]	@ zero_extendqisi2
 2176 00e0 012B     		cmp	r3, #1
 2177 00e2 07D0     		beq	.L66
 2178 00e4 40F20000 		movw	r0, #:lower16:.LC0
 2179 00e8 C0F20000 		movt	r0, #:upper16:.LC0
 2180 00ec 40F24E21 		movw	r1, #590
 2181 00f0 FFF7FEFF 		bl	assert_failed
 2182              	.L66:
 591:lib/chip/STM32F4xx_StdPeriph_Driver/src/stm32f4xx_tim.c ****   
 592:lib/chip/STM32F4xx_StdPeriph_Driver/src/stm32f4xx_tim.c ****   if (NewState != DISABLE)
 2183              		.loc 1 592 0 is_stmt 1
 2184 00f4 FB78     		ldrb	r3, [r7, #3]	@ zero_extendqisi2
 2185 00f6 002B     		cmp	r3, #0
 2186 00f8 08D0     		beq	.L67
 593:lib/chip/STM32F4xx_StdPeriph_Driver/src/stm32f4xx_tim.c ****   {
 594:lib/chip/STM32F4xx_StdPeriph_Driver/src/stm32f4xx_tim.c ****     /* Enable the TIM Counter */
 595:lib/chip/STM32F4xx_StdPeriph_Driver/src/stm32f4xx_tim.c ****     TIMx->CR1 |= TIM_CR1_CEN;
 2187              		.loc 1 595 0
 2188 00fa 7B68     		ldr	r3, [r7, #4]
 2189 00fc 1B88     		ldrh	r3, [r3]	@ movhi
 2190 00fe 9BB2     		uxth	r3, r3
 2191 0100 43F00103 		orr	r3, r3, #1
 2192 0104 9AB2     		uxth	r2, r3
 2193 0106 7B68     		ldr	r3, [r7, #4]
 2194 0108 1A80     		strh	r2, [r3]	@ movhi
 2195 010a 07E0     		b	.L64
 2196              	.L67:
 596:lib/chip/STM32F4xx_StdPeriph_Driver/src/stm32f4xx_tim.c ****   }
 597:lib/chip/STM32F4xx_StdPeriph_Driver/src/stm32f4xx_tim.c ****   else
 598:lib/chip/STM32F4xx_StdPeriph_Driver/src/stm32f4xx_tim.c ****   {
 599:lib/chip/STM32F4xx_StdPeriph_Driver/src/stm32f4xx_tim.c ****     /* Disable the TIM Counter */
 600:lib/chip/STM32F4xx_StdPeriph_Driver/src/stm32f4xx_tim.c ****     TIMx->CR1 &= (uint16_t)~TIM_CR1_CEN;
 2197              		.loc 1 600 0
 2198 010c 7B68     		ldr	r3, [r7, #4]
 2199 010e 1B88     		ldrh	r3, [r3]	@ movhi
 2200 0110 9BB2     		uxth	r3, r3
 2201 0112 23F00103 		bic	r3, r3, #1
 2202 0116 9AB2     		uxth	r2, r3
 2203 0118 7B68     		ldr	r3, [r7, #4]
 2204 011a 1A80     		strh	r2, [r3]	@ movhi
 2205              	.L64:
 601:lib/chip/STM32F4xx_StdPeriph_Driver/src/stm32f4xx_tim.c ****   }
 602:lib/chip/STM32F4xx_StdPeriph_Driver/src/stm32f4xx_tim.c **** }
 2206              		.loc 1 602 0
 2207 011c 0837     		adds	r7, r7, #8
 2208 011e BD46     		mov	sp, r7
 2209              		@ sp needed
 2210 0120 80BD     		pop	{r7, pc}
 2211              		.cfi_endproc
 2212              	.LFE124:
 2214 0122 00BF     		.section	.text.TIM_OC1Init,"ax",%progbits
 2215              		.align	2
 2216              		.global	TIM_OC1Init
 2217              		.thumb
 2218              		.thumb_func
 2220              	TIM_OC1Init:
 2221              	.LFB125:
 603:lib/chip/STM32F4xx_StdPeriph_Driver/src/stm32f4xx_tim.c **** /**
 604:lib/chip/STM32F4xx_StdPeriph_Driver/src/stm32f4xx_tim.c ****   * @}
 605:lib/chip/STM32F4xx_StdPeriph_Driver/src/stm32f4xx_tim.c ****   */
 606:lib/chip/STM32F4xx_StdPeriph_Driver/src/stm32f4xx_tim.c **** 
 607:lib/chip/STM32F4xx_StdPeriph_Driver/src/stm32f4xx_tim.c **** /** @defgroup TIM_Group2 Output Compare management functions
 608:lib/chip/STM32F4xx_StdPeriph_Driver/src/stm32f4xx_tim.c ****  *  @brief    Output Compare management functions 
 609:lib/chip/STM32F4xx_StdPeriph_Driver/src/stm32f4xx_tim.c ****  *
 610:lib/chip/STM32F4xx_StdPeriph_Driver/src/stm32f4xx_tim.c **** @verbatim   
 611:lib/chip/STM32F4xx_StdPeriph_Driver/src/stm32f4xx_tim.c ****  ===============================================================================
 612:lib/chip/STM32F4xx_StdPeriph_Driver/src/stm32f4xx_tim.c ****                         Output Compare management functions
 613:lib/chip/STM32F4xx_StdPeriph_Driver/src/stm32f4xx_tim.c ****  ===============================================================================  
 614:lib/chip/STM32F4xx_StdPeriph_Driver/src/stm32f4xx_tim.c ****    
 615:lib/chip/STM32F4xx_StdPeriph_Driver/src/stm32f4xx_tim.c ****        ===================================================================      
 616:lib/chip/STM32F4xx_StdPeriph_Driver/src/stm32f4xx_tim.c ****               TIM Driver: how to use it in Output Compare Mode
 617:lib/chip/STM32F4xx_StdPeriph_Driver/src/stm32f4xx_tim.c ****        =================================================================== 
 618:lib/chip/STM32F4xx_StdPeriph_Driver/src/stm32f4xx_tim.c ****        To use the Timer in Output Compare mode, the following steps are mandatory:
 619:lib/chip/STM32F4xx_StdPeriph_Driver/src/stm32f4xx_tim.c ****        
 620:lib/chip/STM32F4xx_StdPeriph_Driver/src/stm32f4xx_tim.c ****        1. Enable TIM clock using RCC_APBxPeriphClockCmd(RCC_APBxPeriph_TIMx, ENABLE) function
 621:lib/chip/STM32F4xx_StdPeriph_Driver/src/stm32f4xx_tim.c ****        
 622:lib/chip/STM32F4xx_StdPeriph_Driver/src/stm32f4xx_tim.c ****        2. Configure the TIM pins by configuring the corresponding GPIO pins
 623:lib/chip/STM32F4xx_StdPeriph_Driver/src/stm32f4xx_tim.c ****        
 624:lib/chip/STM32F4xx_StdPeriph_Driver/src/stm32f4xx_tim.c ****        2. Configure the Time base unit as described in the first part of this driver, 
 625:lib/chip/STM32F4xx_StdPeriph_Driver/src/stm32f4xx_tim.c ****           if needed, else the Timer will run with the default configuration:
 626:lib/chip/STM32F4xx_StdPeriph_Driver/src/stm32f4xx_tim.c ****           - Autoreload value = 0xFFFF
 627:lib/chip/STM32F4xx_StdPeriph_Driver/src/stm32f4xx_tim.c ****           - Prescaler value = 0x0000
 628:lib/chip/STM32F4xx_StdPeriph_Driver/src/stm32f4xx_tim.c ****           - Counter mode = Up counting
 629:lib/chip/STM32F4xx_StdPeriph_Driver/src/stm32f4xx_tim.c ****           - Clock Division = TIM_CKD_DIV1
 630:lib/chip/STM32F4xx_StdPeriph_Driver/src/stm32f4xx_tim.c ****           
 631:lib/chip/STM32F4xx_StdPeriph_Driver/src/stm32f4xx_tim.c ****        3. Fill the TIM_OCInitStruct with the desired parameters including:
 632:lib/chip/STM32F4xx_StdPeriph_Driver/src/stm32f4xx_tim.c ****           - The TIM Output Compare mode: TIM_OCMode
 633:lib/chip/STM32F4xx_StdPeriph_Driver/src/stm32f4xx_tim.c ****           - TIM Output State: TIM_OutputState
 634:lib/chip/STM32F4xx_StdPeriph_Driver/src/stm32f4xx_tim.c ****           - TIM Pulse value: TIM_Pulse
 635:lib/chip/STM32F4xx_StdPeriph_Driver/src/stm32f4xx_tim.c ****           - TIM Output Compare Polarity : TIM_OCPolarity
 636:lib/chip/STM32F4xx_StdPeriph_Driver/src/stm32f4xx_tim.c ****        
 637:lib/chip/STM32F4xx_StdPeriph_Driver/src/stm32f4xx_tim.c ****        4. Call TIM_OCxInit(TIMx, &TIM_OCInitStruct) to configure the desired channel with the 
 638:lib/chip/STM32F4xx_StdPeriph_Driver/src/stm32f4xx_tim.c ****           corresponding configuration
 639:lib/chip/STM32F4xx_StdPeriph_Driver/src/stm32f4xx_tim.c ****        
 640:lib/chip/STM32F4xx_StdPeriph_Driver/src/stm32f4xx_tim.c ****        5. Call the TIM_Cmd(ENABLE) function to enable the TIM counter.
 641:lib/chip/STM32F4xx_StdPeriph_Driver/src/stm32f4xx_tim.c ****        
 642:lib/chip/STM32F4xx_StdPeriph_Driver/src/stm32f4xx_tim.c ****        Note1: All other functions can be used separately to modify, if needed,
 643:lib/chip/STM32F4xx_StdPeriph_Driver/src/stm32f4xx_tim.c ****               a specific feature of the Timer. 
 644:lib/chip/STM32F4xx_StdPeriph_Driver/src/stm32f4xx_tim.c ****           
 645:lib/chip/STM32F4xx_StdPeriph_Driver/src/stm32f4xx_tim.c ****        Note2: In case of PWM mode, this function is mandatory:
 646:lib/chip/STM32F4xx_StdPeriph_Driver/src/stm32f4xx_tim.c ****               TIM_OCxPreloadConfig(TIMx, TIM_OCPreload_ENABLE); 
 647:lib/chip/STM32F4xx_StdPeriph_Driver/src/stm32f4xx_tim.c ****               
 648:lib/chip/STM32F4xx_StdPeriph_Driver/src/stm32f4xx_tim.c ****        Note3: If the corresponding interrupt or DMA request are needed, the user should:
 649:lib/chip/STM32F4xx_StdPeriph_Driver/src/stm32f4xx_tim.c ****                 1. Enable the NVIC (or the DMA) to use the TIM interrupts (or DMA requests). 
 650:lib/chip/STM32F4xx_StdPeriph_Driver/src/stm32f4xx_tim.c ****                 2. Enable the corresponding interrupt (or DMA request) using the function 
 651:lib/chip/STM32F4xx_StdPeriph_Driver/src/stm32f4xx_tim.c ****                    TIM_ITConfig(TIMx, TIM_IT_CCx) (or TIM_DMA_Cmd(TIMx, TIM_DMA_CCx))   
 652:lib/chip/STM32F4xx_StdPeriph_Driver/src/stm32f4xx_tim.c **** 
 653:lib/chip/STM32F4xx_StdPeriph_Driver/src/stm32f4xx_tim.c **** @endverbatim
 654:lib/chip/STM32F4xx_StdPeriph_Driver/src/stm32f4xx_tim.c ****   * @{
 655:lib/chip/STM32F4xx_StdPeriph_Driver/src/stm32f4xx_tim.c ****   */
 656:lib/chip/STM32F4xx_StdPeriph_Driver/src/stm32f4xx_tim.c **** 
 657:lib/chip/STM32F4xx_StdPeriph_Driver/src/stm32f4xx_tim.c **** /**
 658:lib/chip/STM32F4xx_StdPeriph_Driver/src/stm32f4xx_tim.c ****   * @brief  Initializes the TIMx Channel1 according to the specified parameters in
 659:lib/chip/STM32F4xx_StdPeriph_Driver/src/stm32f4xx_tim.c ****   *         the TIM_OCInitStruct.
 660:lib/chip/STM32F4xx_StdPeriph_Driver/src/stm32f4xx_tim.c ****   * @param  TIMx: where x can be 1 to 14 except 6 and 7, to select the TIM peripheral.
 661:lib/chip/STM32F4xx_StdPeriph_Driver/src/stm32f4xx_tim.c ****   * @param  TIM_OCInitStruct: pointer to a TIM_OCInitTypeDef structure that contains
 662:lib/chip/STM32F4xx_StdPeriph_Driver/src/stm32f4xx_tim.c ****   *         the configuration information for the specified TIM peripheral.
 663:lib/chip/STM32F4xx_StdPeriph_Driver/src/stm32f4xx_tim.c ****   * @retval None
 664:lib/chip/STM32F4xx_StdPeriph_Driver/src/stm32f4xx_tim.c ****   */
 665:lib/chip/STM32F4xx_StdPeriph_Driver/src/stm32f4xx_tim.c **** void TIM_OC1Init(TIM_TypeDef* TIMx, TIM_OCInitTypeDef* TIM_OCInitStruct)
 666:lib/chip/STM32F4xx_StdPeriph_Driver/src/stm32f4xx_tim.c **** {
 2222              		.loc 1 666 0
 2223              		.cfi_startproc
 2224              		@ args = 0, pretend = 0, frame = 16
 2225              		@ frame_needed = 1, uses_anonymous_args = 0
 2226 0000 80B5     		push	{r7, lr}
 2227              	.LCFI45:
 2228              		.cfi_def_cfa_offset 8
 2229              		.cfi_offset 7, -8
 2230              		.cfi_offset 14, -4
 2231 0002 84B0     		sub	sp, sp, #16
 2232              	.LCFI46:
 2233              		.cfi_def_cfa_offset 24
 2234 0004 00AF     		add	r7, sp, #0
 2235              	.LCFI47:
 2236              		.cfi_def_cfa_register 7
 2237 0006 7860     		str	r0, [r7, #4]
 2238 0008 3960     		str	r1, [r7]
 667:lib/chip/STM32F4xx_StdPeriph_Driver/src/stm32f4xx_tim.c ****   uint16_t tmpccmrx = 0, tmpccer = 0, tmpcr2 = 0;
 2239              		.loc 1 667 0
 2240 000a 0023     		movs	r3, #0
 2241 000c 7B81     		strh	r3, [r7, #10]	@ movhi
 2242 000e 0023     		movs	r3, #0
 2243 0010 FB81     		strh	r3, [r7, #14]	@ movhi
 2244 0012 0023     		movs	r3, #0
 2245 0014 BB81     		strh	r3, [r7, #12]	@ movhi
 668:lib/chip/STM32F4xx_StdPeriph_Driver/src/stm32f4xx_tim.c ****    
 669:lib/chip/STM32F4xx_StdPeriph_Driver/src/stm32f4xx_tim.c ****   /* Check the parameters */
 670:lib/chip/STM32F4xx_StdPeriph_Driver/src/stm32f4xx_tim.c ****   assert_param(IS_TIM_LIST1_PERIPH(TIMx)); 
 2246              		.loc 1 670 0
 2247 0016 7A68     		ldr	r2, [r7, #4]
 2248 0018 0023     		movs	r3, #0
 2249 001a C4F20103 		movt	r3, 16385
 2250 001e 9A42     		cmp	r2, r3
 2251 0020 51D0     		beq	.L70
 2252              		.loc 1 670 0 is_stmt 0 discriminator 1
 2253 0022 7B68     		ldr	r3, [r7, #4]
 2254 0024 B3F1804F 		cmp	r3, #1073741824
 2255 0028 4DD0     		beq	.L70
 2256 002a 7A68     		ldr	r2, [r7, #4]
 2257 002c 4FF48063 		mov	r3, #1024
 2258 0030 C4F20003 		movt	r3, 16384
 2259 0034 9A42     		cmp	r2, r3
 2260 0036 46D0     		beq	.L70
 2261 0038 7A68     		ldr	r2, [r7, #4]
 2262 003a 4FF40063 		mov	r3, #2048
 2263 003e C4F20003 		movt	r3, 16384
 2264 0042 9A42     		cmp	r2, r3
 2265 0044 3FD0     		beq	.L70
 2266 0046 7A68     		ldr	r2, [r7, #4]
 2267 0048 4FF44063 		mov	r3, #3072
 2268 004c C4F20003 		movt	r3, 16384
 2269 0050 9A42     		cmp	r2, r3
 2270 0052 38D0     		beq	.L70
 2271 0054 7A68     		ldr	r2, [r7, #4]
 2272 0056 4FF48063 		mov	r3, #1024
 2273 005a C4F20103 		movt	r3, 16385
 2274 005e 9A42     		cmp	r2, r3
 2275 0060 31D0     		beq	.L70
 2276 0062 7A68     		ldr	r2, [r7, #4]
 2277 0064 4FF48043 		mov	r3, #16384
 2278 0068 C4F20103 		movt	r3, 16385
 2279 006c 9A42     		cmp	r2, r3
 2280 006e 2AD0     		beq	.L70
 2281 0070 7A68     		ldr	r2, [r7, #4]
 2282 0072 4FF48843 		mov	r3, #17408
 2283 0076 C4F20103 		movt	r3, 16385
 2284 007a 9A42     		cmp	r2, r3
 2285 007c 23D0     		beq	.L70
 2286 007e 7A68     		ldr	r2, [r7, #4]
 2287 0080 4FF49043 		mov	r3, #18432
 2288 0084 C4F20103 		movt	r3, 16385
 2289 0088 9A42     		cmp	r2, r3
 2290 008a 1CD0     		beq	.L70
 2291 008c 7A68     		ldr	r2, [r7, #4]
 2292 008e 4FF4C053 		mov	r3, #6144
 2293 0092 C4F20003 		movt	r3, 16384
 2294 0096 9A42     		cmp	r2, r3
 2295 0098 15D0     		beq	.L70
 2296 009a 7A68     		ldr	r2, [r7, #4]
 2297 009c 4FF4E053 		mov	r3, #7168
 2298 00a0 C4F20003 		movt	r3, 16384
 2299 00a4 9A42     		cmp	r2, r3
 2300 00a6 0ED0     		beq	.L70
 2301 00a8 7A68     		ldr	r2, [r7, #4]
 2302 00aa 4FF40053 		mov	r3, #8192
 2303 00ae C4F20003 		movt	r3, 16384
 2304 00b2 9A42     		cmp	r2, r3
 2305 00b4 07D0     		beq	.L70
 2306 00b6 40F20000 		movw	r0, #:lower16:.LC0
 2307 00ba C0F20000 		movt	r0, #:upper16:.LC0
 2308 00be 40F29E21 		movw	r1, #670
 2309 00c2 FFF7FEFF 		bl	assert_failed
 2310              	.L70:
 671:lib/chip/STM32F4xx_StdPeriph_Driver/src/stm32f4xx_tim.c ****   assert_param(IS_TIM_OC_MODE(TIM_OCInitStruct->TIM_OCMode));
 2311              		.loc 1 671 0 is_stmt 1
 2312 00c6 3B68     		ldr	r3, [r7]
 2313 00c8 1B88     		ldrh	r3, [r3]
 2314 00ca 002B     		cmp	r3, #0
 2315 00cc 1BD0     		beq	.L71
 2316              		.loc 1 671 0 is_stmt 0 discriminator 1
 2317 00ce 3B68     		ldr	r3, [r7]
 2318 00d0 1B88     		ldrh	r3, [r3]
 2319 00d2 102B     		cmp	r3, #16
 2320 00d4 17D0     		beq	.L71
 2321 00d6 3B68     		ldr	r3, [r7]
 2322 00d8 1B88     		ldrh	r3, [r3]
 2323 00da 202B     		cmp	r3, #32
 2324 00dc 13D0     		beq	.L71
 2325 00de 3B68     		ldr	r3, [r7]
 2326 00e0 1B88     		ldrh	r3, [r3]
 2327 00e2 302B     		cmp	r3, #48
 2328 00e4 0FD0     		beq	.L71
 2329 00e6 3B68     		ldr	r3, [r7]
 2330 00e8 1B88     		ldrh	r3, [r3]
 2331 00ea 602B     		cmp	r3, #96
 2332 00ec 0BD0     		beq	.L71
 2333 00ee 3B68     		ldr	r3, [r7]
 2334 00f0 1B88     		ldrh	r3, [r3]
 2335 00f2 702B     		cmp	r3, #112
 2336 00f4 07D0     		beq	.L71
 2337 00f6 40F20000 		movw	r0, #:lower16:.LC0
 2338 00fa C0F20000 		movt	r0, #:upper16:.LC0
 2339 00fe 40F29F21 		movw	r1, #671
 2340 0102 FFF7FEFF 		bl	assert_failed
 2341              	.L71:
 672:lib/chip/STM32F4xx_StdPeriph_Driver/src/stm32f4xx_tim.c ****   assert_param(IS_TIM_OUTPUT_STATE(TIM_OCInitStruct->TIM_OutputState));
 2342              		.loc 1 672 0 is_stmt 1
 2343 0106 3B68     		ldr	r3, [r7]
 2344 0108 5B88     		ldrh	r3, [r3, #2]
 2345 010a 002B     		cmp	r3, #0
 2346 010c 0BD0     		beq	.L72
 2347              		.loc 1 672 0 is_stmt 0 discriminator 1
 2348 010e 3B68     		ldr	r3, [r7]
 2349 0110 5B88     		ldrh	r3, [r3, #2]
 2350 0112 012B     		cmp	r3, #1
 2351 0114 07D0     		beq	.L72
 2352 0116 40F20000 		movw	r0, #:lower16:.LC0
 2353 011a C0F20000 		movt	r0, #:upper16:.LC0
 2354 011e 4FF42871 		mov	r1, #672
 2355 0122 FFF7FEFF 		bl	assert_failed
 2356              	.L72:
 673:lib/chip/STM32F4xx_StdPeriph_Driver/src/stm32f4xx_tim.c ****   assert_param(IS_TIM_OC_POLARITY(TIM_OCInitStruct->TIM_OCPolarity));   
 2357              		.loc 1 673 0 is_stmt 1
 2358 0126 3B68     		ldr	r3, [r7]
 2359 0128 9B89     		ldrh	r3, [r3, #12]
 2360 012a 002B     		cmp	r3, #0
 2361 012c 0BD0     		beq	.L73
 2362              		.loc 1 673 0 is_stmt 0 discriminator 1
 2363 012e 3B68     		ldr	r3, [r7]
 2364 0130 9B89     		ldrh	r3, [r3, #12]
 2365 0132 022B     		cmp	r3, #2
 2366 0134 07D0     		beq	.L73
 2367 0136 40F20000 		movw	r0, #:lower16:.LC0
 2368 013a C0F20000 		movt	r0, #:upper16:.LC0
 2369 013e 40F2A121 		movw	r1, #673
 2370 0142 FFF7FEFF 		bl	assert_failed
 2371              	.L73:
 674:lib/chip/STM32F4xx_StdPeriph_Driver/src/stm32f4xx_tim.c **** 
 675:lib/chip/STM32F4xx_StdPeriph_Driver/src/stm32f4xx_tim.c ****   /* Disable the Channel 1: Reset the CC1E Bit */
 676:lib/chip/STM32F4xx_StdPeriph_Driver/src/stm32f4xx_tim.c ****   TIMx->CCER &= (uint16_t)~TIM_CCER_CC1E;
 2372              		.loc 1 676 0 is_stmt 1
 2373 0146 7B68     		ldr	r3, [r7, #4]
 2374 0148 1B8C     		ldrh	r3, [r3, #32]	@ movhi
 2375 014a 9BB2     		uxth	r3, r3
 2376 014c 23F00103 		bic	r3, r3, #1
 2377 0150 9AB2     		uxth	r2, r3
 2378 0152 7B68     		ldr	r3, [r7, #4]
 2379 0154 1A84     		strh	r2, [r3, #32]	@ movhi
 677:lib/chip/STM32F4xx_StdPeriph_Driver/src/stm32f4xx_tim.c ****   
 678:lib/chip/STM32F4xx_StdPeriph_Driver/src/stm32f4xx_tim.c ****   /* Get the TIMx CCER register value */
 679:lib/chip/STM32F4xx_StdPeriph_Driver/src/stm32f4xx_tim.c ****   tmpccer = TIMx->CCER;
 2380              		.loc 1 679 0
 2381 0156 7B68     		ldr	r3, [r7, #4]
 2382 0158 1B8C     		ldrh	r3, [r3, #32]	@ movhi
 2383 015a FB81     		strh	r3, [r7, #14]	@ movhi
 680:lib/chip/STM32F4xx_StdPeriph_Driver/src/stm32f4xx_tim.c ****   /* Get the TIMx CR2 register value */
 681:lib/chip/STM32F4xx_StdPeriph_Driver/src/stm32f4xx_tim.c ****   tmpcr2 =  TIMx->CR2;
 2384              		.loc 1 681 0
 2385 015c 7B68     		ldr	r3, [r7, #4]
 2386 015e 9B88     		ldrh	r3, [r3, #4]	@ movhi
 2387 0160 BB81     		strh	r3, [r7, #12]	@ movhi
 682:lib/chip/STM32F4xx_StdPeriph_Driver/src/stm32f4xx_tim.c ****   
 683:lib/chip/STM32F4xx_StdPeriph_Driver/src/stm32f4xx_tim.c ****   /* Get the TIMx CCMR1 register value */
 684:lib/chip/STM32F4xx_StdPeriph_Driver/src/stm32f4xx_tim.c ****   tmpccmrx = TIMx->CCMR1;
 2388              		.loc 1 684 0
 2389 0162 7B68     		ldr	r3, [r7, #4]
 2390 0164 1B8B     		ldrh	r3, [r3, #24]	@ movhi
 2391 0166 7B81     		strh	r3, [r7, #10]	@ movhi
 685:lib/chip/STM32F4xx_StdPeriph_Driver/src/stm32f4xx_tim.c ****     
 686:lib/chip/STM32F4xx_StdPeriph_Driver/src/stm32f4xx_tim.c ****   /* Reset the Output Compare Mode Bits */
 687:lib/chip/STM32F4xx_StdPeriph_Driver/src/stm32f4xx_tim.c ****   tmpccmrx &= (uint16_t)~TIM_CCMR1_OC1M;
 2392              		.loc 1 687 0
 2393 0168 7B89     		ldrh	r3, [r7, #10]	@ movhi
 2394 016a 23F07003 		bic	r3, r3, #112
 2395 016e 7B81     		strh	r3, [r7, #10]	@ movhi
 688:lib/chip/STM32F4xx_StdPeriph_Driver/src/stm32f4xx_tim.c ****   tmpccmrx &= (uint16_t)~TIM_CCMR1_CC1S;
 2396              		.loc 1 688 0
 2397 0170 7B89     		ldrh	r3, [r7, #10]	@ movhi
 2398 0172 23F00303 		bic	r3, r3, #3
 2399 0176 7B81     		strh	r3, [r7, #10]	@ movhi
 689:lib/chip/STM32F4xx_StdPeriph_Driver/src/stm32f4xx_tim.c ****   /* Select the Output Compare Mode */
 690:lib/chip/STM32F4xx_StdPeriph_Driver/src/stm32f4xx_tim.c ****   tmpccmrx |= TIM_OCInitStruct->TIM_OCMode;
 2400              		.loc 1 690 0
 2401 0178 3B68     		ldr	r3, [r7]
 2402 017a 1A88     		ldrh	r2, [r3]
 2403 017c 7B89     		ldrh	r3, [r7, #10]	@ movhi
 2404 017e 1343     		orrs	r3, r3, r2
 2405 0180 7B81     		strh	r3, [r7, #10]	@ movhi
 691:lib/chip/STM32F4xx_StdPeriph_Driver/src/stm32f4xx_tim.c ****   
 692:lib/chip/STM32F4xx_StdPeriph_Driver/src/stm32f4xx_tim.c ****   /* Reset the Output Polarity level */
 693:lib/chip/STM32F4xx_StdPeriph_Driver/src/stm32f4xx_tim.c ****   tmpccer &= (uint16_t)~TIM_CCER_CC1P;
 2406              		.loc 1 693 0
 2407 0182 FB89     		ldrh	r3, [r7, #14]	@ movhi
 2408 0184 23F00203 		bic	r3, r3, #2
 2409 0188 FB81     		strh	r3, [r7, #14]	@ movhi
 694:lib/chip/STM32F4xx_StdPeriph_Driver/src/stm32f4xx_tim.c ****   /* Set the Output Compare Polarity */
 695:lib/chip/STM32F4xx_StdPeriph_Driver/src/stm32f4xx_tim.c ****   tmpccer |= TIM_OCInitStruct->TIM_OCPolarity;
 2410              		.loc 1 695 0
 2411 018a 3B68     		ldr	r3, [r7]
 2412 018c 9A89     		ldrh	r2, [r3, #12]
 2413 018e FB89     		ldrh	r3, [r7, #14]	@ movhi
 2414 0190 1343     		orrs	r3, r3, r2
 2415 0192 FB81     		strh	r3, [r7, #14]	@ movhi
 696:lib/chip/STM32F4xx_StdPeriph_Driver/src/stm32f4xx_tim.c ****   
 697:lib/chip/STM32F4xx_StdPeriph_Driver/src/stm32f4xx_tim.c ****   /* Set the Output State */
 698:lib/chip/STM32F4xx_StdPeriph_Driver/src/stm32f4xx_tim.c ****   tmpccer |= TIM_OCInitStruct->TIM_OutputState;
 2416              		.loc 1 698 0
 2417 0194 3B68     		ldr	r3, [r7]
 2418 0196 5A88     		ldrh	r2, [r3, #2]
 2419 0198 FB89     		ldrh	r3, [r7, #14]	@ movhi
 2420 019a 1343     		orrs	r3, r3, r2
 2421 019c FB81     		strh	r3, [r7, #14]	@ movhi
 699:lib/chip/STM32F4xx_StdPeriph_Driver/src/stm32f4xx_tim.c ****     
 700:lib/chip/STM32F4xx_StdPeriph_Driver/src/stm32f4xx_tim.c ****   if((TIMx == TIM1) || (TIMx == TIM8))
 2422              		.loc 1 700 0
 2423 019e 7A68     		ldr	r2, [r7, #4]
 2424 01a0 0023     		movs	r3, #0
 2425 01a2 C4F20103 		movt	r3, 16385
 2426 01a6 9A42     		cmp	r2, r3
 2427 01a8 06D0     		beq	.L74
 2428              		.loc 1 700 0 is_stmt 0 discriminator 1
 2429 01aa 7A68     		ldr	r2, [r7, #4]
 2430 01ac 4FF48063 		mov	r3, #1024
 2431 01b0 C4F20103 		movt	r3, 16385
 2432 01b4 9A42     		cmp	r2, r3
 2433 01b6 65D1     		bne	.L75
 2434              	.L74:
 701:lib/chip/STM32F4xx_StdPeriph_Driver/src/stm32f4xx_tim.c ****   {
 702:lib/chip/STM32F4xx_StdPeriph_Driver/src/stm32f4xx_tim.c ****     assert_param(IS_TIM_OUTPUTN_STATE(TIM_OCInitStruct->TIM_OutputNState));
 2435              		.loc 1 702 0 is_stmt 1
 2436 01b8 3B68     		ldr	r3, [r7]
 2437 01ba 9B88     		ldrh	r3, [r3, #4]
 2438 01bc 002B     		cmp	r3, #0
 2439 01be 0BD0     		beq	.L76
 2440              		.loc 1 702 0 is_stmt 0 discriminator 1
 2441 01c0 3B68     		ldr	r3, [r7]
 2442 01c2 9B88     		ldrh	r3, [r3, #4]
 2443 01c4 042B     		cmp	r3, #4
 2444 01c6 07D0     		beq	.L76
 2445 01c8 40F20000 		movw	r0, #:lower16:.LC0
 2446 01cc C0F20000 		movt	r0, #:upper16:.LC0
 2447 01d0 40F2BE21 		movw	r1, #702
 2448 01d4 FFF7FEFF 		bl	assert_failed
 2449              	.L76:
 703:lib/chip/STM32F4xx_StdPeriph_Driver/src/stm32f4xx_tim.c ****     assert_param(IS_TIM_OCN_POLARITY(TIM_OCInitStruct->TIM_OCNPolarity));
 2450              		.loc 1 703 0 is_stmt 1
 2451 01d8 3B68     		ldr	r3, [r7]
 2452 01da DB89     		ldrh	r3, [r3, #14]
 2453 01dc 002B     		cmp	r3, #0
 2454 01de 0BD0     		beq	.L77
 2455              		.loc 1 703 0 is_stmt 0 discriminator 1
 2456 01e0 3B68     		ldr	r3, [r7]
 2457 01e2 DB89     		ldrh	r3, [r3, #14]
 2458 01e4 082B     		cmp	r3, #8
 2459 01e6 07D0     		beq	.L77
 2460 01e8 40F20000 		movw	r0, #:lower16:.LC0
 2461 01ec C0F20000 		movt	r0, #:upper16:.LC0
 2462 01f0 40F2BF21 		movw	r1, #703
 2463 01f4 FFF7FEFF 		bl	assert_failed
 2464              	.L77:
 704:lib/chip/STM32F4xx_StdPeriph_Driver/src/stm32f4xx_tim.c ****     assert_param(IS_TIM_OCNIDLE_STATE(TIM_OCInitStruct->TIM_OCNIdleState));
 2465              		.loc 1 704 0 is_stmt 1
 2466 01f8 3B68     		ldr	r3, [r7]
 2467 01fa 5B8A     		ldrh	r3, [r3, #18]
 2468 01fc B3F5007F 		cmp	r3, #512
 2469 0200 0BD0     		beq	.L78
 2470              		.loc 1 704 0 is_stmt 0 discriminator 1
 2471 0202 3B68     		ldr	r3, [r7]
 2472 0204 5B8A     		ldrh	r3, [r3, #18]
 2473 0206 002B     		cmp	r3, #0
 2474 0208 07D0     		beq	.L78
 2475 020a 40F20000 		movw	r0, #:lower16:.LC0
 2476 020e C0F20000 		movt	r0, #:upper16:.LC0
 2477 0212 4FF43071 		mov	r1, #704
 2478 0216 FFF7FEFF 		bl	assert_failed
 2479              	.L78:
 705:lib/chip/STM32F4xx_StdPeriph_Driver/src/stm32f4xx_tim.c ****     assert_param(IS_TIM_OCIDLE_STATE(TIM_OCInitStruct->TIM_OCIdleState));
 2480              		.loc 1 705 0 is_stmt 1
 2481 021a 3B68     		ldr	r3, [r7]
 2482 021c 1B8A     		ldrh	r3, [r3, #16]
 2483 021e B3F5807F 		cmp	r3, #256
 2484 0222 0BD0     		beq	.L79
 2485              		.loc 1 705 0 is_stmt 0 discriminator 1
 2486 0224 3B68     		ldr	r3, [r7]
 2487 0226 1B8A     		ldrh	r3, [r3, #16]
 2488 0228 002B     		cmp	r3, #0
 2489 022a 07D0     		beq	.L79
 2490 022c 40F20000 		movw	r0, #:lower16:.LC0
 2491 0230 C0F20000 		movt	r0, #:upper16:.LC0
 2492 0234 40F2C121 		movw	r1, #705
 2493 0238 FFF7FEFF 		bl	assert_failed
 2494              	.L79:
 706:lib/chip/STM32F4xx_StdPeriph_Driver/src/stm32f4xx_tim.c ****     
 707:lib/chip/STM32F4xx_StdPeriph_Driver/src/stm32f4xx_tim.c ****     /* Reset the Output N Polarity level */
 708:lib/chip/STM32F4xx_StdPeriph_Driver/src/stm32f4xx_tim.c ****     tmpccer &= (uint16_t)~TIM_CCER_CC1NP;
 2495              		.loc 1 708 0 is_stmt 1
 2496 023c FB89     		ldrh	r3, [r7, #14]	@ movhi
 2497 023e 23F00803 		bic	r3, r3, #8
 2498 0242 FB81     		strh	r3, [r7, #14]	@ movhi
 709:lib/chip/STM32F4xx_StdPeriph_Driver/src/stm32f4xx_tim.c ****     /* Set the Output N Polarity */
 710:lib/chip/STM32F4xx_StdPeriph_Driver/src/stm32f4xx_tim.c ****     tmpccer |= TIM_OCInitStruct->TIM_OCNPolarity;
 2499              		.loc 1 710 0
 2500 0244 3B68     		ldr	r3, [r7]
 2501 0246 DA89     		ldrh	r2, [r3, #14]
 2502 0248 FB89     		ldrh	r3, [r7, #14]	@ movhi
 2503 024a 1343     		orrs	r3, r3, r2
 2504 024c FB81     		strh	r3, [r7, #14]	@ movhi
 711:lib/chip/STM32F4xx_StdPeriph_Driver/src/stm32f4xx_tim.c ****     /* Reset the Output N State */
 712:lib/chip/STM32F4xx_StdPeriph_Driver/src/stm32f4xx_tim.c ****     tmpccer &= (uint16_t)~TIM_CCER_CC1NE;
 2505              		.loc 1 712 0
 2506 024e FB89     		ldrh	r3, [r7, #14]	@ movhi
 2507 0250 23F00403 		bic	r3, r3, #4
 2508 0254 FB81     		strh	r3, [r7, #14]	@ movhi
 713:lib/chip/STM32F4xx_StdPeriph_Driver/src/stm32f4xx_tim.c ****     
 714:lib/chip/STM32F4xx_StdPeriph_Driver/src/stm32f4xx_tim.c ****     /* Set the Output N State */
 715:lib/chip/STM32F4xx_StdPeriph_Driver/src/stm32f4xx_tim.c ****     tmpccer |= TIM_OCInitStruct->TIM_OutputNState;
 2509              		.loc 1 715 0
 2510 0256 3B68     		ldr	r3, [r7]
 2511 0258 9A88     		ldrh	r2, [r3, #4]
 2512 025a FB89     		ldrh	r3, [r7, #14]	@ movhi
 2513 025c 1343     		orrs	r3, r3, r2
 2514 025e FB81     		strh	r3, [r7, #14]	@ movhi
 716:lib/chip/STM32F4xx_StdPeriph_Driver/src/stm32f4xx_tim.c ****     /* Reset the Output Compare and Output Compare N IDLE State */
 717:lib/chip/STM32F4xx_StdPeriph_Driver/src/stm32f4xx_tim.c ****     tmpcr2 &= (uint16_t)~TIM_CR2_OIS1;
 2515              		.loc 1 717 0
 2516 0260 BB89     		ldrh	r3, [r7, #12]	@ movhi
 2517 0262 23F48073 		bic	r3, r3, #256
 2518 0266 BB81     		strh	r3, [r7, #12]	@ movhi
 718:lib/chip/STM32F4xx_StdPeriph_Driver/src/stm32f4xx_tim.c ****     tmpcr2 &= (uint16_t)~TIM_CR2_OIS1N;
 2519              		.loc 1 718 0
 2520 0268 BB89     		ldrh	r3, [r7, #12]	@ movhi
 2521 026a 23F40073 		bic	r3, r3, #512
 2522 026e BB81     		strh	r3, [r7, #12]	@ movhi
 719:lib/chip/STM32F4xx_StdPeriph_Driver/src/stm32f4xx_tim.c ****     /* Set the Output Idle state */
 720:lib/chip/STM32F4xx_StdPeriph_Driver/src/stm32f4xx_tim.c ****     tmpcr2 |= TIM_OCInitStruct->TIM_OCIdleState;
 2523              		.loc 1 720 0
 2524 0270 3B68     		ldr	r3, [r7]
 2525 0272 1A8A     		ldrh	r2, [r3, #16]
 2526 0274 BB89     		ldrh	r3, [r7, #12]	@ movhi
 2527 0276 1343     		orrs	r3, r3, r2
 2528 0278 BB81     		strh	r3, [r7, #12]	@ movhi
 721:lib/chip/STM32F4xx_StdPeriph_Driver/src/stm32f4xx_tim.c ****     /* Set the Output N Idle state */
 722:lib/chip/STM32F4xx_StdPeriph_Driver/src/stm32f4xx_tim.c ****     tmpcr2 |= TIM_OCInitStruct->TIM_OCNIdleState;
 2529              		.loc 1 722 0
 2530 027a 3B68     		ldr	r3, [r7]
 2531 027c 5A8A     		ldrh	r2, [r3, #18]
 2532 027e BB89     		ldrh	r3, [r7, #12]	@ movhi
 2533 0280 1343     		orrs	r3, r3, r2
 2534 0282 BB81     		strh	r3, [r7, #12]	@ movhi
 2535              	.L75:
 723:lib/chip/STM32F4xx_StdPeriph_Driver/src/stm32f4xx_tim.c ****   }
 724:lib/chip/STM32F4xx_StdPeriph_Driver/src/stm32f4xx_tim.c ****   /* Write to TIMx CR2 */
 725:lib/chip/STM32F4xx_StdPeriph_Driver/src/stm32f4xx_tim.c ****   TIMx->CR2 = tmpcr2;
 2536              		.loc 1 725 0
 2537 0284 7B68     		ldr	r3, [r7, #4]
 2538 0286 BA89     		ldrh	r2, [r7, #12]	@ movhi
 2539 0288 9A80     		strh	r2, [r3, #4]	@ movhi
 726:lib/chip/STM32F4xx_StdPeriph_Driver/src/stm32f4xx_tim.c ****   
 727:lib/chip/STM32F4xx_StdPeriph_Driver/src/stm32f4xx_tim.c ****   /* Write to TIMx CCMR1 */
 728:lib/chip/STM32F4xx_StdPeriph_Driver/src/stm32f4xx_tim.c ****   TIMx->CCMR1 = tmpccmrx;
 2540              		.loc 1 728 0
 2541 028a 7B68     		ldr	r3, [r7, #4]
 2542 028c 7A89     		ldrh	r2, [r7, #10]	@ movhi
 2543 028e 1A83     		strh	r2, [r3, #24]	@ movhi
 729:lib/chip/STM32F4xx_StdPeriph_Driver/src/stm32f4xx_tim.c ****   
 730:lib/chip/STM32F4xx_StdPeriph_Driver/src/stm32f4xx_tim.c ****   /* Set the Capture Compare Register value */
 731:lib/chip/STM32F4xx_StdPeriph_Driver/src/stm32f4xx_tim.c ****   TIMx->CCR1 = TIM_OCInitStruct->TIM_Pulse;
 2544              		.loc 1 731 0
 2545 0290 3B68     		ldr	r3, [r7]
 2546 0292 9A68     		ldr	r2, [r3, #8]
 2547 0294 7B68     		ldr	r3, [r7, #4]
 2548 0296 5A63     		str	r2, [r3, #52]
 732:lib/chip/STM32F4xx_StdPeriph_Driver/src/stm32f4xx_tim.c ****   
 733:lib/chip/STM32F4xx_StdPeriph_Driver/src/stm32f4xx_tim.c ****   /* Write to TIMx CCER */
 734:lib/chip/STM32F4xx_StdPeriph_Driver/src/stm32f4xx_tim.c ****   TIMx->CCER = tmpccer;
 2549              		.loc 1 734 0
 2550 0298 7B68     		ldr	r3, [r7, #4]
 2551 029a FA89     		ldrh	r2, [r7, #14]	@ movhi
 2552 029c 1A84     		strh	r2, [r3, #32]	@ movhi
 735:lib/chip/STM32F4xx_StdPeriph_Driver/src/stm32f4xx_tim.c **** }
 2553              		.loc 1 735 0
 2554 029e 1037     		adds	r7, r7, #16
 2555 02a0 BD46     		mov	sp, r7
 2556              		@ sp needed
 2557 02a2 80BD     		pop	{r7, pc}
 2558              		.cfi_endproc
 2559              	.LFE125:
 2561              		.section	.text.TIM_OC2Init,"ax",%progbits
 2562              		.align	2
 2563              		.global	TIM_OC2Init
 2564              		.thumb
 2565              		.thumb_func
 2567              	TIM_OC2Init:
 2568              	.LFB126:
 736:lib/chip/STM32F4xx_StdPeriph_Driver/src/stm32f4xx_tim.c **** 
 737:lib/chip/STM32F4xx_StdPeriph_Driver/src/stm32f4xx_tim.c **** /**
 738:lib/chip/STM32F4xx_StdPeriph_Driver/src/stm32f4xx_tim.c ****   * @brief  Initializes the TIMx Channel2 according to the specified parameters 
 739:lib/chip/STM32F4xx_StdPeriph_Driver/src/stm32f4xx_tim.c ****   *         in the TIM_OCInitStruct.
 740:lib/chip/STM32F4xx_StdPeriph_Driver/src/stm32f4xx_tim.c ****   * @param  TIMx: where x can be 1, 2, 3, 4, 5, 8, 9 or 12 to select the TIM 
 741:lib/chip/STM32F4xx_StdPeriph_Driver/src/stm32f4xx_tim.c ****   *         peripheral.
 742:lib/chip/STM32F4xx_StdPeriph_Driver/src/stm32f4xx_tim.c ****   * @param  TIM_OCInitStruct: pointer to a TIM_OCInitTypeDef structure that contains
 743:lib/chip/STM32F4xx_StdPeriph_Driver/src/stm32f4xx_tim.c ****   *         the configuration information for the specified TIM peripheral.
 744:lib/chip/STM32F4xx_StdPeriph_Driver/src/stm32f4xx_tim.c ****   * @retval None
 745:lib/chip/STM32F4xx_StdPeriph_Driver/src/stm32f4xx_tim.c ****   */
 746:lib/chip/STM32F4xx_StdPeriph_Driver/src/stm32f4xx_tim.c **** void TIM_OC2Init(TIM_TypeDef* TIMx, TIM_OCInitTypeDef* TIM_OCInitStruct)
 747:lib/chip/STM32F4xx_StdPeriph_Driver/src/stm32f4xx_tim.c **** {
 2569              		.loc 1 747 0
 2570              		.cfi_startproc
 2571              		@ args = 0, pretend = 0, frame = 16
 2572              		@ frame_needed = 1, uses_anonymous_args = 0
 2573 0000 80B5     		push	{r7, lr}
 2574              	.LCFI48:
 2575              		.cfi_def_cfa_offset 8
 2576              		.cfi_offset 7, -8
 2577              		.cfi_offset 14, -4
 2578 0002 84B0     		sub	sp, sp, #16
 2579              	.LCFI49:
 2580              		.cfi_def_cfa_offset 24
 2581 0004 00AF     		add	r7, sp, #0
 2582              	.LCFI50:
 2583              		.cfi_def_cfa_register 7
 2584 0006 7860     		str	r0, [r7, #4]
 2585 0008 3960     		str	r1, [r7]
 748:lib/chip/STM32F4xx_StdPeriph_Driver/src/stm32f4xx_tim.c ****   uint16_t tmpccmrx = 0, tmpccer = 0, tmpcr2 = 0;
 2586              		.loc 1 748 0
 2587 000a 0023     		movs	r3, #0
 2588 000c 7B81     		strh	r3, [r7, #10]	@ movhi
 2589 000e 0023     		movs	r3, #0
 2590 0010 FB81     		strh	r3, [r7, #14]	@ movhi
 2591 0012 0023     		movs	r3, #0
 2592 0014 BB81     		strh	r3, [r7, #12]	@ movhi
 749:lib/chip/STM32F4xx_StdPeriph_Driver/src/stm32f4xx_tim.c ****    
 750:lib/chip/STM32F4xx_StdPeriph_Driver/src/stm32f4xx_tim.c ****   /* Check the parameters */
 751:lib/chip/STM32F4xx_StdPeriph_Driver/src/stm32f4xx_tim.c ****   assert_param(IS_TIM_LIST2_PERIPH(TIMx)); 
 2593              		.loc 1 751 0
 2594 0016 7A68     		ldr	r2, [r7, #4]
 2595 0018 0023     		movs	r3, #0
 2596 001a C4F20103 		movt	r3, 16385
 2597 001e 9A42     		cmp	r2, r3
 2598 0020 35D0     		beq	.L81
 2599              		.loc 1 751 0 is_stmt 0 discriminator 1
 2600 0022 7B68     		ldr	r3, [r7, #4]
 2601 0024 B3F1804F 		cmp	r3, #1073741824
 2602 0028 31D0     		beq	.L81
 2603 002a 7A68     		ldr	r2, [r7, #4]
 2604 002c 4FF48063 		mov	r3, #1024
 2605 0030 C4F20003 		movt	r3, 16384
 2606 0034 9A42     		cmp	r2, r3
 2607 0036 2AD0     		beq	.L81
 2608 0038 7A68     		ldr	r2, [r7, #4]
 2609 003a 4FF40063 		mov	r3, #2048
 2610 003e C4F20003 		movt	r3, 16384
 2611 0042 9A42     		cmp	r2, r3
 2612 0044 23D0     		beq	.L81
 2613 0046 7A68     		ldr	r2, [r7, #4]
 2614 0048 4FF44063 		mov	r3, #3072
 2615 004c C4F20003 		movt	r3, 16384
 2616 0050 9A42     		cmp	r2, r3
 2617 0052 1CD0     		beq	.L81
 2618 0054 7A68     		ldr	r2, [r7, #4]
 2619 0056 4FF48063 		mov	r3, #1024
 2620 005a C4F20103 		movt	r3, 16385
 2621 005e 9A42     		cmp	r2, r3
 2622 0060 15D0     		beq	.L81
 2623 0062 7A68     		ldr	r2, [r7, #4]
 2624 0064 4FF48043 		mov	r3, #16384
 2625 0068 C4F20103 		movt	r3, 16385
 2626 006c 9A42     		cmp	r2, r3
 2627 006e 0ED0     		beq	.L81
 2628 0070 7A68     		ldr	r2, [r7, #4]
 2629 0072 4FF4C053 		mov	r3, #6144
 2630 0076 C4F20003 		movt	r3, 16384
 2631 007a 9A42     		cmp	r2, r3
 2632 007c 07D0     		beq	.L81
 2633 007e 40F20000 		movw	r0, #:lower16:.LC0
 2634 0082 C0F20000 		movt	r0, #:upper16:.LC0
 2635 0086 40F2EF21 		movw	r1, #751
 2636 008a FFF7FEFF 		bl	assert_failed
 2637              	.L81:
 752:lib/chip/STM32F4xx_StdPeriph_Driver/src/stm32f4xx_tim.c ****   assert_param(IS_TIM_OC_MODE(TIM_OCInitStruct->TIM_OCMode));
 2638              		.loc 1 752 0 is_stmt 1
 2639 008e 3B68     		ldr	r3, [r7]
 2640 0090 1B88     		ldrh	r3, [r3]
 2641 0092 002B     		cmp	r3, #0
 2642 0094 1BD0     		beq	.L82
 2643              		.loc 1 752 0 is_stmt 0 discriminator 1
 2644 0096 3B68     		ldr	r3, [r7]
 2645 0098 1B88     		ldrh	r3, [r3]
 2646 009a 102B     		cmp	r3, #16
 2647 009c 17D0     		beq	.L82
 2648 009e 3B68     		ldr	r3, [r7]
 2649 00a0 1B88     		ldrh	r3, [r3]
 2650 00a2 202B     		cmp	r3, #32
 2651 00a4 13D0     		beq	.L82
 2652 00a6 3B68     		ldr	r3, [r7]
 2653 00a8 1B88     		ldrh	r3, [r3]
 2654 00aa 302B     		cmp	r3, #48
 2655 00ac 0FD0     		beq	.L82
 2656 00ae 3B68     		ldr	r3, [r7]
 2657 00b0 1B88     		ldrh	r3, [r3]
 2658 00b2 602B     		cmp	r3, #96
 2659 00b4 0BD0     		beq	.L82
 2660 00b6 3B68     		ldr	r3, [r7]
 2661 00b8 1B88     		ldrh	r3, [r3]
 2662 00ba 702B     		cmp	r3, #112
 2663 00bc 07D0     		beq	.L82
 2664 00be 40F20000 		movw	r0, #:lower16:.LC0
 2665 00c2 C0F20000 		movt	r0, #:upper16:.LC0
 2666 00c6 4FF43C71 		mov	r1, #752
 2667 00ca FFF7FEFF 		bl	assert_failed
 2668              	.L82:
 753:lib/chip/STM32F4xx_StdPeriph_Driver/src/stm32f4xx_tim.c ****   assert_param(IS_TIM_OUTPUT_STATE(TIM_OCInitStruct->TIM_OutputState));
 2669              		.loc 1 753 0 is_stmt 1
 2670 00ce 3B68     		ldr	r3, [r7]
 2671 00d0 5B88     		ldrh	r3, [r3, #2]
 2672 00d2 002B     		cmp	r3, #0
 2673 00d4 0BD0     		beq	.L83
 2674              		.loc 1 753 0 is_stmt 0 discriminator 1
 2675 00d6 3B68     		ldr	r3, [r7]
 2676 00d8 5B88     		ldrh	r3, [r3, #2]
 2677 00da 012B     		cmp	r3, #1
 2678 00dc 07D0     		beq	.L83
 2679 00de 40F20000 		movw	r0, #:lower16:.LC0
 2680 00e2 C0F20000 		movt	r0, #:upper16:.LC0
 2681 00e6 40F2F121 		movw	r1, #753
 2682 00ea FFF7FEFF 		bl	assert_failed
 2683              	.L83:
 754:lib/chip/STM32F4xx_StdPeriph_Driver/src/stm32f4xx_tim.c ****   assert_param(IS_TIM_OC_POLARITY(TIM_OCInitStruct->TIM_OCPolarity));   
 2684              		.loc 1 754 0 is_stmt 1
 2685 00ee 3B68     		ldr	r3, [r7]
 2686 00f0 9B89     		ldrh	r3, [r3, #12]
 2687 00f2 002B     		cmp	r3, #0
 2688 00f4 0BD0     		beq	.L84
 2689              		.loc 1 754 0 is_stmt 0 discriminator 1
 2690 00f6 3B68     		ldr	r3, [r7]
 2691 00f8 9B89     		ldrh	r3, [r3, #12]
 2692 00fa 022B     		cmp	r3, #2
 2693 00fc 07D0     		beq	.L84
 2694 00fe 40F20000 		movw	r0, #:lower16:.LC0
 2695 0102 C0F20000 		movt	r0, #:upper16:.LC0
 2696 0106 40F2F221 		movw	r1, #754
 2697 010a FFF7FEFF 		bl	assert_failed
 2698              	.L84:
 755:lib/chip/STM32F4xx_StdPeriph_Driver/src/stm32f4xx_tim.c **** 
 756:lib/chip/STM32F4xx_StdPeriph_Driver/src/stm32f4xx_tim.c ****   /* Disable the Channel 2: Reset the CC2E Bit */
 757:lib/chip/STM32F4xx_StdPeriph_Driver/src/stm32f4xx_tim.c ****   TIMx->CCER &= (uint16_t)~TIM_CCER_CC2E;
 2699              		.loc 1 757 0 is_stmt 1
 2700 010e 7B68     		ldr	r3, [r7, #4]
 2701 0110 1B8C     		ldrh	r3, [r3, #32]	@ movhi
 2702 0112 9BB2     		uxth	r3, r3
 2703 0114 23F01003 		bic	r3, r3, #16
 2704 0118 9AB2     		uxth	r2, r3
 2705 011a 7B68     		ldr	r3, [r7, #4]
 2706 011c 1A84     		strh	r2, [r3, #32]	@ movhi
 758:lib/chip/STM32F4xx_StdPeriph_Driver/src/stm32f4xx_tim.c ****   
 759:lib/chip/STM32F4xx_StdPeriph_Driver/src/stm32f4xx_tim.c ****   /* Get the TIMx CCER register value */  
 760:lib/chip/STM32F4xx_StdPeriph_Driver/src/stm32f4xx_tim.c ****   tmpccer = TIMx->CCER;
 2707              		.loc 1 760 0
 2708 011e 7B68     		ldr	r3, [r7, #4]
 2709 0120 1B8C     		ldrh	r3, [r3, #32]	@ movhi
 2710 0122 FB81     		strh	r3, [r7, #14]	@ movhi
 761:lib/chip/STM32F4xx_StdPeriph_Driver/src/stm32f4xx_tim.c ****   /* Get the TIMx CR2 register value */
 762:lib/chip/STM32F4xx_StdPeriph_Driver/src/stm32f4xx_tim.c ****   tmpcr2 =  TIMx->CR2;
 2711              		.loc 1 762 0
 2712 0124 7B68     		ldr	r3, [r7, #4]
 2713 0126 9B88     		ldrh	r3, [r3, #4]	@ movhi
 2714 0128 BB81     		strh	r3, [r7, #12]	@ movhi
 763:lib/chip/STM32F4xx_StdPeriph_Driver/src/stm32f4xx_tim.c ****   
 764:lib/chip/STM32F4xx_StdPeriph_Driver/src/stm32f4xx_tim.c ****   /* Get the TIMx CCMR1 register value */
 765:lib/chip/STM32F4xx_StdPeriph_Driver/src/stm32f4xx_tim.c ****   tmpccmrx = TIMx->CCMR1;
 2715              		.loc 1 765 0
 2716 012a 7B68     		ldr	r3, [r7, #4]
 2717 012c 1B8B     		ldrh	r3, [r3, #24]	@ movhi
 2718 012e 7B81     		strh	r3, [r7, #10]	@ movhi
 766:lib/chip/STM32F4xx_StdPeriph_Driver/src/stm32f4xx_tim.c ****     
 767:lib/chip/STM32F4xx_StdPeriph_Driver/src/stm32f4xx_tim.c ****   /* Reset the Output Compare mode and Capture/Compare selection Bits */
 768:lib/chip/STM32F4xx_StdPeriph_Driver/src/stm32f4xx_tim.c ****   tmpccmrx &= (uint16_t)~TIM_CCMR1_OC2M;
 2719              		.loc 1 768 0
 2720 0130 7B89     		ldrh	r3, [r7, #10]	@ movhi
 2721 0132 23F4E043 		bic	r3, r3, #28672
 2722 0136 7B81     		strh	r3, [r7, #10]	@ movhi
 769:lib/chip/STM32F4xx_StdPeriph_Driver/src/stm32f4xx_tim.c ****   tmpccmrx &= (uint16_t)~TIM_CCMR1_CC2S;
 2723              		.loc 1 769 0
 2724 0138 7B89     		ldrh	r3, [r7, #10]	@ movhi
 2725 013a 23F44073 		bic	r3, r3, #768
 2726 013e 7B81     		strh	r3, [r7, #10]	@ movhi
 770:lib/chip/STM32F4xx_StdPeriph_Driver/src/stm32f4xx_tim.c ****   
 771:lib/chip/STM32F4xx_StdPeriph_Driver/src/stm32f4xx_tim.c ****   /* Select the Output Compare Mode */
 772:lib/chip/STM32F4xx_StdPeriph_Driver/src/stm32f4xx_tim.c ****   tmpccmrx |= (uint16_t)(TIM_OCInitStruct->TIM_OCMode << 8);
 2727              		.loc 1 772 0
 2728 0140 3B68     		ldr	r3, [r7]
 2729 0142 1B88     		ldrh	r3, [r3]
 2730 0144 1B02     		lsls	r3, r3, #8
 2731 0146 9AB2     		uxth	r2, r3
 2732 0148 7B89     		ldrh	r3, [r7, #10]	@ movhi
 2733 014a 1343     		orrs	r3, r3, r2
 2734 014c 7B81     		strh	r3, [r7, #10]	@ movhi
 773:lib/chip/STM32F4xx_StdPeriph_Driver/src/stm32f4xx_tim.c ****   
 774:lib/chip/STM32F4xx_StdPeriph_Driver/src/stm32f4xx_tim.c ****   /* Reset the Output Polarity level */
 775:lib/chip/STM32F4xx_StdPeriph_Driver/src/stm32f4xx_tim.c ****   tmpccer &= (uint16_t)~TIM_CCER_CC2P;
 2735              		.loc 1 775 0
 2736 014e FB89     		ldrh	r3, [r7, #14]	@ movhi
 2737 0150 23F02003 		bic	r3, r3, #32
 2738 0154 FB81     		strh	r3, [r7, #14]	@ movhi
 776:lib/chip/STM32F4xx_StdPeriph_Driver/src/stm32f4xx_tim.c ****   /* Set the Output Compare Polarity */
 777:lib/chip/STM32F4xx_StdPeriph_Driver/src/stm32f4xx_tim.c ****   tmpccer |= (uint16_t)(TIM_OCInitStruct->TIM_OCPolarity << 4);
 2739              		.loc 1 777 0
 2740 0156 3B68     		ldr	r3, [r7]
 2741 0158 9B89     		ldrh	r3, [r3, #12]
 2742 015a 1B01     		lsls	r3, r3, #4
 2743 015c 9AB2     		uxth	r2, r3
 2744 015e FB89     		ldrh	r3, [r7, #14]	@ movhi
 2745 0160 1343     		orrs	r3, r3, r2
 2746 0162 FB81     		strh	r3, [r7, #14]	@ movhi
 778:lib/chip/STM32F4xx_StdPeriph_Driver/src/stm32f4xx_tim.c ****   
 779:lib/chip/STM32F4xx_StdPeriph_Driver/src/stm32f4xx_tim.c ****   /* Set the Output State */
 780:lib/chip/STM32F4xx_StdPeriph_Driver/src/stm32f4xx_tim.c ****   tmpccer |= (uint16_t)(TIM_OCInitStruct->TIM_OutputState << 4);
 2747              		.loc 1 780 0
 2748 0164 3B68     		ldr	r3, [r7]
 2749 0166 5B88     		ldrh	r3, [r3, #2]
 2750 0168 1B01     		lsls	r3, r3, #4
 2751 016a 9AB2     		uxth	r2, r3
 2752 016c FB89     		ldrh	r3, [r7, #14]	@ movhi
 2753 016e 1343     		orrs	r3, r3, r2
 2754 0170 FB81     		strh	r3, [r7, #14]	@ movhi
 781:lib/chip/STM32F4xx_StdPeriph_Driver/src/stm32f4xx_tim.c ****     
 782:lib/chip/STM32F4xx_StdPeriph_Driver/src/stm32f4xx_tim.c ****   if((TIMx == TIM1) || (TIMx == TIM8))
 2755              		.loc 1 782 0
 2756 0172 7A68     		ldr	r2, [r7, #4]
 2757 0174 0023     		movs	r3, #0
 2758 0176 C4F20103 		movt	r3, 16385
 2759 017a 9A42     		cmp	r2, r3
 2760 017c 06D0     		beq	.L85
 2761              		.loc 1 782 0 is_stmt 0 discriminator 1
 2762 017e 7A68     		ldr	r2, [r7, #4]
 2763 0180 4FF48063 		mov	r3, #1024
 2764 0184 C4F20103 		movt	r3, 16385
 2765 0188 9A42     		cmp	r2, r3
 2766 018a 6DD1     		bne	.L86
 2767              	.L85:
 783:lib/chip/STM32F4xx_StdPeriph_Driver/src/stm32f4xx_tim.c ****   {
 784:lib/chip/STM32F4xx_StdPeriph_Driver/src/stm32f4xx_tim.c ****     assert_param(IS_TIM_OUTPUTN_STATE(TIM_OCInitStruct->TIM_OutputNState));
 2768              		.loc 1 784 0 is_stmt 1
 2769 018c 3B68     		ldr	r3, [r7]
 2770 018e 9B88     		ldrh	r3, [r3, #4]
 2771 0190 002B     		cmp	r3, #0
 2772 0192 0BD0     		beq	.L87
 2773              		.loc 1 784 0 is_stmt 0 discriminator 1
 2774 0194 3B68     		ldr	r3, [r7]
 2775 0196 9B88     		ldrh	r3, [r3, #4]
 2776 0198 042B     		cmp	r3, #4
 2777 019a 07D0     		beq	.L87
 2778 019c 40F20000 		movw	r0, #:lower16:.LC0
 2779 01a0 C0F20000 		movt	r0, #:upper16:.LC0
 2780 01a4 4FF44471 		mov	r1, #784
 2781 01a8 FFF7FEFF 		bl	assert_failed
 2782              	.L87:
 785:lib/chip/STM32F4xx_StdPeriph_Driver/src/stm32f4xx_tim.c ****     assert_param(IS_TIM_OCN_POLARITY(TIM_OCInitStruct->TIM_OCNPolarity));
 2783              		.loc 1 785 0 is_stmt 1
 2784 01ac 3B68     		ldr	r3, [r7]
 2785 01ae DB89     		ldrh	r3, [r3, #14]
 2786 01b0 002B     		cmp	r3, #0
 2787 01b2 0BD0     		beq	.L88
 2788              		.loc 1 785 0 is_stmt 0 discriminator 1
 2789 01b4 3B68     		ldr	r3, [r7]
 2790 01b6 DB89     		ldrh	r3, [r3, #14]
 2791 01b8 082B     		cmp	r3, #8
 2792 01ba 07D0     		beq	.L88
 2793 01bc 40F20000 		movw	r0, #:lower16:.LC0
 2794 01c0 C0F20000 		movt	r0, #:upper16:.LC0
 2795 01c4 40F21131 		movw	r1, #785
 2796 01c8 FFF7FEFF 		bl	assert_failed
 2797              	.L88:
 786:lib/chip/STM32F4xx_StdPeriph_Driver/src/stm32f4xx_tim.c ****     assert_param(IS_TIM_OCNIDLE_STATE(TIM_OCInitStruct->TIM_OCNIdleState));
 2798              		.loc 1 786 0 is_stmt 1
 2799 01cc 3B68     		ldr	r3, [r7]
 2800 01ce 5B8A     		ldrh	r3, [r3, #18]
 2801 01d0 B3F5007F 		cmp	r3, #512
 2802 01d4 0BD0     		beq	.L89
 2803              		.loc 1 786 0 is_stmt 0 discriminator 1
 2804 01d6 3B68     		ldr	r3, [r7]
 2805 01d8 5B8A     		ldrh	r3, [r3, #18]
 2806 01da 002B     		cmp	r3, #0
 2807 01dc 07D0     		beq	.L89
 2808 01de 40F20000 		movw	r0, #:lower16:.LC0
 2809 01e2 C0F20000 		movt	r0, #:upper16:.LC0
 2810 01e6 40F21231 		movw	r1, #786
 2811 01ea FFF7FEFF 		bl	assert_failed
 2812              	.L89:
 787:lib/chip/STM32F4xx_StdPeriph_Driver/src/stm32f4xx_tim.c ****     assert_param(IS_TIM_OCIDLE_STATE(TIM_OCInitStruct->TIM_OCIdleState));
 2813              		.loc 1 787 0 is_stmt 1
 2814 01ee 3B68     		ldr	r3, [r7]
 2815 01f0 1B8A     		ldrh	r3, [r3, #16]
 2816 01f2 B3F5807F 		cmp	r3, #256
 2817 01f6 0BD0     		beq	.L90
 2818              		.loc 1 787 0 is_stmt 0 discriminator 1
 2819 01f8 3B68     		ldr	r3, [r7]
 2820 01fa 1B8A     		ldrh	r3, [r3, #16]
 2821 01fc 002B     		cmp	r3, #0
 2822 01fe 07D0     		beq	.L90
 2823 0200 40F20000 		movw	r0, #:lower16:.LC0
 2824 0204 C0F20000 		movt	r0, #:upper16:.LC0
 2825 0208 40F21331 		movw	r1, #787
 2826 020c FFF7FEFF 		bl	assert_failed
 2827              	.L90:
 788:lib/chip/STM32F4xx_StdPeriph_Driver/src/stm32f4xx_tim.c ****     
 789:lib/chip/STM32F4xx_StdPeriph_Driver/src/stm32f4xx_tim.c ****     /* Reset the Output N Polarity level */
 790:lib/chip/STM32F4xx_StdPeriph_Driver/src/stm32f4xx_tim.c ****     tmpccer &= (uint16_t)~TIM_CCER_CC2NP;
 2828              		.loc 1 790 0 is_stmt 1
 2829 0210 FB89     		ldrh	r3, [r7, #14]	@ movhi
 2830 0212 23F08003 		bic	r3, r3, #128
 2831 0216 FB81     		strh	r3, [r7, #14]	@ movhi
 791:lib/chip/STM32F4xx_StdPeriph_Driver/src/stm32f4xx_tim.c ****     /* Set the Output N Polarity */
 792:lib/chip/STM32F4xx_StdPeriph_Driver/src/stm32f4xx_tim.c ****     tmpccer |= (uint16_t)(TIM_OCInitStruct->TIM_OCNPolarity << 4);
 2832              		.loc 1 792 0
 2833 0218 3B68     		ldr	r3, [r7]
 2834 021a DB89     		ldrh	r3, [r3, #14]
 2835 021c 1B01     		lsls	r3, r3, #4
 2836 021e 9AB2     		uxth	r2, r3
 2837 0220 FB89     		ldrh	r3, [r7, #14]	@ movhi
 2838 0222 1343     		orrs	r3, r3, r2
 2839 0224 FB81     		strh	r3, [r7, #14]	@ movhi
 793:lib/chip/STM32F4xx_StdPeriph_Driver/src/stm32f4xx_tim.c ****     /* Reset the Output N State */
 794:lib/chip/STM32F4xx_StdPeriph_Driver/src/stm32f4xx_tim.c ****     tmpccer &= (uint16_t)~TIM_CCER_CC2NE;
 2840              		.loc 1 794 0
 2841 0226 FB89     		ldrh	r3, [r7, #14]	@ movhi
 2842 0228 23F04003 		bic	r3, r3, #64
 2843 022c FB81     		strh	r3, [r7, #14]	@ movhi
 795:lib/chip/STM32F4xx_StdPeriph_Driver/src/stm32f4xx_tim.c ****     
 796:lib/chip/STM32F4xx_StdPeriph_Driver/src/stm32f4xx_tim.c ****     /* Set the Output N State */
 797:lib/chip/STM32F4xx_StdPeriph_Driver/src/stm32f4xx_tim.c ****     tmpccer |= (uint16_t)(TIM_OCInitStruct->TIM_OutputNState << 4);
 2844              		.loc 1 797 0
 2845 022e 3B68     		ldr	r3, [r7]
 2846 0230 9B88     		ldrh	r3, [r3, #4]
 2847 0232 1B01     		lsls	r3, r3, #4
 2848 0234 9AB2     		uxth	r2, r3
 2849 0236 FB89     		ldrh	r3, [r7, #14]	@ movhi
 2850 0238 1343     		orrs	r3, r3, r2
 2851 023a FB81     		strh	r3, [r7, #14]	@ movhi
 798:lib/chip/STM32F4xx_StdPeriph_Driver/src/stm32f4xx_tim.c ****     /* Reset the Output Compare and Output Compare N IDLE State */
 799:lib/chip/STM32F4xx_StdPeriph_Driver/src/stm32f4xx_tim.c ****     tmpcr2 &= (uint16_t)~TIM_CR2_OIS2;
 2852              		.loc 1 799 0
 2853 023c BB89     		ldrh	r3, [r7, #12]	@ movhi
 2854 023e 23F48063 		bic	r3, r3, #1024
 2855 0242 BB81     		strh	r3, [r7, #12]	@ movhi
 800:lib/chip/STM32F4xx_StdPeriph_Driver/src/stm32f4xx_tim.c ****     tmpcr2 &= (uint16_t)~TIM_CR2_OIS2N;
 2856              		.loc 1 800 0
 2857 0244 BB89     		ldrh	r3, [r7, #12]	@ movhi
 2858 0246 23F40063 		bic	r3, r3, #2048
 2859 024a BB81     		strh	r3, [r7, #12]	@ movhi
 801:lib/chip/STM32F4xx_StdPeriph_Driver/src/stm32f4xx_tim.c ****     /* Set the Output Idle state */
 802:lib/chip/STM32F4xx_StdPeriph_Driver/src/stm32f4xx_tim.c ****     tmpcr2 |= (uint16_t)(TIM_OCInitStruct->TIM_OCIdleState << 2);
 2860              		.loc 1 802 0
 2861 024c 3B68     		ldr	r3, [r7]
 2862 024e 1B8A     		ldrh	r3, [r3, #16]
 2863 0250 9B00     		lsls	r3, r3, #2
 2864 0252 9AB2     		uxth	r2, r3
 2865 0254 BB89     		ldrh	r3, [r7, #12]	@ movhi
 2866 0256 1343     		orrs	r3, r3, r2
 2867 0258 BB81     		strh	r3, [r7, #12]	@ movhi
 803:lib/chip/STM32F4xx_StdPeriph_Driver/src/stm32f4xx_tim.c ****     /* Set the Output N Idle state */
 804:lib/chip/STM32F4xx_StdPeriph_Driver/src/stm32f4xx_tim.c ****     tmpcr2 |= (uint16_t)(TIM_OCInitStruct->TIM_OCNIdleState << 2);
 2868              		.loc 1 804 0
 2869 025a 3B68     		ldr	r3, [r7]
 2870 025c 5B8A     		ldrh	r3, [r3, #18]
 2871 025e 9B00     		lsls	r3, r3, #2
 2872 0260 9AB2     		uxth	r2, r3
 2873 0262 BB89     		ldrh	r3, [r7, #12]	@ movhi
 2874 0264 1343     		orrs	r3, r3, r2
 2875 0266 BB81     		strh	r3, [r7, #12]	@ movhi
 2876              	.L86:
 805:lib/chip/STM32F4xx_StdPeriph_Driver/src/stm32f4xx_tim.c ****   }
 806:lib/chip/STM32F4xx_StdPeriph_Driver/src/stm32f4xx_tim.c ****   /* Write to TIMx CR2 */
 807:lib/chip/STM32F4xx_StdPeriph_Driver/src/stm32f4xx_tim.c ****   TIMx->CR2 = tmpcr2;
 2877              		.loc 1 807 0
 2878 0268 7B68     		ldr	r3, [r7, #4]
 2879 026a BA89     		ldrh	r2, [r7, #12]	@ movhi
 2880 026c 9A80     		strh	r2, [r3, #4]	@ movhi
 808:lib/chip/STM32F4xx_StdPeriph_Driver/src/stm32f4xx_tim.c ****   
 809:lib/chip/STM32F4xx_StdPeriph_Driver/src/stm32f4xx_tim.c ****   /* Write to TIMx CCMR1 */
 810:lib/chip/STM32F4xx_StdPeriph_Driver/src/stm32f4xx_tim.c ****   TIMx->CCMR1 = tmpccmrx;
 2881              		.loc 1 810 0
 2882 026e 7B68     		ldr	r3, [r7, #4]
 2883 0270 7A89     		ldrh	r2, [r7, #10]	@ movhi
 2884 0272 1A83     		strh	r2, [r3, #24]	@ movhi
 811:lib/chip/STM32F4xx_StdPeriph_Driver/src/stm32f4xx_tim.c ****   
 812:lib/chip/STM32F4xx_StdPeriph_Driver/src/stm32f4xx_tim.c ****   /* Set the Capture Compare Register value */
 813:lib/chip/STM32F4xx_StdPeriph_Driver/src/stm32f4xx_tim.c ****   TIMx->CCR2 = TIM_OCInitStruct->TIM_Pulse;
 2885              		.loc 1 813 0
 2886 0274 3B68     		ldr	r3, [r7]
 2887 0276 9A68     		ldr	r2, [r3, #8]
 2888 0278 7B68     		ldr	r3, [r7, #4]
 2889 027a 9A63     		str	r2, [r3, #56]
 814:lib/chip/STM32F4xx_StdPeriph_Driver/src/stm32f4xx_tim.c ****   
 815:lib/chip/STM32F4xx_StdPeriph_Driver/src/stm32f4xx_tim.c ****   /* Write to TIMx CCER */
 816:lib/chip/STM32F4xx_StdPeriph_Driver/src/stm32f4xx_tim.c ****   TIMx->CCER = tmpccer;
 2890              		.loc 1 816 0
 2891 027c 7B68     		ldr	r3, [r7, #4]
 2892 027e FA89     		ldrh	r2, [r7, #14]	@ movhi
 2893 0280 1A84     		strh	r2, [r3, #32]	@ movhi
 817:lib/chip/STM32F4xx_StdPeriph_Driver/src/stm32f4xx_tim.c **** }
 2894              		.loc 1 817 0
 2895 0282 1037     		adds	r7, r7, #16
 2896 0284 BD46     		mov	sp, r7
 2897              		@ sp needed
 2898 0286 80BD     		pop	{r7, pc}
 2899              		.cfi_endproc
 2900              	.LFE126:
 2902              		.section	.text.TIM_OC3Init,"ax",%progbits
 2903              		.align	2
 2904              		.global	TIM_OC3Init
 2905              		.thumb
 2906              		.thumb_func
 2908              	TIM_OC3Init:
 2909              	.LFB127:
 818:lib/chip/STM32F4xx_StdPeriph_Driver/src/stm32f4xx_tim.c **** 
 819:lib/chip/STM32F4xx_StdPeriph_Driver/src/stm32f4xx_tim.c **** /**
 820:lib/chip/STM32F4xx_StdPeriph_Driver/src/stm32f4xx_tim.c ****   * @brief  Initializes the TIMx Channel3 according to the specified parameters
 821:lib/chip/STM32F4xx_StdPeriph_Driver/src/stm32f4xx_tim.c ****   *         in the TIM_OCInitStruct.
 822:lib/chip/STM32F4xx_StdPeriph_Driver/src/stm32f4xx_tim.c ****   * @param  TIMx: where x can be 1, 2, 3, 4, 5 or 8 to select the TIM peripheral.
 823:lib/chip/STM32F4xx_StdPeriph_Driver/src/stm32f4xx_tim.c ****   * @param  TIM_OCInitStruct: pointer to a TIM_OCInitTypeDef structure that contains
 824:lib/chip/STM32F4xx_StdPeriph_Driver/src/stm32f4xx_tim.c ****   *         the configuration information for the specified TIM peripheral.
 825:lib/chip/STM32F4xx_StdPeriph_Driver/src/stm32f4xx_tim.c ****   * @retval None
 826:lib/chip/STM32F4xx_StdPeriph_Driver/src/stm32f4xx_tim.c ****   */
 827:lib/chip/STM32F4xx_StdPeriph_Driver/src/stm32f4xx_tim.c **** void TIM_OC3Init(TIM_TypeDef* TIMx, TIM_OCInitTypeDef* TIM_OCInitStruct)
 828:lib/chip/STM32F4xx_StdPeriph_Driver/src/stm32f4xx_tim.c **** {
 2910              		.loc 1 828 0
 2911              		.cfi_startproc
 2912              		@ args = 0, pretend = 0, frame = 16
 2913              		@ frame_needed = 1, uses_anonymous_args = 0
 2914 0000 80B5     		push	{r7, lr}
 2915              	.LCFI51:
 2916              		.cfi_def_cfa_offset 8
 2917              		.cfi_offset 7, -8
 2918              		.cfi_offset 14, -4
 2919 0002 84B0     		sub	sp, sp, #16
 2920              	.LCFI52:
 2921              		.cfi_def_cfa_offset 24
 2922 0004 00AF     		add	r7, sp, #0
 2923              	.LCFI53:
 2924              		.cfi_def_cfa_register 7
 2925 0006 7860     		str	r0, [r7, #4]
 2926 0008 3960     		str	r1, [r7]
 829:lib/chip/STM32F4xx_StdPeriph_Driver/src/stm32f4xx_tim.c ****   uint16_t tmpccmrx = 0, tmpccer = 0, tmpcr2 = 0;
 2927              		.loc 1 829 0
 2928 000a 0023     		movs	r3, #0
 2929 000c 7B81     		strh	r3, [r7, #10]	@ movhi
 2930 000e 0023     		movs	r3, #0
 2931 0010 FB81     		strh	r3, [r7, #14]	@ movhi
 2932 0012 0023     		movs	r3, #0
 2933 0014 BB81     		strh	r3, [r7, #12]	@ movhi
 830:lib/chip/STM32F4xx_StdPeriph_Driver/src/stm32f4xx_tim.c ****    
 831:lib/chip/STM32F4xx_StdPeriph_Driver/src/stm32f4xx_tim.c ****   /* Check the parameters */
 832:lib/chip/STM32F4xx_StdPeriph_Driver/src/stm32f4xx_tim.c ****   assert_param(IS_TIM_LIST3_PERIPH(TIMx)); 
 2934              		.loc 1 832 0
 2935 0016 7A68     		ldr	r2, [r7, #4]
 2936 0018 0023     		movs	r3, #0
 2937 001a C4F20103 		movt	r3, 16385
 2938 001e 9A42     		cmp	r2, r3
 2939 0020 27D0     		beq	.L92
 2940              		.loc 1 832 0 is_stmt 0 discriminator 1
 2941 0022 7B68     		ldr	r3, [r7, #4]
 2942 0024 B3F1804F 		cmp	r3, #1073741824
 2943 0028 23D0     		beq	.L92
 2944 002a 7A68     		ldr	r2, [r7, #4]
 2945 002c 4FF48063 		mov	r3, #1024
 2946 0030 C4F20003 		movt	r3, 16384
 2947 0034 9A42     		cmp	r2, r3
 2948 0036 1CD0     		beq	.L92
 2949 0038 7A68     		ldr	r2, [r7, #4]
 2950 003a 4FF40063 		mov	r3, #2048
 2951 003e C4F20003 		movt	r3, 16384
 2952 0042 9A42     		cmp	r2, r3
 2953 0044 15D0     		beq	.L92
 2954 0046 7A68     		ldr	r2, [r7, #4]
 2955 0048 4FF44063 		mov	r3, #3072
 2956 004c C4F20003 		movt	r3, 16384
 2957 0050 9A42     		cmp	r2, r3
 2958 0052 0ED0     		beq	.L92
 2959 0054 7A68     		ldr	r2, [r7, #4]
 2960 0056 4FF48063 		mov	r3, #1024
 2961 005a C4F20103 		movt	r3, 16385
 2962 005e 9A42     		cmp	r2, r3
 2963 0060 07D0     		beq	.L92
 2964 0062 40F20000 		movw	r0, #:lower16:.LC0
 2965 0066 C0F20000 		movt	r0, #:upper16:.LC0
 2966 006a 4FF45071 		mov	r1, #832
 2967 006e FFF7FEFF 		bl	assert_failed
 2968              	.L92:
 833:lib/chip/STM32F4xx_StdPeriph_Driver/src/stm32f4xx_tim.c ****   assert_param(IS_TIM_OC_MODE(TIM_OCInitStruct->TIM_OCMode));
 2969              		.loc 1 833 0 is_stmt 1
 2970 0072 3B68     		ldr	r3, [r7]
 2971 0074 1B88     		ldrh	r3, [r3]
 2972 0076 002B     		cmp	r3, #0
 2973 0078 1BD0     		beq	.L93
 2974              		.loc 1 833 0 is_stmt 0 discriminator 1
 2975 007a 3B68     		ldr	r3, [r7]
 2976 007c 1B88     		ldrh	r3, [r3]
 2977 007e 102B     		cmp	r3, #16
 2978 0080 17D0     		beq	.L93
 2979 0082 3B68     		ldr	r3, [r7]
 2980 0084 1B88     		ldrh	r3, [r3]
 2981 0086 202B     		cmp	r3, #32
 2982 0088 13D0     		beq	.L93
 2983 008a 3B68     		ldr	r3, [r7]
 2984 008c 1B88     		ldrh	r3, [r3]
 2985 008e 302B     		cmp	r3, #48
 2986 0090 0FD0     		beq	.L93
 2987 0092 3B68     		ldr	r3, [r7]
 2988 0094 1B88     		ldrh	r3, [r3]
 2989 0096 602B     		cmp	r3, #96
 2990 0098 0BD0     		beq	.L93
 2991 009a 3B68     		ldr	r3, [r7]
 2992 009c 1B88     		ldrh	r3, [r3]
 2993 009e 702B     		cmp	r3, #112
 2994 00a0 07D0     		beq	.L93
 2995 00a2 40F20000 		movw	r0, #:lower16:.LC0
 2996 00a6 C0F20000 		movt	r0, #:upper16:.LC0
 2997 00aa 40F24131 		movw	r1, #833
 2998 00ae FFF7FEFF 		bl	assert_failed
 2999              	.L93:
 834:lib/chip/STM32F4xx_StdPeriph_Driver/src/stm32f4xx_tim.c ****   assert_param(IS_TIM_OUTPUT_STATE(TIM_OCInitStruct->TIM_OutputState));
 3000              		.loc 1 834 0 is_stmt 1
 3001 00b2 3B68     		ldr	r3, [r7]
 3002 00b4 5B88     		ldrh	r3, [r3, #2]
 3003 00b6 002B     		cmp	r3, #0
 3004 00b8 0BD0     		beq	.L94
 3005              		.loc 1 834 0 is_stmt 0 discriminator 1
 3006 00ba 3B68     		ldr	r3, [r7]
 3007 00bc 5B88     		ldrh	r3, [r3, #2]
 3008 00be 012B     		cmp	r3, #1
 3009 00c0 07D0     		beq	.L94
 3010 00c2 40F20000 		movw	r0, #:lower16:.LC0
 3011 00c6 C0F20000 		movt	r0, #:upper16:.LC0
 3012 00ca 40F24231 		movw	r1, #834
 3013 00ce FFF7FEFF 		bl	assert_failed
 3014              	.L94:
 835:lib/chip/STM32F4xx_StdPeriph_Driver/src/stm32f4xx_tim.c ****   assert_param(IS_TIM_OC_POLARITY(TIM_OCInitStruct->TIM_OCPolarity));   
 3015              		.loc 1 835 0 is_stmt 1
 3016 00d2 3B68     		ldr	r3, [r7]
 3017 00d4 9B89     		ldrh	r3, [r3, #12]
 3018 00d6 002B     		cmp	r3, #0
 3019 00d8 0BD0     		beq	.L95
 3020              		.loc 1 835 0 is_stmt 0 discriminator 1
 3021 00da 3B68     		ldr	r3, [r7]
 3022 00dc 9B89     		ldrh	r3, [r3, #12]
 3023 00de 022B     		cmp	r3, #2
 3024 00e0 07D0     		beq	.L95
 3025 00e2 40F20000 		movw	r0, #:lower16:.LC0
 3026 00e6 C0F20000 		movt	r0, #:upper16:.LC0
 3027 00ea 40F24331 		movw	r1, #835
 3028 00ee FFF7FEFF 		bl	assert_failed
 3029              	.L95:
 836:lib/chip/STM32F4xx_StdPeriph_Driver/src/stm32f4xx_tim.c **** 
 837:lib/chip/STM32F4xx_StdPeriph_Driver/src/stm32f4xx_tim.c ****   /* Disable the Channel 3: Reset the CC2E Bit */
 838:lib/chip/STM32F4xx_StdPeriph_Driver/src/stm32f4xx_tim.c ****   TIMx->CCER &= (uint16_t)~TIM_CCER_CC3E;
 3030              		.loc 1 838 0 is_stmt 1
 3031 00f2 7B68     		ldr	r3, [r7, #4]
 3032 00f4 1B8C     		ldrh	r3, [r3, #32]	@ movhi
 3033 00f6 9BB2     		uxth	r3, r3
 3034 00f8 23F48073 		bic	r3, r3, #256
 3035 00fc 9AB2     		uxth	r2, r3
 3036 00fe 7B68     		ldr	r3, [r7, #4]
 3037 0100 1A84     		strh	r2, [r3, #32]	@ movhi
 839:lib/chip/STM32F4xx_StdPeriph_Driver/src/stm32f4xx_tim.c ****   
 840:lib/chip/STM32F4xx_StdPeriph_Driver/src/stm32f4xx_tim.c ****   /* Get the TIMx CCER register value */
 841:lib/chip/STM32F4xx_StdPeriph_Driver/src/stm32f4xx_tim.c ****   tmpccer = TIMx->CCER;
 3038              		.loc 1 841 0
 3039 0102 7B68     		ldr	r3, [r7, #4]
 3040 0104 1B8C     		ldrh	r3, [r3, #32]	@ movhi
 3041 0106 FB81     		strh	r3, [r7, #14]	@ movhi
 842:lib/chip/STM32F4xx_StdPeriph_Driver/src/stm32f4xx_tim.c ****   /* Get the TIMx CR2 register value */
 843:lib/chip/STM32F4xx_StdPeriph_Driver/src/stm32f4xx_tim.c ****   tmpcr2 =  TIMx->CR2;
 3042              		.loc 1 843 0
 3043 0108 7B68     		ldr	r3, [r7, #4]
 3044 010a 9B88     		ldrh	r3, [r3, #4]	@ movhi
 3045 010c BB81     		strh	r3, [r7, #12]	@ movhi
 844:lib/chip/STM32F4xx_StdPeriph_Driver/src/stm32f4xx_tim.c ****   
 845:lib/chip/STM32F4xx_StdPeriph_Driver/src/stm32f4xx_tim.c ****   /* Get the TIMx CCMR2 register value */
 846:lib/chip/STM32F4xx_StdPeriph_Driver/src/stm32f4xx_tim.c ****   tmpccmrx = TIMx->CCMR2;
 3046              		.loc 1 846 0
 3047 010e 7B68     		ldr	r3, [r7, #4]
 3048 0110 9B8B     		ldrh	r3, [r3, #28]	@ movhi
 3049 0112 7B81     		strh	r3, [r7, #10]	@ movhi
 847:lib/chip/STM32F4xx_StdPeriph_Driver/src/stm32f4xx_tim.c ****     
 848:lib/chip/STM32F4xx_StdPeriph_Driver/src/stm32f4xx_tim.c ****   /* Reset the Output Compare mode and Capture/Compare selection Bits */
 849:lib/chip/STM32F4xx_StdPeriph_Driver/src/stm32f4xx_tim.c ****   tmpccmrx &= (uint16_t)~TIM_CCMR2_OC3M;
 3050              		.loc 1 849 0
 3051 0114 7B89     		ldrh	r3, [r7, #10]	@ movhi
 3052 0116 23F07003 		bic	r3, r3, #112
 3053 011a 7B81     		strh	r3, [r7, #10]	@ movhi
 850:lib/chip/STM32F4xx_StdPeriph_Driver/src/stm32f4xx_tim.c ****   tmpccmrx &= (uint16_t)~TIM_CCMR2_CC3S;  
 3054              		.loc 1 850 0
 3055 011c 7B89     		ldrh	r3, [r7, #10]	@ movhi
 3056 011e 23F00303 		bic	r3, r3, #3
 3057 0122 7B81     		strh	r3, [r7, #10]	@ movhi
 851:lib/chip/STM32F4xx_StdPeriph_Driver/src/stm32f4xx_tim.c ****   /* Select the Output Compare Mode */
 852:lib/chip/STM32F4xx_StdPeriph_Driver/src/stm32f4xx_tim.c ****   tmpccmrx |= TIM_OCInitStruct->TIM_OCMode;
 3058              		.loc 1 852 0
 3059 0124 3B68     		ldr	r3, [r7]
 3060 0126 1A88     		ldrh	r2, [r3]
 3061 0128 7B89     		ldrh	r3, [r7, #10]	@ movhi
 3062 012a 1343     		orrs	r3, r3, r2
 3063 012c 7B81     		strh	r3, [r7, #10]	@ movhi
 853:lib/chip/STM32F4xx_StdPeriph_Driver/src/stm32f4xx_tim.c ****   
 854:lib/chip/STM32F4xx_StdPeriph_Driver/src/stm32f4xx_tim.c ****   /* Reset the Output Polarity level */
 855:lib/chip/STM32F4xx_StdPeriph_Driver/src/stm32f4xx_tim.c ****   tmpccer &= (uint16_t)~TIM_CCER_CC3P;
 3064              		.loc 1 855 0
 3065 012e FB89     		ldrh	r3, [r7, #14]	@ movhi
 3066 0130 23F40073 		bic	r3, r3, #512
 3067 0134 FB81     		strh	r3, [r7, #14]	@ movhi
 856:lib/chip/STM32F4xx_StdPeriph_Driver/src/stm32f4xx_tim.c ****   /* Set the Output Compare Polarity */
 857:lib/chip/STM32F4xx_StdPeriph_Driver/src/stm32f4xx_tim.c ****   tmpccer |= (uint16_t)(TIM_OCInitStruct->TIM_OCPolarity << 8);
 3068              		.loc 1 857 0
 3069 0136 3B68     		ldr	r3, [r7]
 3070 0138 9B89     		ldrh	r3, [r3, #12]
 3071 013a 1B02     		lsls	r3, r3, #8
 3072 013c 9AB2     		uxth	r2, r3
 3073 013e FB89     		ldrh	r3, [r7, #14]	@ movhi
 3074 0140 1343     		orrs	r3, r3, r2
 3075 0142 FB81     		strh	r3, [r7, #14]	@ movhi
 858:lib/chip/STM32F4xx_StdPeriph_Driver/src/stm32f4xx_tim.c ****   
 859:lib/chip/STM32F4xx_StdPeriph_Driver/src/stm32f4xx_tim.c ****   /* Set the Output State */
 860:lib/chip/STM32F4xx_StdPeriph_Driver/src/stm32f4xx_tim.c ****   tmpccer |= (uint16_t)(TIM_OCInitStruct->TIM_OutputState << 8);
 3076              		.loc 1 860 0
 3077 0144 3B68     		ldr	r3, [r7]
 3078 0146 5B88     		ldrh	r3, [r3, #2]
 3079 0148 1B02     		lsls	r3, r3, #8
 3080 014a 9AB2     		uxth	r2, r3
 3081 014c FB89     		ldrh	r3, [r7, #14]	@ movhi
 3082 014e 1343     		orrs	r3, r3, r2
 3083 0150 FB81     		strh	r3, [r7, #14]	@ movhi
 861:lib/chip/STM32F4xx_StdPeriph_Driver/src/stm32f4xx_tim.c ****     
 862:lib/chip/STM32F4xx_StdPeriph_Driver/src/stm32f4xx_tim.c ****   if((TIMx == TIM1) || (TIMx == TIM8))
 3084              		.loc 1 862 0
 3085 0152 7A68     		ldr	r2, [r7, #4]
 3086 0154 0023     		movs	r3, #0
 3087 0156 C4F20103 		movt	r3, 16385
 3088 015a 9A42     		cmp	r2, r3
 3089 015c 06D0     		beq	.L96
 3090              		.loc 1 862 0 is_stmt 0 discriminator 1
 3091 015e 7A68     		ldr	r2, [r7, #4]
 3092 0160 4FF48063 		mov	r3, #1024
 3093 0164 C4F20103 		movt	r3, 16385
 3094 0168 9A42     		cmp	r2, r3
 3095 016a 6DD1     		bne	.L97
 3096              	.L96:
 863:lib/chip/STM32F4xx_StdPeriph_Driver/src/stm32f4xx_tim.c ****   {
 864:lib/chip/STM32F4xx_StdPeriph_Driver/src/stm32f4xx_tim.c ****     assert_param(IS_TIM_OUTPUTN_STATE(TIM_OCInitStruct->TIM_OutputNState));
 3097              		.loc 1 864 0 is_stmt 1
 3098 016c 3B68     		ldr	r3, [r7]
 3099 016e 9B88     		ldrh	r3, [r3, #4]
 3100 0170 002B     		cmp	r3, #0
 3101 0172 0BD0     		beq	.L98
 3102              		.loc 1 864 0 is_stmt 0 discriminator 1
 3103 0174 3B68     		ldr	r3, [r7]
 3104 0176 9B88     		ldrh	r3, [r3, #4]
 3105 0178 042B     		cmp	r3, #4
 3106 017a 07D0     		beq	.L98
 3107 017c 40F20000 		movw	r0, #:lower16:.LC0
 3108 0180 C0F20000 		movt	r0, #:upper16:.LC0
 3109 0184 4FF45871 		mov	r1, #864
 3110 0188 FFF7FEFF 		bl	assert_failed
 3111              	.L98:
 865:lib/chip/STM32F4xx_StdPeriph_Driver/src/stm32f4xx_tim.c ****     assert_param(IS_TIM_OCN_POLARITY(TIM_OCInitStruct->TIM_OCNPolarity));
 3112              		.loc 1 865 0 is_stmt 1
 3113 018c 3B68     		ldr	r3, [r7]
 3114 018e DB89     		ldrh	r3, [r3, #14]
 3115 0190 002B     		cmp	r3, #0
 3116 0192 0BD0     		beq	.L99
 3117              		.loc 1 865 0 is_stmt 0 discriminator 1
 3118 0194 3B68     		ldr	r3, [r7]
 3119 0196 DB89     		ldrh	r3, [r3, #14]
 3120 0198 082B     		cmp	r3, #8
 3121 019a 07D0     		beq	.L99
 3122 019c 40F20000 		movw	r0, #:lower16:.LC0
 3123 01a0 C0F20000 		movt	r0, #:upper16:.LC0
 3124 01a4 40F26131 		movw	r1, #865
 3125 01a8 FFF7FEFF 		bl	assert_failed
 3126              	.L99:
 866:lib/chip/STM32F4xx_StdPeriph_Driver/src/stm32f4xx_tim.c ****     assert_param(IS_TIM_OCNIDLE_STATE(TIM_OCInitStruct->TIM_OCNIdleState));
 3127              		.loc 1 866 0 is_stmt 1
 3128 01ac 3B68     		ldr	r3, [r7]
 3129 01ae 5B8A     		ldrh	r3, [r3, #18]
 3130 01b0 B3F5007F 		cmp	r3, #512
 3131 01b4 0BD0     		beq	.L100
 3132              		.loc 1 866 0 is_stmt 0 discriminator 1
 3133 01b6 3B68     		ldr	r3, [r7]
 3134 01b8 5B8A     		ldrh	r3, [r3, #18]
 3135 01ba 002B     		cmp	r3, #0
 3136 01bc 07D0     		beq	.L100
 3137 01be 40F20000 		movw	r0, #:lower16:.LC0
 3138 01c2 C0F20000 		movt	r0, #:upper16:.LC0
 3139 01c6 40F26231 		movw	r1, #866
 3140 01ca FFF7FEFF 		bl	assert_failed
 3141              	.L100:
 867:lib/chip/STM32F4xx_StdPeriph_Driver/src/stm32f4xx_tim.c ****     assert_param(IS_TIM_OCIDLE_STATE(TIM_OCInitStruct->TIM_OCIdleState));
 3142              		.loc 1 867 0 is_stmt 1
 3143 01ce 3B68     		ldr	r3, [r7]
 3144 01d0 1B8A     		ldrh	r3, [r3, #16]
 3145 01d2 B3F5807F 		cmp	r3, #256
 3146 01d6 0BD0     		beq	.L101
 3147              		.loc 1 867 0 is_stmt 0 discriminator 1
 3148 01d8 3B68     		ldr	r3, [r7]
 3149 01da 1B8A     		ldrh	r3, [r3, #16]
 3150 01dc 002B     		cmp	r3, #0
 3151 01de 07D0     		beq	.L101
 3152 01e0 40F20000 		movw	r0, #:lower16:.LC0
 3153 01e4 C0F20000 		movt	r0, #:upper16:.LC0
 3154 01e8 40F26331 		movw	r1, #867
 3155 01ec FFF7FEFF 		bl	assert_failed
 3156              	.L101:
 868:lib/chip/STM32F4xx_StdPeriph_Driver/src/stm32f4xx_tim.c ****     
 869:lib/chip/STM32F4xx_StdPeriph_Driver/src/stm32f4xx_tim.c ****     /* Reset the Output N Polarity level */
 870:lib/chip/STM32F4xx_StdPeriph_Driver/src/stm32f4xx_tim.c ****     tmpccer &= (uint16_t)~TIM_CCER_CC3NP;
 3157              		.loc 1 870 0 is_stmt 1
 3158 01f0 FB89     		ldrh	r3, [r7, #14]	@ movhi
 3159 01f2 23F40063 		bic	r3, r3, #2048
 3160 01f6 FB81     		strh	r3, [r7, #14]	@ movhi
 871:lib/chip/STM32F4xx_StdPeriph_Driver/src/stm32f4xx_tim.c ****     /* Set the Output N Polarity */
 872:lib/chip/STM32F4xx_StdPeriph_Driver/src/stm32f4xx_tim.c ****     tmpccer |= (uint16_t)(TIM_OCInitStruct->TIM_OCNPolarity << 8);
 3161              		.loc 1 872 0
 3162 01f8 3B68     		ldr	r3, [r7]
 3163 01fa DB89     		ldrh	r3, [r3, #14]
 3164 01fc 1B02     		lsls	r3, r3, #8
 3165 01fe 9AB2     		uxth	r2, r3
 3166 0200 FB89     		ldrh	r3, [r7, #14]	@ movhi
 3167 0202 1343     		orrs	r3, r3, r2
 3168 0204 FB81     		strh	r3, [r7, #14]	@ movhi
 873:lib/chip/STM32F4xx_StdPeriph_Driver/src/stm32f4xx_tim.c ****     /* Reset the Output N State */
 874:lib/chip/STM32F4xx_StdPeriph_Driver/src/stm32f4xx_tim.c ****     tmpccer &= (uint16_t)~TIM_CCER_CC3NE;
 3169              		.loc 1 874 0
 3170 0206 FB89     		ldrh	r3, [r7, #14]	@ movhi
 3171 0208 23F48063 		bic	r3, r3, #1024
 3172 020c FB81     		strh	r3, [r7, #14]	@ movhi
 875:lib/chip/STM32F4xx_StdPeriph_Driver/src/stm32f4xx_tim.c ****     
 876:lib/chip/STM32F4xx_StdPeriph_Driver/src/stm32f4xx_tim.c ****     /* Set the Output N State */
 877:lib/chip/STM32F4xx_StdPeriph_Driver/src/stm32f4xx_tim.c ****     tmpccer |= (uint16_t)(TIM_OCInitStruct->TIM_OutputNState << 8);
 3173              		.loc 1 877 0
 3174 020e 3B68     		ldr	r3, [r7]
 3175 0210 9B88     		ldrh	r3, [r3, #4]
 3176 0212 1B02     		lsls	r3, r3, #8
 3177 0214 9AB2     		uxth	r2, r3
 3178 0216 FB89     		ldrh	r3, [r7, #14]	@ movhi
 3179 0218 1343     		orrs	r3, r3, r2
 3180 021a FB81     		strh	r3, [r7, #14]	@ movhi
 878:lib/chip/STM32F4xx_StdPeriph_Driver/src/stm32f4xx_tim.c ****     /* Reset the Output Compare and Output Compare N IDLE State */
 879:lib/chip/STM32F4xx_StdPeriph_Driver/src/stm32f4xx_tim.c ****     tmpcr2 &= (uint16_t)~TIM_CR2_OIS3;
 3181              		.loc 1 879 0
 3182 021c BB89     		ldrh	r3, [r7, #12]	@ movhi
 3183 021e 23F48053 		bic	r3, r3, #4096
 3184 0222 BB81     		strh	r3, [r7, #12]	@ movhi
 880:lib/chip/STM32F4xx_StdPeriph_Driver/src/stm32f4xx_tim.c ****     tmpcr2 &= (uint16_t)~TIM_CR2_OIS3N;
 3185              		.loc 1 880 0
 3186 0224 BB89     		ldrh	r3, [r7, #12]	@ movhi
 3187 0226 23F40053 		bic	r3, r3, #8192
 3188 022a BB81     		strh	r3, [r7, #12]	@ movhi
 881:lib/chip/STM32F4xx_StdPeriph_Driver/src/stm32f4xx_tim.c ****     /* Set the Output Idle state */
 882:lib/chip/STM32F4xx_StdPeriph_Driver/src/stm32f4xx_tim.c ****     tmpcr2 |= (uint16_t)(TIM_OCInitStruct->TIM_OCIdleState << 4);
 3189              		.loc 1 882 0
 3190 022c 3B68     		ldr	r3, [r7]
 3191 022e 1B8A     		ldrh	r3, [r3, #16]
 3192 0230 1B01     		lsls	r3, r3, #4
 3193 0232 9AB2     		uxth	r2, r3
 3194 0234 BB89     		ldrh	r3, [r7, #12]	@ movhi
 3195 0236 1343     		orrs	r3, r3, r2
 3196 0238 BB81     		strh	r3, [r7, #12]	@ movhi
 883:lib/chip/STM32F4xx_StdPeriph_Driver/src/stm32f4xx_tim.c ****     /* Set the Output N Idle state */
 884:lib/chip/STM32F4xx_StdPeriph_Driver/src/stm32f4xx_tim.c ****     tmpcr2 |= (uint16_t)(TIM_OCInitStruct->TIM_OCNIdleState << 4);
 3197              		.loc 1 884 0
 3198 023a 3B68     		ldr	r3, [r7]
 3199 023c 5B8A     		ldrh	r3, [r3, #18]
 3200 023e 1B01     		lsls	r3, r3, #4
 3201 0240 9AB2     		uxth	r2, r3
 3202 0242 BB89     		ldrh	r3, [r7, #12]	@ movhi
 3203 0244 1343     		orrs	r3, r3, r2
 3204 0246 BB81     		strh	r3, [r7, #12]	@ movhi
 3205              	.L97:
 885:lib/chip/STM32F4xx_StdPeriph_Driver/src/stm32f4xx_tim.c ****   }
 886:lib/chip/STM32F4xx_StdPeriph_Driver/src/stm32f4xx_tim.c ****   /* Write to TIMx CR2 */
 887:lib/chip/STM32F4xx_StdPeriph_Driver/src/stm32f4xx_tim.c ****   TIMx->CR2 = tmpcr2;
 3206              		.loc 1 887 0
 3207 0248 7B68     		ldr	r3, [r7, #4]
 3208 024a BA89     		ldrh	r2, [r7, #12]	@ movhi
 3209 024c 9A80     		strh	r2, [r3, #4]	@ movhi
 888:lib/chip/STM32F4xx_StdPeriph_Driver/src/stm32f4xx_tim.c ****   
 889:lib/chip/STM32F4xx_StdPeriph_Driver/src/stm32f4xx_tim.c ****   /* Write to TIMx CCMR2 */
 890:lib/chip/STM32F4xx_StdPeriph_Driver/src/stm32f4xx_tim.c ****   TIMx->CCMR2 = tmpccmrx;
 3210              		.loc 1 890 0
 3211 024e 7B68     		ldr	r3, [r7, #4]
 3212 0250 7A89     		ldrh	r2, [r7, #10]	@ movhi
 3213 0252 9A83     		strh	r2, [r3, #28]	@ movhi
 891:lib/chip/STM32F4xx_StdPeriph_Driver/src/stm32f4xx_tim.c ****   
 892:lib/chip/STM32F4xx_StdPeriph_Driver/src/stm32f4xx_tim.c ****   /* Set the Capture Compare Register value */
 893:lib/chip/STM32F4xx_StdPeriph_Driver/src/stm32f4xx_tim.c ****   TIMx->CCR3 = TIM_OCInitStruct->TIM_Pulse;
 3214              		.loc 1 893 0
 3215 0254 3B68     		ldr	r3, [r7]
 3216 0256 9A68     		ldr	r2, [r3, #8]
 3217 0258 7B68     		ldr	r3, [r7, #4]
 3218 025a DA63     		str	r2, [r3, #60]
 894:lib/chip/STM32F4xx_StdPeriph_Driver/src/stm32f4xx_tim.c ****   
 895:lib/chip/STM32F4xx_StdPeriph_Driver/src/stm32f4xx_tim.c ****   /* Write to TIMx CCER */
 896:lib/chip/STM32F4xx_StdPeriph_Driver/src/stm32f4xx_tim.c ****   TIMx->CCER = tmpccer;
 3219              		.loc 1 896 0
 3220 025c 7B68     		ldr	r3, [r7, #4]
 3221 025e FA89     		ldrh	r2, [r7, #14]	@ movhi
 3222 0260 1A84     		strh	r2, [r3, #32]	@ movhi
 897:lib/chip/STM32F4xx_StdPeriph_Driver/src/stm32f4xx_tim.c **** }
 3223              		.loc 1 897 0
 3224 0262 1037     		adds	r7, r7, #16
 3225 0264 BD46     		mov	sp, r7
 3226              		@ sp needed
 3227 0266 80BD     		pop	{r7, pc}
 3228              		.cfi_endproc
 3229              	.LFE127:
 3231              		.section	.text.TIM_OC4Init,"ax",%progbits
 3232              		.align	2
 3233              		.global	TIM_OC4Init
 3234              		.thumb
 3235              		.thumb_func
 3237              	TIM_OC4Init:
 3238              	.LFB128:
 898:lib/chip/STM32F4xx_StdPeriph_Driver/src/stm32f4xx_tim.c **** 
 899:lib/chip/STM32F4xx_StdPeriph_Driver/src/stm32f4xx_tim.c **** /**
 900:lib/chip/STM32F4xx_StdPeriph_Driver/src/stm32f4xx_tim.c ****   * @brief  Initializes the TIMx Channel4 according to the specified parameters
 901:lib/chip/STM32F4xx_StdPeriph_Driver/src/stm32f4xx_tim.c ****   *         in the TIM_OCInitStruct.
 902:lib/chip/STM32F4xx_StdPeriph_Driver/src/stm32f4xx_tim.c ****   * @param  TIMx: where x can be 1, 2, 3, 4, 5 or 8 to select the TIM peripheral.
 903:lib/chip/STM32F4xx_StdPeriph_Driver/src/stm32f4xx_tim.c ****   * @param  TIM_OCInitStruct: pointer to a TIM_OCInitTypeDef structure that contains
 904:lib/chip/STM32F4xx_StdPeriph_Driver/src/stm32f4xx_tim.c ****   *         the configuration information for the specified TIM peripheral.
 905:lib/chip/STM32F4xx_StdPeriph_Driver/src/stm32f4xx_tim.c ****   * @retval None
 906:lib/chip/STM32F4xx_StdPeriph_Driver/src/stm32f4xx_tim.c ****   */
 907:lib/chip/STM32F4xx_StdPeriph_Driver/src/stm32f4xx_tim.c **** void TIM_OC4Init(TIM_TypeDef* TIMx, TIM_OCInitTypeDef* TIM_OCInitStruct)
 908:lib/chip/STM32F4xx_StdPeriph_Driver/src/stm32f4xx_tim.c **** {
 3239              		.loc 1 908 0
 3240              		.cfi_startproc
 3241              		@ args = 0, pretend = 0, frame = 16
 3242              		@ frame_needed = 1, uses_anonymous_args = 0
 3243 0000 80B5     		push	{r7, lr}
 3244              	.LCFI54:
 3245              		.cfi_def_cfa_offset 8
 3246              		.cfi_offset 7, -8
 3247              		.cfi_offset 14, -4
 3248 0002 84B0     		sub	sp, sp, #16
 3249              	.LCFI55:
 3250              		.cfi_def_cfa_offset 24
 3251 0004 00AF     		add	r7, sp, #0
 3252              	.LCFI56:
 3253              		.cfi_def_cfa_register 7
 3254 0006 7860     		str	r0, [r7, #4]
 3255 0008 3960     		str	r1, [r7]
 909:lib/chip/STM32F4xx_StdPeriph_Driver/src/stm32f4xx_tim.c ****   uint16_t tmpccmrx = 0, tmpccer = 0, tmpcr2 = 0;
 3256              		.loc 1 909 0
 3257 000a 0023     		movs	r3, #0
 3258 000c BB81     		strh	r3, [r7, #12]	@ movhi
 3259 000e 0023     		movs	r3, #0
 3260 0010 7B81     		strh	r3, [r7, #10]	@ movhi
 3261 0012 0023     		movs	r3, #0
 3262 0014 FB81     		strh	r3, [r7, #14]	@ movhi
 910:lib/chip/STM32F4xx_StdPeriph_Driver/src/stm32f4xx_tim.c ****    
 911:lib/chip/STM32F4xx_StdPeriph_Driver/src/stm32f4xx_tim.c ****   /* Check the parameters */
 912:lib/chip/STM32F4xx_StdPeriph_Driver/src/stm32f4xx_tim.c ****   assert_param(IS_TIM_LIST3_PERIPH(TIMx)); 
 3263              		.loc 1 912 0
 3264 0016 7A68     		ldr	r2, [r7, #4]
 3265 0018 0023     		movs	r3, #0
 3266 001a C4F20103 		movt	r3, 16385
 3267 001e 9A42     		cmp	r2, r3
 3268 0020 27D0     		beq	.L103
 3269              		.loc 1 912 0 is_stmt 0 discriminator 1
 3270 0022 7B68     		ldr	r3, [r7, #4]
 3271 0024 B3F1804F 		cmp	r3, #1073741824
 3272 0028 23D0     		beq	.L103
 3273 002a 7A68     		ldr	r2, [r7, #4]
 3274 002c 4FF48063 		mov	r3, #1024
 3275 0030 C4F20003 		movt	r3, 16384
 3276 0034 9A42     		cmp	r2, r3
 3277 0036 1CD0     		beq	.L103
 3278 0038 7A68     		ldr	r2, [r7, #4]
 3279 003a 4FF40063 		mov	r3, #2048
 3280 003e C4F20003 		movt	r3, 16384
 3281 0042 9A42     		cmp	r2, r3
 3282 0044 15D0     		beq	.L103
 3283 0046 7A68     		ldr	r2, [r7, #4]
 3284 0048 4FF44063 		mov	r3, #3072
 3285 004c C4F20003 		movt	r3, 16384
 3286 0050 9A42     		cmp	r2, r3
 3287 0052 0ED0     		beq	.L103
 3288 0054 7A68     		ldr	r2, [r7, #4]
 3289 0056 4FF48063 		mov	r3, #1024
 3290 005a C4F20103 		movt	r3, 16385
 3291 005e 9A42     		cmp	r2, r3
 3292 0060 07D0     		beq	.L103
 3293 0062 40F20000 		movw	r0, #:lower16:.LC0
 3294 0066 C0F20000 		movt	r0, #:upper16:.LC0
 3295 006a 4FF46471 		mov	r1, #912
 3296 006e FFF7FEFF 		bl	assert_failed
 3297              	.L103:
 913:lib/chip/STM32F4xx_StdPeriph_Driver/src/stm32f4xx_tim.c ****   assert_param(IS_TIM_OC_MODE(TIM_OCInitStruct->TIM_OCMode));
 3298              		.loc 1 913 0 is_stmt 1
 3299 0072 3B68     		ldr	r3, [r7]
 3300 0074 1B88     		ldrh	r3, [r3]
 3301 0076 002B     		cmp	r3, #0
 3302 0078 1BD0     		beq	.L104
 3303              		.loc 1 913 0 is_stmt 0 discriminator 1
 3304 007a 3B68     		ldr	r3, [r7]
 3305 007c 1B88     		ldrh	r3, [r3]
 3306 007e 102B     		cmp	r3, #16
 3307 0080 17D0     		beq	.L104
 3308 0082 3B68     		ldr	r3, [r7]
 3309 0084 1B88     		ldrh	r3, [r3]
 3310 0086 202B     		cmp	r3, #32
 3311 0088 13D0     		beq	.L104
 3312 008a 3B68     		ldr	r3, [r7]
 3313 008c 1B88     		ldrh	r3, [r3]
 3314 008e 302B     		cmp	r3, #48
 3315 0090 0FD0     		beq	.L104
 3316 0092 3B68     		ldr	r3, [r7]
 3317 0094 1B88     		ldrh	r3, [r3]
 3318 0096 602B     		cmp	r3, #96
 3319 0098 0BD0     		beq	.L104
 3320 009a 3B68     		ldr	r3, [r7]
 3321 009c 1B88     		ldrh	r3, [r3]
 3322 009e 702B     		cmp	r3, #112
 3323 00a0 07D0     		beq	.L104
 3324 00a2 40F20000 		movw	r0, #:lower16:.LC0
 3325 00a6 C0F20000 		movt	r0, #:upper16:.LC0
 3326 00aa 40F29131 		movw	r1, #913
 3327 00ae FFF7FEFF 		bl	assert_failed
 3328              	.L104:
 914:lib/chip/STM32F4xx_StdPeriph_Driver/src/stm32f4xx_tim.c ****   assert_param(IS_TIM_OUTPUT_STATE(TIM_OCInitStruct->TIM_OutputState));
 3329              		.loc 1 914 0 is_stmt 1
 3330 00b2 3B68     		ldr	r3, [r7]
 3331 00b4 5B88     		ldrh	r3, [r3, #2]
 3332 00b6 002B     		cmp	r3, #0
 3333 00b8 0BD0     		beq	.L105
 3334              		.loc 1 914 0 is_stmt 0 discriminator 1
 3335 00ba 3B68     		ldr	r3, [r7]
 3336 00bc 5B88     		ldrh	r3, [r3, #2]
 3337 00be 012B     		cmp	r3, #1
 3338 00c0 07D0     		beq	.L105
 3339 00c2 40F20000 		movw	r0, #:lower16:.LC0
 3340 00c6 C0F20000 		movt	r0, #:upper16:.LC0
 3341 00ca 40F29231 		movw	r1, #914
 3342 00ce FFF7FEFF 		bl	assert_failed
 3343              	.L105:
 915:lib/chip/STM32F4xx_StdPeriph_Driver/src/stm32f4xx_tim.c ****   assert_param(IS_TIM_OC_POLARITY(TIM_OCInitStruct->TIM_OCPolarity));   
 3344              		.loc 1 915 0 is_stmt 1
 3345 00d2 3B68     		ldr	r3, [r7]
 3346 00d4 9B89     		ldrh	r3, [r3, #12]
 3347 00d6 002B     		cmp	r3, #0
 3348 00d8 0BD0     		beq	.L106
 3349              		.loc 1 915 0 is_stmt 0 discriminator 1
 3350 00da 3B68     		ldr	r3, [r7]
 3351 00dc 9B89     		ldrh	r3, [r3, #12]
 3352 00de 022B     		cmp	r3, #2
 3353 00e0 07D0     		beq	.L106
 3354 00e2 40F20000 		movw	r0, #:lower16:.LC0
 3355 00e6 C0F20000 		movt	r0, #:upper16:.LC0
 3356 00ea 40F29331 		movw	r1, #915
 3357 00ee FFF7FEFF 		bl	assert_failed
 3358              	.L106:
 916:lib/chip/STM32F4xx_StdPeriph_Driver/src/stm32f4xx_tim.c **** 
 917:lib/chip/STM32F4xx_StdPeriph_Driver/src/stm32f4xx_tim.c ****   /* Disable the Channel 4: Reset the CC4E Bit */
 918:lib/chip/STM32F4xx_StdPeriph_Driver/src/stm32f4xx_tim.c ****   TIMx->CCER &= (uint16_t)~TIM_CCER_CC4E;
 3359              		.loc 1 918 0 is_stmt 1
 3360 00f2 7B68     		ldr	r3, [r7, #4]
 3361 00f4 1B8C     		ldrh	r3, [r3, #32]	@ movhi
 3362 00f6 9BB2     		uxth	r3, r3
 3363 00f8 23F48053 		bic	r3, r3, #4096
 3364 00fc 9AB2     		uxth	r2, r3
 3365 00fe 7B68     		ldr	r3, [r7, #4]
 3366 0100 1A84     		strh	r2, [r3, #32]	@ movhi
 919:lib/chip/STM32F4xx_StdPeriph_Driver/src/stm32f4xx_tim.c ****   
 920:lib/chip/STM32F4xx_StdPeriph_Driver/src/stm32f4xx_tim.c ****   /* Get the TIMx CCER register value */
 921:lib/chip/STM32F4xx_StdPeriph_Driver/src/stm32f4xx_tim.c ****   tmpccer = TIMx->CCER;
 3367              		.loc 1 921 0
 3368 0102 7B68     		ldr	r3, [r7, #4]
 3369 0104 1B8C     		ldrh	r3, [r3, #32]	@ movhi
 3370 0106 7B81     		strh	r3, [r7, #10]	@ movhi
 922:lib/chip/STM32F4xx_StdPeriph_Driver/src/stm32f4xx_tim.c ****   /* Get the TIMx CR2 register value */
 923:lib/chip/STM32F4xx_StdPeriph_Driver/src/stm32f4xx_tim.c ****   tmpcr2 =  TIMx->CR2;
 3371              		.loc 1 923 0
 3372 0108 7B68     		ldr	r3, [r7, #4]
 3373 010a 9B88     		ldrh	r3, [r3, #4]	@ movhi
 3374 010c FB81     		strh	r3, [r7, #14]	@ movhi
 924:lib/chip/STM32F4xx_StdPeriph_Driver/src/stm32f4xx_tim.c ****   
 925:lib/chip/STM32F4xx_StdPeriph_Driver/src/stm32f4xx_tim.c ****   /* Get the TIMx CCMR2 register value */
 926:lib/chip/STM32F4xx_StdPeriph_Driver/src/stm32f4xx_tim.c ****   tmpccmrx = TIMx->CCMR2;
 3375              		.loc 1 926 0
 3376 010e 7B68     		ldr	r3, [r7, #4]
 3377 0110 9B8B     		ldrh	r3, [r3, #28]	@ movhi
 3378 0112 BB81     		strh	r3, [r7, #12]	@ movhi
 927:lib/chip/STM32F4xx_StdPeriph_Driver/src/stm32f4xx_tim.c ****     
 928:lib/chip/STM32F4xx_StdPeriph_Driver/src/stm32f4xx_tim.c ****   /* Reset the Output Compare mode and Capture/Compare selection Bits */
 929:lib/chip/STM32F4xx_StdPeriph_Driver/src/stm32f4xx_tim.c ****   tmpccmrx &= (uint16_t)~TIM_CCMR2_OC4M;
 3379              		.loc 1 929 0
 3380 0114 BB89     		ldrh	r3, [r7, #12]	@ movhi
 3381 0116 23F4E043 		bic	r3, r3, #28672
 3382 011a BB81     		strh	r3, [r7, #12]	@ movhi
 930:lib/chip/STM32F4xx_StdPeriph_Driver/src/stm32f4xx_tim.c ****   tmpccmrx &= (uint16_t)~TIM_CCMR2_CC4S;
 3383              		.loc 1 930 0
 3384 011c BB89     		ldrh	r3, [r7, #12]	@ movhi
 3385 011e 23F44073 		bic	r3, r3, #768
 3386 0122 BB81     		strh	r3, [r7, #12]	@ movhi
 931:lib/chip/STM32F4xx_StdPeriph_Driver/src/stm32f4xx_tim.c ****   
 932:lib/chip/STM32F4xx_StdPeriph_Driver/src/stm32f4xx_tim.c ****   /* Select the Output Compare Mode */
 933:lib/chip/STM32F4xx_StdPeriph_Driver/src/stm32f4xx_tim.c ****   tmpccmrx |= (uint16_t)(TIM_OCInitStruct->TIM_OCMode << 8);
 3387              		.loc 1 933 0
 3388 0124 3B68     		ldr	r3, [r7]
 3389 0126 1B88     		ldrh	r3, [r3]
 3390 0128 1B02     		lsls	r3, r3, #8
 3391 012a 9AB2     		uxth	r2, r3
 3392 012c BB89     		ldrh	r3, [r7, #12]	@ movhi
 3393 012e 1343     		orrs	r3, r3, r2
 3394 0130 BB81     		strh	r3, [r7, #12]	@ movhi
 934:lib/chip/STM32F4xx_StdPeriph_Driver/src/stm32f4xx_tim.c ****   
 935:lib/chip/STM32F4xx_StdPeriph_Driver/src/stm32f4xx_tim.c ****   /* Reset the Output Polarity level */
 936:lib/chip/STM32F4xx_StdPeriph_Driver/src/stm32f4xx_tim.c ****   tmpccer &= (uint16_t)~TIM_CCER_CC4P;
 3395              		.loc 1 936 0
 3396 0132 7B89     		ldrh	r3, [r7, #10]	@ movhi
 3397 0134 23F40053 		bic	r3, r3, #8192
 3398 0138 7B81     		strh	r3, [r7, #10]	@ movhi
 937:lib/chip/STM32F4xx_StdPeriph_Driver/src/stm32f4xx_tim.c ****   /* Set the Output Compare Polarity */
 938:lib/chip/STM32F4xx_StdPeriph_Driver/src/stm32f4xx_tim.c ****   tmpccer |= (uint16_t)(TIM_OCInitStruct->TIM_OCPolarity << 12);
 3399              		.loc 1 938 0
 3400 013a 3B68     		ldr	r3, [r7]
 3401 013c 9B89     		ldrh	r3, [r3, #12]
 3402 013e 1B03     		lsls	r3, r3, #12
 3403 0140 9AB2     		uxth	r2, r3
 3404 0142 7B89     		ldrh	r3, [r7, #10]	@ movhi
 3405 0144 1343     		orrs	r3, r3, r2
 3406 0146 7B81     		strh	r3, [r7, #10]	@ movhi
 939:lib/chip/STM32F4xx_StdPeriph_Driver/src/stm32f4xx_tim.c ****   
 940:lib/chip/STM32F4xx_StdPeriph_Driver/src/stm32f4xx_tim.c ****   /* Set the Output State */
 941:lib/chip/STM32F4xx_StdPeriph_Driver/src/stm32f4xx_tim.c ****   tmpccer |= (uint16_t)(TIM_OCInitStruct->TIM_OutputState << 12);
 3407              		.loc 1 941 0
 3408 0148 3B68     		ldr	r3, [r7]
 3409 014a 5B88     		ldrh	r3, [r3, #2]
 3410 014c 1B03     		lsls	r3, r3, #12
 3411 014e 9AB2     		uxth	r2, r3
 3412 0150 7B89     		ldrh	r3, [r7, #10]	@ movhi
 3413 0152 1343     		orrs	r3, r3, r2
 3414 0154 7B81     		strh	r3, [r7, #10]	@ movhi
 942:lib/chip/STM32F4xx_StdPeriph_Driver/src/stm32f4xx_tim.c ****   
 943:lib/chip/STM32F4xx_StdPeriph_Driver/src/stm32f4xx_tim.c ****   if((TIMx == TIM1) || (TIMx == TIM8))
 3415              		.loc 1 943 0
 3416 0156 7A68     		ldr	r2, [r7, #4]
 3417 0158 0023     		movs	r3, #0
 3418 015a C4F20103 		movt	r3, 16385
 3419 015e 9A42     		cmp	r2, r3
 3420 0160 06D0     		beq	.L107
 3421              		.loc 1 943 0 is_stmt 0 discriminator 1
 3422 0162 7A68     		ldr	r2, [r7, #4]
 3423 0164 4FF48063 		mov	r3, #1024
 3424 0168 C4F20103 		movt	r3, 16385
 3425 016c 9A42     		cmp	r2, r3
 3426 016e 1BD1     		bne	.L108
 3427              	.L107:
 944:lib/chip/STM32F4xx_StdPeriph_Driver/src/stm32f4xx_tim.c ****   {
 945:lib/chip/STM32F4xx_StdPeriph_Driver/src/stm32f4xx_tim.c ****     assert_param(IS_TIM_OCIDLE_STATE(TIM_OCInitStruct->TIM_OCIdleState));
 3428              		.loc 1 945 0 is_stmt 1
 3429 0170 3B68     		ldr	r3, [r7]
 3430 0172 1B8A     		ldrh	r3, [r3, #16]
 3431 0174 B3F5807F 		cmp	r3, #256
 3432 0178 0BD0     		beq	.L109
 3433              		.loc 1 945 0 is_stmt 0 discriminator 1
 3434 017a 3B68     		ldr	r3, [r7]
 3435 017c 1B8A     		ldrh	r3, [r3, #16]
 3436 017e 002B     		cmp	r3, #0
 3437 0180 07D0     		beq	.L109
 3438 0182 40F20000 		movw	r0, #:lower16:.LC0
 3439 0186 C0F20000 		movt	r0, #:upper16:.LC0
 3440 018a 40F2B131 		movw	r1, #945
 3441 018e FFF7FEFF 		bl	assert_failed
 3442              	.L109:
 946:lib/chip/STM32F4xx_StdPeriph_Driver/src/stm32f4xx_tim.c ****     /* Reset the Output Compare IDLE State */
 947:lib/chip/STM32F4xx_StdPeriph_Driver/src/stm32f4xx_tim.c ****     tmpcr2 &=(uint16_t) ~TIM_CR2_OIS4;
 3443              		.loc 1 947 0 is_stmt 1
 3444 0192 FB89     		ldrh	r3, [r7, #14]	@ movhi
 3445 0194 23F48043 		bic	r3, r3, #16384
 3446 0198 FB81     		strh	r3, [r7, #14]	@ movhi
 948:lib/chip/STM32F4xx_StdPeriph_Driver/src/stm32f4xx_tim.c ****     /* Set the Output Idle state */
 949:lib/chip/STM32F4xx_StdPeriph_Driver/src/stm32f4xx_tim.c ****     tmpcr2 |= (uint16_t)(TIM_OCInitStruct->TIM_OCIdleState << 6);
 3447              		.loc 1 949 0
 3448 019a 3B68     		ldr	r3, [r7]
 3449 019c 1B8A     		ldrh	r3, [r3, #16]
 3450 019e 9B01     		lsls	r3, r3, #6
 3451 01a0 9AB2     		uxth	r2, r3
 3452 01a2 FB89     		ldrh	r3, [r7, #14]	@ movhi
 3453 01a4 1343     		orrs	r3, r3, r2
 3454 01a6 FB81     		strh	r3, [r7, #14]	@ movhi
 3455              	.L108:
 950:lib/chip/STM32F4xx_StdPeriph_Driver/src/stm32f4xx_tim.c ****   }
 951:lib/chip/STM32F4xx_StdPeriph_Driver/src/stm32f4xx_tim.c ****   /* Write to TIMx CR2 */
 952:lib/chip/STM32F4xx_StdPeriph_Driver/src/stm32f4xx_tim.c ****   TIMx->CR2 = tmpcr2;
 3456              		.loc 1 952 0
 3457 01a8 7B68     		ldr	r3, [r7, #4]
 3458 01aa FA89     		ldrh	r2, [r7, #14]	@ movhi
 3459 01ac 9A80     		strh	r2, [r3, #4]	@ movhi
 953:lib/chip/STM32F4xx_StdPeriph_Driver/src/stm32f4xx_tim.c ****   
 954:lib/chip/STM32F4xx_StdPeriph_Driver/src/stm32f4xx_tim.c ****   /* Write to TIMx CCMR2 */  
 955:lib/chip/STM32F4xx_StdPeriph_Driver/src/stm32f4xx_tim.c ****   TIMx->CCMR2 = tmpccmrx;
 3460              		.loc 1 955 0
 3461 01ae 7B68     		ldr	r3, [r7, #4]
 3462 01b0 BA89     		ldrh	r2, [r7, #12]	@ movhi
 3463 01b2 9A83     		strh	r2, [r3, #28]	@ movhi
 956:lib/chip/STM32F4xx_StdPeriph_Driver/src/stm32f4xx_tim.c ****     
 957:lib/chip/STM32F4xx_StdPeriph_Driver/src/stm32f4xx_tim.c ****   /* Set the Capture Compare Register value */
 958:lib/chip/STM32F4xx_StdPeriph_Driver/src/stm32f4xx_tim.c ****   TIMx->CCR4 = TIM_OCInitStruct->TIM_Pulse;
 3464              		.loc 1 958 0
 3465 01b4 3B68     		ldr	r3, [r7]
 3466 01b6 9A68     		ldr	r2, [r3, #8]
 3467 01b8 7B68     		ldr	r3, [r7, #4]
 3468 01ba 1A64     		str	r2, [r3, #64]
 959:lib/chip/STM32F4xx_StdPeriph_Driver/src/stm32f4xx_tim.c ****   
 960:lib/chip/STM32F4xx_StdPeriph_Driver/src/stm32f4xx_tim.c ****   /* Write to TIMx CCER */
 961:lib/chip/STM32F4xx_StdPeriph_Driver/src/stm32f4xx_tim.c ****   TIMx->CCER = tmpccer;
 3469              		.loc 1 961 0
 3470 01bc 7B68     		ldr	r3, [r7, #4]
 3471 01be 7A89     		ldrh	r2, [r7, #10]	@ movhi
 3472 01c0 1A84     		strh	r2, [r3, #32]	@ movhi
 962:lib/chip/STM32F4xx_StdPeriph_Driver/src/stm32f4xx_tim.c **** }
 3473              		.loc 1 962 0
 3474 01c2 1037     		adds	r7, r7, #16
 3475 01c4 BD46     		mov	sp, r7
 3476              		@ sp needed
 3477 01c6 80BD     		pop	{r7, pc}
 3478              		.cfi_endproc
 3479              	.LFE128:
 3481              		.section	.text.TIM_OCStructInit,"ax",%progbits
 3482              		.align	2
 3483              		.global	TIM_OCStructInit
 3484              		.thumb
 3485              		.thumb_func
 3487              	TIM_OCStructInit:
 3488              	.LFB129:
 963:lib/chip/STM32F4xx_StdPeriph_Driver/src/stm32f4xx_tim.c **** 
 964:lib/chip/STM32F4xx_StdPeriph_Driver/src/stm32f4xx_tim.c **** /**
 965:lib/chip/STM32F4xx_StdPeriph_Driver/src/stm32f4xx_tim.c ****   * @brief  Fills each TIM_OCInitStruct member with its default value.
 966:lib/chip/STM32F4xx_StdPeriph_Driver/src/stm32f4xx_tim.c ****   * @param  TIM_OCInitStruct: pointer to a TIM_OCInitTypeDef structure which will
 967:lib/chip/STM32F4xx_StdPeriph_Driver/src/stm32f4xx_tim.c ****   *         be initialized.
 968:lib/chip/STM32F4xx_StdPeriph_Driver/src/stm32f4xx_tim.c ****   * @retval None
 969:lib/chip/STM32F4xx_StdPeriph_Driver/src/stm32f4xx_tim.c ****   */
 970:lib/chip/STM32F4xx_StdPeriph_Driver/src/stm32f4xx_tim.c **** void TIM_OCStructInit(TIM_OCInitTypeDef* TIM_OCInitStruct)
 971:lib/chip/STM32F4xx_StdPeriph_Driver/src/stm32f4xx_tim.c **** {
 3489              		.loc 1 971 0
 3490              		.cfi_startproc
 3491              		@ args = 0, pretend = 0, frame = 8
 3492              		@ frame_needed = 1, uses_anonymous_args = 0
 3493              		@ link register save eliminated.
 3494 0000 80B4     		push	{r7}
 3495              	.LCFI57:
 3496              		.cfi_def_cfa_offset 4
 3497              		.cfi_offset 7, -4
 3498 0002 83B0     		sub	sp, sp, #12
 3499              	.LCFI58:
 3500              		.cfi_def_cfa_offset 16
 3501 0004 00AF     		add	r7, sp, #0
 3502              	.LCFI59:
 3503              		.cfi_def_cfa_register 7
 3504 0006 7860     		str	r0, [r7, #4]
 972:lib/chip/STM32F4xx_StdPeriph_Driver/src/stm32f4xx_tim.c ****   /* Set the default configuration */
 973:lib/chip/STM32F4xx_StdPeriph_Driver/src/stm32f4xx_tim.c ****   TIM_OCInitStruct->TIM_OCMode = TIM_OCMode_Timing;
 3505              		.loc 1 973 0
 3506 0008 7B68     		ldr	r3, [r7, #4]
 3507 000a 0022     		movs	r2, #0
 3508 000c 1A80     		strh	r2, [r3]	@ movhi
 974:lib/chip/STM32F4xx_StdPeriph_Driver/src/stm32f4xx_tim.c ****   TIM_OCInitStruct->TIM_OutputState = TIM_OutputState_Disable;
 3509              		.loc 1 974 0
 3510 000e 7B68     		ldr	r3, [r7, #4]
 3511 0010 0022     		movs	r2, #0
 3512 0012 5A80     		strh	r2, [r3, #2]	@ movhi
 975:lib/chip/STM32F4xx_StdPeriph_Driver/src/stm32f4xx_tim.c ****   TIM_OCInitStruct->TIM_OutputNState = TIM_OutputNState_Disable;
 3513              		.loc 1 975 0
 3514 0014 7B68     		ldr	r3, [r7, #4]
 3515 0016 0022     		movs	r2, #0
 3516 0018 9A80     		strh	r2, [r3, #4]	@ movhi
 976:lib/chip/STM32F4xx_StdPeriph_Driver/src/stm32f4xx_tim.c ****   TIM_OCInitStruct->TIM_Pulse = 0x00000000;
 3517              		.loc 1 976 0
 3518 001a 7B68     		ldr	r3, [r7, #4]
 3519 001c 0022     		movs	r2, #0
 3520 001e 9A60     		str	r2, [r3, #8]
 977:lib/chip/STM32F4xx_StdPeriph_Driver/src/stm32f4xx_tim.c ****   TIM_OCInitStruct->TIM_OCPolarity = TIM_OCPolarity_High;
 3521              		.loc 1 977 0
 3522 0020 7B68     		ldr	r3, [r7, #4]
 3523 0022 0022     		movs	r2, #0
 3524 0024 9A81     		strh	r2, [r3, #12]	@ movhi
 978:lib/chip/STM32F4xx_StdPeriph_Driver/src/stm32f4xx_tim.c ****   TIM_OCInitStruct->TIM_OCNPolarity = TIM_OCPolarity_High;
 3525              		.loc 1 978 0
 3526 0026 7B68     		ldr	r3, [r7, #4]
 3527 0028 0022     		movs	r2, #0
 3528 002a DA81     		strh	r2, [r3, #14]	@ movhi
 979:lib/chip/STM32F4xx_StdPeriph_Driver/src/stm32f4xx_tim.c ****   TIM_OCInitStruct->TIM_OCIdleState = TIM_OCIdleState_Reset;
 3529              		.loc 1 979 0
 3530 002c 7B68     		ldr	r3, [r7, #4]
 3531 002e 0022     		movs	r2, #0
 3532 0030 1A82     		strh	r2, [r3, #16]	@ movhi
 980:lib/chip/STM32F4xx_StdPeriph_Driver/src/stm32f4xx_tim.c ****   TIM_OCInitStruct->TIM_OCNIdleState = TIM_OCNIdleState_Reset;
 3533              		.loc 1 980 0
 3534 0032 7B68     		ldr	r3, [r7, #4]
 3535 0034 0022     		movs	r2, #0
 3536 0036 5A82     		strh	r2, [r3, #18]	@ movhi
 981:lib/chip/STM32F4xx_StdPeriph_Driver/src/stm32f4xx_tim.c **** }
 3537              		.loc 1 981 0
 3538 0038 0C37     		adds	r7, r7, #12
 3539 003a BD46     		mov	sp, r7
 3540              		@ sp needed
 3541 003c 5DF8047B 		ldr	r7, [sp], #4
 3542 0040 7047     		bx	lr
 3543              		.cfi_endproc
 3544              	.LFE129:
 3546 0042 00BF     		.section	.text.TIM_SelectOCxM,"ax",%progbits
 3547              		.align	2
 3548              		.global	TIM_SelectOCxM
 3549              		.thumb
 3550              		.thumb_func
 3552              	TIM_SelectOCxM:
 3553              	.LFB130:
 982:lib/chip/STM32F4xx_StdPeriph_Driver/src/stm32f4xx_tim.c **** 
 983:lib/chip/STM32F4xx_StdPeriph_Driver/src/stm32f4xx_tim.c **** /**
 984:lib/chip/STM32F4xx_StdPeriph_Driver/src/stm32f4xx_tim.c ****   * @brief  Selects the TIM Output Compare Mode.
 985:lib/chip/STM32F4xx_StdPeriph_Driver/src/stm32f4xx_tim.c ****   * @note   This function disables the selected channel before changing the Output
 986:lib/chip/STM32F4xx_StdPeriph_Driver/src/stm32f4xx_tim.c ****   *         Compare Mode. If needed, user has to enable this channel using
 987:lib/chip/STM32F4xx_StdPeriph_Driver/src/stm32f4xx_tim.c ****   *         TIM_CCxCmd() and TIM_CCxNCmd() functions.
 988:lib/chip/STM32F4xx_StdPeriph_Driver/src/stm32f4xx_tim.c ****   * @param  TIMx: where x can be 1 to 14 except 6 and 7, to select the TIM peripheral.
 989:lib/chip/STM32F4xx_StdPeriph_Driver/src/stm32f4xx_tim.c ****   * @param  TIM_Channel: specifies the TIM Channel
 990:lib/chip/STM32F4xx_StdPeriph_Driver/src/stm32f4xx_tim.c ****   *          This parameter can be one of the following values:
 991:lib/chip/STM32F4xx_StdPeriph_Driver/src/stm32f4xx_tim.c ****   *            @arg TIM_Channel_1: TIM Channel 1
 992:lib/chip/STM32F4xx_StdPeriph_Driver/src/stm32f4xx_tim.c ****   *            @arg TIM_Channel_2: TIM Channel 2
 993:lib/chip/STM32F4xx_StdPeriph_Driver/src/stm32f4xx_tim.c ****   *            @arg TIM_Channel_3: TIM Channel 3
 994:lib/chip/STM32F4xx_StdPeriph_Driver/src/stm32f4xx_tim.c ****   *            @arg TIM_Channel_4: TIM Channel 4
 995:lib/chip/STM32F4xx_StdPeriph_Driver/src/stm32f4xx_tim.c ****   * @param  TIM_OCMode: specifies the TIM Output Compare Mode.
 996:lib/chip/STM32F4xx_StdPeriph_Driver/src/stm32f4xx_tim.c ****   *           This parameter can be one of the following values:
 997:lib/chip/STM32F4xx_StdPeriph_Driver/src/stm32f4xx_tim.c ****   *            @arg TIM_OCMode_Timing
 998:lib/chip/STM32F4xx_StdPeriph_Driver/src/stm32f4xx_tim.c ****   *            @arg TIM_OCMode_Active
 999:lib/chip/STM32F4xx_StdPeriph_Driver/src/stm32f4xx_tim.c ****   *            @arg TIM_OCMode_Toggle
1000:lib/chip/STM32F4xx_StdPeriph_Driver/src/stm32f4xx_tim.c ****   *            @arg TIM_OCMode_PWM1
1001:lib/chip/STM32F4xx_StdPeriph_Driver/src/stm32f4xx_tim.c ****   *            @arg TIM_OCMode_PWM2
1002:lib/chip/STM32F4xx_StdPeriph_Driver/src/stm32f4xx_tim.c ****   *            @arg TIM_ForcedAction_Active
1003:lib/chip/STM32F4xx_StdPeriph_Driver/src/stm32f4xx_tim.c ****   *            @arg TIM_ForcedAction_InActive
1004:lib/chip/STM32F4xx_StdPeriph_Driver/src/stm32f4xx_tim.c ****   * @retval None
1005:lib/chip/STM32F4xx_StdPeriph_Driver/src/stm32f4xx_tim.c ****   */
1006:lib/chip/STM32F4xx_StdPeriph_Driver/src/stm32f4xx_tim.c **** void TIM_SelectOCxM(TIM_TypeDef* TIMx, uint16_t TIM_Channel, uint16_t TIM_OCMode)
1007:lib/chip/STM32F4xx_StdPeriph_Driver/src/stm32f4xx_tim.c **** {
 3554              		.loc 1 1007 0
 3555              		.cfi_startproc
 3556              		@ args = 0, pretend = 0, frame = 16
 3557              		@ frame_needed = 1, uses_anonymous_args = 0
 3558 0000 80B5     		push	{r7, lr}
 3559              	.LCFI60:
 3560              		.cfi_def_cfa_offset 8
 3561              		.cfi_offset 7, -8
 3562              		.cfi_offset 14, -4
 3563 0002 84B0     		sub	sp, sp, #16
 3564              	.LCFI61:
 3565              		.cfi_def_cfa_offset 24
 3566 0004 00AF     		add	r7, sp, #0
 3567              	.LCFI62:
 3568              		.cfi_def_cfa_register 7
 3569 0006 7860     		str	r0, [r7, #4]
 3570 0008 1346     		mov	r3, r2
 3571 000a 0A46     		mov	r2, r1	@ movhi
 3572 000c 7A80     		strh	r2, [r7, #2]	@ movhi
 3573 000e 3B80     		strh	r3, [r7]	@ movhi
1008:lib/chip/STM32F4xx_StdPeriph_Driver/src/stm32f4xx_tim.c ****   uint32_t tmp = 0;
 3574              		.loc 1 1008 0
 3575 0010 0023     		movs	r3, #0
 3576 0012 FB60     		str	r3, [r7, #12]
1009:lib/chip/STM32F4xx_StdPeriph_Driver/src/stm32f4xx_tim.c ****   uint16_t tmp1 = 0;
 3577              		.loc 1 1009 0
 3578 0014 0023     		movs	r3, #0
 3579 0016 7B81     		strh	r3, [r7, #10]	@ movhi
1010:lib/chip/STM32F4xx_StdPeriph_Driver/src/stm32f4xx_tim.c **** 
1011:lib/chip/STM32F4xx_StdPeriph_Driver/src/stm32f4xx_tim.c ****   /* Check the parameters */
1012:lib/chip/STM32F4xx_StdPeriph_Driver/src/stm32f4xx_tim.c ****   assert_param(IS_TIM_LIST1_PERIPH(TIMx));
 3580              		.loc 1 1012 0
 3581 0018 7A68     		ldr	r2, [r7, #4]
 3582 001a 0023     		movs	r3, #0
 3583 001c C4F20103 		movt	r3, 16385
 3584 0020 9A42     		cmp	r2, r3
 3585 0022 51D0     		beq	.L112
 3586              		.loc 1 1012 0 is_stmt 0 discriminator 1
 3587 0024 7B68     		ldr	r3, [r7, #4]
 3588 0026 B3F1804F 		cmp	r3, #1073741824
 3589 002a 4DD0     		beq	.L112
 3590 002c 7A68     		ldr	r2, [r7, #4]
 3591 002e 4FF48063 		mov	r3, #1024
 3592 0032 C4F20003 		movt	r3, 16384
 3593 0036 9A42     		cmp	r2, r3
 3594 0038 46D0     		beq	.L112
 3595 003a 7A68     		ldr	r2, [r7, #4]
 3596 003c 4FF40063 		mov	r3, #2048
 3597 0040 C4F20003 		movt	r3, 16384
 3598 0044 9A42     		cmp	r2, r3
 3599 0046 3FD0     		beq	.L112
 3600 0048 7A68     		ldr	r2, [r7, #4]
 3601 004a 4FF44063 		mov	r3, #3072
 3602 004e C4F20003 		movt	r3, 16384
 3603 0052 9A42     		cmp	r2, r3
 3604 0054 38D0     		beq	.L112
 3605 0056 7A68     		ldr	r2, [r7, #4]
 3606 0058 4FF48063 		mov	r3, #1024
 3607 005c C4F20103 		movt	r3, 16385
 3608 0060 9A42     		cmp	r2, r3
 3609 0062 31D0     		beq	.L112
 3610 0064 7A68     		ldr	r2, [r7, #4]
 3611 0066 4FF48043 		mov	r3, #16384
 3612 006a C4F20103 		movt	r3, 16385
 3613 006e 9A42     		cmp	r2, r3
 3614 0070 2AD0     		beq	.L112
 3615 0072 7A68     		ldr	r2, [r7, #4]
 3616 0074 4FF48843 		mov	r3, #17408
 3617 0078 C4F20103 		movt	r3, 16385
 3618 007c 9A42     		cmp	r2, r3
 3619 007e 23D0     		beq	.L112
 3620 0080 7A68     		ldr	r2, [r7, #4]
 3621 0082 4FF49043 		mov	r3, #18432
 3622 0086 C4F20103 		movt	r3, 16385
 3623 008a 9A42     		cmp	r2, r3
 3624 008c 1CD0     		beq	.L112
 3625 008e 7A68     		ldr	r2, [r7, #4]
 3626 0090 4FF4C053 		mov	r3, #6144
 3627 0094 C4F20003 		movt	r3, 16384
 3628 0098 9A42     		cmp	r2, r3
 3629 009a 15D0     		beq	.L112
 3630 009c 7A68     		ldr	r2, [r7, #4]
 3631 009e 4FF4E053 		mov	r3, #7168
 3632 00a2 C4F20003 		movt	r3, 16384
 3633 00a6 9A42     		cmp	r2, r3
 3634 00a8 0ED0     		beq	.L112
 3635 00aa 7A68     		ldr	r2, [r7, #4]
 3636 00ac 4FF40053 		mov	r3, #8192
 3637 00b0 C4F20003 		movt	r3, 16384
 3638 00b4 9A42     		cmp	r2, r3
 3639 00b6 07D0     		beq	.L112
 3640 00b8 40F20000 		movw	r0, #:lower16:.LC0
 3641 00bc C0F20000 		movt	r0, #:upper16:.LC0
 3642 00c0 4FF47D71 		mov	r1, #1012
 3643 00c4 FFF7FEFF 		bl	assert_failed
 3644              	.L112:
1013:lib/chip/STM32F4xx_StdPeriph_Driver/src/stm32f4xx_tim.c ****   assert_param(IS_TIM_CHANNEL(TIM_Channel));
 3645              		.loc 1 1013 0 is_stmt 1
 3646 00c8 7B88     		ldrh	r3, [r7, #2]
 3647 00ca 002B     		cmp	r3, #0
 3648 00cc 10D0     		beq	.L113
 3649              		.loc 1 1013 0 is_stmt 0 discriminator 1
 3650 00ce 7B88     		ldrh	r3, [r7, #2]
 3651 00d0 042B     		cmp	r3, #4
 3652 00d2 0DD0     		beq	.L113
 3653 00d4 7B88     		ldrh	r3, [r7, #2]
 3654 00d6 082B     		cmp	r3, #8
 3655 00d8 0AD0     		beq	.L113
 3656 00da 7B88     		ldrh	r3, [r7, #2]
 3657 00dc 0C2B     		cmp	r3, #12
 3658 00de 07D0     		beq	.L113
 3659 00e0 40F20000 		movw	r0, #:lower16:.LC0
 3660 00e4 C0F20000 		movt	r0, #:upper16:.LC0
 3661 00e8 40F2F531 		movw	r1, #1013
 3662 00ec FFF7FEFF 		bl	assert_failed
 3663              	.L113:
1014:lib/chip/STM32F4xx_StdPeriph_Driver/src/stm32f4xx_tim.c ****   assert_param(IS_TIM_OCM(TIM_OCMode));
 3664              		.loc 1 1014 0 is_stmt 1
 3665 00f0 3B88     		ldrh	r3, [r7]
 3666 00f2 002B     		cmp	r3, #0
 3667 00f4 1CD0     		beq	.L114
 3668              		.loc 1 1014 0 is_stmt 0 discriminator 1
 3669 00f6 3B88     		ldrh	r3, [r7]
 3670 00f8 102B     		cmp	r3, #16
 3671 00fa 19D0     		beq	.L114
 3672 00fc 3B88     		ldrh	r3, [r7]
 3673 00fe 202B     		cmp	r3, #32
 3674 0100 16D0     		beq	.L114
 3675 0102 3B88     		ldrh	r3, [r7]
 3676 0104 302B     		cmp	r3, #48
 3677 0106 13D0     		beq	.L114
 3678 0108 3B88     		ldrh	r3, [r7]
 3679 010a 602B     		cmp	r3, #96
 3680 010c 10D0     		beq	.L114
 3681 010e 3B88     		ldrh	r3, [r7]
 3682 0110 702B     		cmp	r3, #112
 3683 0112 0DD0     		beq	.L114
 3684 0114 3B88     		ldrh	r3, [r7]
 3685 0116 502B     		cmp	r3, #80
 3686 0118 0AD0     		beq	.L114
 3687 011a 3B88     		ldrh	r3, [r7]
 3688 011c 402B     		cmp	r3, #64
 3689 011e 07D0     		beq	.L114
 3690 0120 40F20000 		movw	r0, #:lower16:.LC0
 3691 0124 C0F20000 		movt	r0, #:upper16:.LC0
 3692 0128 40F2F631 		movw	r1, #1014
 3693 012c FFF7FEFF 		bl	assert_failed
 3694              	.L114:
1015:lib/chip/STM32F4xx_StdPeriph_Driver/src/stm32f4xx_tim.c **** 
1016:lib/chip/STM32F4xx_StdPeriph_Driver/src/stm32f4xx_tim.c ****   tmp = (uint32_t) TIMx;
 3695              		.loc 1 1016 0 is_stmt 1
 3696 0130 7B68     		ldr	r3, [r7, #4]
 3697 0132 FB60     		str	r3, [r7, #12]
1017:lib/chip/STM32F4xx_StdPeriph_Driver/src/stm32f4xx_tim.c ****   tmp += CCMR_OFFSET;
 3698              		.loc 1 1017 0
 3699 0134 FB68     		ldr	r3, [r7, #12]
 3700 0136 1833     		adds	r3, r3, #24
 3701 0138 FB60     		str	r3, [r7, #12]
1018:lib/chip/STM32F4xx_StdPeriph_Driver/src/stm32f4xx_tim.c **** 
1019:lib/chip/STM32F4xx_StdPeriph_Driver/src/stm32f4xx_tim.c ****   tmp1 = CCER_CCE_SET << (uint16_t)TIM_Channel;
 3702              		.loc 1 1019 0
 3703 013a 7B88     		ldrh	r3, [r7, #2]
 3704 013c 0122     		movs	r2, #1
 3705 013e 02FA03F3 		lsl	r3, r2, r3
 3706 0142 7B81     		strh	r3, [r7, #10]	@ movhi
1020:lib/chip/STM32F4xx_StdPeriph_Driver/src/stm32f4xx_tim.c **** 
1021:lib/chip/STM32F4xx_StdPeriph_Driver/src/stm32f4xx_tim.c ****   /* Disable the Channel: Reset the CCxE Bit */
1022:lib/chip/STM32F4xx_StdPeriph_Driver/src/stm32f4xx_tim.c ****   TIMx->CCER &= (uint16_t) ~tmp1;
 3707              		.loc 1 1022 0
 3708 0144 7B68     		ldr	r3, [r7, #4]
 3709 0146 1B8C     		ldrh	r3, [r3, #32]	@ movhi
 3710 0148 9AB2     		uxth	r2, r3
 3711 014a 7B89     		ldrh	r3, [r7, #10]	@ movhi
 3712 014c DB43     		mvns	r3, r3
 3713 014e 9BB2     		uxth	r3, r3
 3714 0150 1340     		ands	r3, r3, r2
 3715 0152 9AB2     		uxth	r2, r3
 3716 0154 7B68     		ldr	r3, [r7, #4]
 3717 0156 1A84     		strh	r2, [r3, #32]	@ movhi
1023:lib/chip/STM32F4xx_StdPeriph_Driver/src/stm32f4xx_tim.c **** 
1024:lib/chip/STM32F4xx_StdPeriph_Driver/src/stm32f4xx_tim.c ****   if((TIM_Channel == TIM_Channel_1) ||(TIM_Channel == TIM_Channel_3))
 3718              		.loc 1 1024 0
 3719 0158 7B88     		ldrh	r3, [r7, #2]
 3720 015a 002B     		cmp	r3, #0
 3721 015c 02D0     		beq	.L115
 3722              		.loc 1 1024 0 is_stmt 0 discriminator 1
 3723 015e 7B88     		ldrh	r3, [r7, #2]
 3724 0160 082B     		cmp	r3, #8
 3725 0162 13D1     		bne	.L116
 3726              	.L115:
1025:lib/chip/STM32F4xx_StdPeriph_Driver/src/stm32f4xx_tim.c ****   {
1026:lib/chip/STM32F4xx_StdPeriph_Driver/src/stm32f4xx_tim.c ****     tmp += (TIM_Channel>>1);
 3727              		.loc 1 1026 0 is_stmt 1
 3728 0164 7B88     		ldrh	r3, [r7, #2]
 3729 0166 5B08     		lsrs	r3, r3, #1
 3730 0168 9BB2     		uxth	r3, r3
 3731 016a FA68     		ldr	r2, [r7, #12]
 3732 016c 1344     		add	r3, r3, r2
 3733 016e FB60     		str	r3, [r7, #12]
1027:lib/chip/STM32F4xx_StdPeriph_Driver/src/stm32f4xx_tim.c **** 
1028:lib/chip/STM32F4xx_StdPeriph_Driver/src/stm32f4xx_tim.c ****     /* Reset the OCxM bits in the CCMRx register */
1029:lib/chip/STM32F4xx_StdPeriph_Driver/src/stm32f4xx_tim.c ****     *(__IO uint32_t *) tmp &= CCMR_OC13M_MASK;
 3734              		.loc 1 1029 0
 3735 0170 FA68     		ldr	r2, [r7, #12]
 3736 0172 FB68     		ldr	r3, [r7, #12]
 3737 0174 1968     		ldr	r1, [r3]
 3738 0176 4FF68F73 		movw	r3, #65423
 3739 017a 0B40     		ands	r3, r3, r1
 3740 017c 1360     		str	r3, [r2]
1030:lib/chip/STM32F4xx_StdPeriph_Driver/src/stm32f4xx_tim.c ****    
1031:lib/chip/STM32F4xx_StdPeriph_Driver/src/stm32f4xx_tim.c ****     /* Configure the OCxM bits in the CCMRx register */
1032:lib/chip/STM32F4xx_StdPeriph_Driver/src/stm32f4xx_tim.c ****     *(__IO uint32_t *) tmp |= TIM_OCMode;
 3741              		.loc 1 1032 0
 3742 017e FB68     		ldr	r3, [r7, #12]
 3743 0180 FA68     		ldr	r2, [r7, #12]
 3744 0182 1168     		ldr	r1, [r2]
 3745 0184 3A88     		ldrh	r2, [r7]
 3746 0186 0A43     		orrs	r2, r2, r1
 3747 0188 1A60     		str	r2, [r3]
 3748 018a 16E0     		b	.L111
 3749              	.L116:
1033:lib/chip/STM32F4xx_StdPeriph_Driver/src/stm32f4xx_tim.c ****   }
1034:lib/chip/STM32F4xx_StdPeriph_Driver/src/stm32f4xx_tim.c ****   else
1035:lib/chip/STM32F4xx_StdPeriph_Driver/src/stm32f4xx_tim.c ****   {
1036:lib/chip/STM32F4xx_StdPeriph_Driver/src/stm32f4xx_tim.c ****     tmp += (uint16_t)(TIM_Channel - (uint16_t)4)>> (uint16_t)1;
 3750              		.loc 1 1036 0
 3751 018c 7B88     		ldrh	r3, [r7, #2]	@ movhi
 3752 018e 043B     		subs	r3, r3, #4
 3753 0190 9BB2     		uxth	r3, r3
 3754 0192 5B08     		lsrs	r3, r3, #1
 3755 0194 9BB2     		uxth	r3, r3
 3756 0196 FA68     		ldr	r2, [r7, #12]
 3757 0198 1344     		add	r3, r3, r2
 3758 019a FB60     		str	r3, [r7, #12]
1037:lib/chip/STM32F4xx_StdPeriph_Driver/src/stm32f4xx_tim.c **** 
1038:lib/chip/STM32F4xx_StdPeriph_Driver/src/stm32f4xx_tim.c ****     /* Reset the OCxM bits in the CCMRx register */
1039:lib/chip/STM32F4xx_StdPeriph_Driver/src/stm32f4xx_tim.c ****     *(__IO uint32_t *) tmp &= CCMR_OC24M_MASK;
 3759              		.loc 1 1039 0
 3760 019c FA68     		ldr	r2, [r7, #12]
 3761 019e FB68     		ldr	r3, [r7, #12]
 3762 01a0 1968     		ldr	r1, [r3]
 3763 01a2 48F6FF73 		movw	r3, #36863
 3764 01a6 0B40     		ands	r3, r3, r1
 3765 01a8 1360     		str	r3, [r2]
1040:lib/chip/STM32F4xx_StdPeriph_Driver/src/stm32f4xx_tim.c ****     
1041:lib/chip/STM32F4xx_StdPeriph_Driver/src/stm32f4xx_tim.c ****     /* Configure the OCxM bits in the CCMRx register */
1042:lib/chip/STM32F4xx_StdPeriph_Driver/src/stm32f4xx_tim.c ****     *(__IO uint32_t *) tmp |= (uint16_t)(TIM_OCMode << 8);
 3766              		.loc 1 1042 0
 3767 01aa FB68     		ldr	r3, [r7, #12]
 3768 01ac FA68     		ldr	r2, [r7, #12]
 3769 01ae 1168     		ldr	r1, [r2]
 3770 01b0 3A88     		ldrh	r2, [r7]	@ movhi
 3771 01b2 1202     		lsls	r2, r2, #8
 3772 01b4 92B2     		uxth	r2, r2
 3773 01b6 0A43     		orrs	r2, r2, r1
 3774 01b8 1A60     		str	r2, [r3]
 3775              	.L111:
1043:lib/chip/STM32F4xx_StdPeriph_Driver/src/stm32f4xx_tim.c ****   }
1044:lib/chip/STM32F4xx_StdPeriph_Driver/src/stm32f4xx_tim.c **** }
 3776              		.loc 1 1044 0
 3777 01ba 1037     		adds	r7, r7, #16
 3778 01bc BD46     		mov	sp, r7
 3779              		@ sp needed
 3780 01be 80BD     		pop	{r7, pc}
 3781              		.cfi_endproc
 3782              	.LFE130:
 3784              		.section	.text.TIM_SetCompare1,"ax",%progbits
 3785              		.align	2
 3786              		.global	TIM_SetCompare1
 3787              		.thumb
 3788              		.thumb_func
 3790              	TIM_SetCompare1:
 3791              	.LFB131:
1045:lib/chip/STM32F4xx_StdPeriph_Driver/src/stm32f4xx_tim.c **** 
1046:lib/chip/STM32F4xx_StdPeriph_Driver/src/stm32f4xx_tim.c **** /**
1047:lib/chip/STM32F4xx_StdPeriph_Driver/src/stm32f4xx_tim.c ****   * @brief  Sets the TIMx Capture Compare1 Register value
1048:lib/chip/STM32F4xx_StdPeriph_Driver/src/stm32f4xx_tim.c ****   * @param  TIMx: where x can be 1 to 14 except 6 and 7, to select the TIM peripheral.
1049:lib/chip/STM32F4xx_StdPeriph_Driver/src/stm32f4xx_tim.c ****   * @param  Compare1: specifies the Capture Compare1 register new value.
1050:lib/chip/STM32F4xx_StdPeriph_Driver/src/stm32f4xx_tim.c ****   * @retval None
1051:lib/chip/STM32F4xx_StdPeriph_Driver/src/stm32f4xx_tim.c ****   */
1052:lib/chip/STM32F4xx_StdPeriph_Driver/src/stm32f4xx_tim.c **** void TIM_SetCompare1(TIM_TypeDef* TIMx, uint32_t Compare1)
1053:lib/chip/STM32F4xx_StdPeriph_Driver/src/stm32f4xx_tim.c **** {
 3792              		.loc 1 1053 0
 3793              		.cfi_startproc
 3794              		@ args = 0, pretend = 0, frame = 8
 3795              		@ frame_needed = 1, uses_anonymous_args = 0
 3796 0000 80B5     		push	{r7, lr}
 3797              	.LCFI63:
 3798              		.cfi_def_cfa_offset 8
 3799              		.cfi_offset 7, -8
 3800              		.cfi_offset 14, -4
 3801 0002 82B0     		sub	sp, sp, #8
 3802              	.LCFI64:
 3803              		.cfi_def_cfa_offset 16
 3804 0004 00AF     		add	r7, sp, #0
 3805              	.LCFI65:
 3806              		.cfi_def_cfa_register 7
 3807 0006 7860     		str	r0, [r7, #4]
 3808 0008 3960     		str	r1, [r7]
1054:lib/chip/STM32F4xx_StdPeriph_Driver/src/stm32f4xx_tim.c ****   /* Check the parameters */
1055:lib/chip/STM32F4xx_StdPeriph_Driver/src/stm32f4xx_tim.c ****   assert_param(IS_TIM_LIST1_PERIPH(TIMx));
 3809              		.loc 1 1055 0
 3810 000a 7A68     		ldr	r2, [r7, #4]
 3811 000c 0023     		movs	r3, #0
 3812 000e C4F20103 		movt	r3, 16385
 3813 0012 9A42     		cmp	r2, r3
 3814 0014 51D0     		beq	.L119
 3815              		.loc 1 1055 0 is_stmt 0 discriminator 1
 3816 0016 7B68     		ldr	r3, [r7, #4]
 3817 0018 B3F1804F 		cmp	r3, #1073741824
 3818 001c 4DD0     		beq	.L119
 3819 001e 7A68     		ldr	r2, [r7, #4]
 3820 0020 4FF48063 		mov	r3, #1024
 3821 0024 C4F20003 		movt	r3, 16384
 3822 0028 9A42     		cmp	r2, r3
 3823 002a 46D0     		beq	.L119
 3824 002c 7A68     		ldr	r2, [r7, #4]
 3825 002e 4FF40063 		mov	r3, #2048
 3826 0032 C4F20003 		movt	r3, 16384
 3827 0036 9A42     		cmp	r2, r3
 3828 0038 3FD0     		beq	.L119
 3829 003a 7A68     		ldr	r2, [r7, #4]
 3830 003c 4FF44063 		mov	r3, #3072
 3831 0040 C4F20003 		movt	r3, 16384
 3832 0044 9A42     		cmp	r2, r3
 3833 0046 38D0     		beq	.L119
 3834 0048 7A68     		ldr	r2, [r7, #4]
 3835 004a 4FF48063 		mov	r3, #1024
 3836 004e C4F20103 		movt	r3, 16385
 3837 0052 9A42     		cmp	r2, r3
 3838 0054 31D0     		beq	.L119
 3839 0056 7A68     		ldr	r2, [r7, #4]
