   1              		.syntax unified
   2              		.cpu cortex-m4
   3              		.eabi_attribute 27, 3
   4              		.fpu fpv4-sp-d16
   5              		.eabi_attribute 20, 1
   6              		.eabi_attribute 21, 1
   7              		.eabi_attribute 23, 3
   8              		.eabi_attribute 24, 1
   9              		.eabi_attribute 25, 1
  10              		.eabi_attribute 26, 1
  11              		.eabi_attribute 30, 6
  12              		.eabi_attribute 34, 1
  13              		.eabi_attribute 18, 4
  14              		.thumb
  15              		.file	"stm32f4xx_sdio.c"
  16              		.text
  17              	.Ltext0:
  18              		.cfi_sections	.debug_frame
  19              		.section	.text.SDIO_DeInit,"ax",%progbits
  20              		.align	2
  21              		.global	SDIO_DeInit
  22              		.thumb
  23              		.thumb_func
  25              	SDIO_DeInit:
  26              	.LFB110:
  27              		.file 1 "lib/chip/STM32F4xx_StdPeriph_Driver/src/stm32f4xx_sdio.c"
   1:lib/chip/STM32F4xx_StdPeriph_Driver/src/stm32f4xx_sdio.c **** /**
   2:lib/chip/STM32F4xx_StdPeriph_Driver/src/stm32f4xx_sdio.c ****   ******************************************************************************
   3:lib/chip/STM32F4xx_StdPeriph_Driver/src/stm32f4xx_sdio.c ****   * @file    stm32f4xx_sdio.c
   4:lib/chip/STM32F4xx_StdPeriph_Driver/src/stm32f4xx_sdio.c ****   * @author  MCD Application Team
   5:lib/chip/STM32F4xx_StdPeriph_Driver/src/stm32f4xx_sdio.c ****   * @version V1.0.0
   6:lib/chip/STM32F4xx_StdPeriph_Driver/src/stm32f4xx_sdio.c ****   * @date    30-September-2011
   7:lib/chip/STM32F4xx_StdPeriph_Driver/src/stm32f4xx_sdio.c ****   * @brief   This file provides firmware functions to manage the following 
   8:lib/chip/STM32F4xx_StdPeriph_Driver/src/stm32f4xx_sdio.c ****   *          functionalities of the Secure digital input/output interface (SDIO) 
   9:lib/chip/STM32F4xx_StdPeriph_Driver/src/stm32f4xx_sdio.c ****   *          peripheral:
  10:lib/chip/STM32F4xx_StdPeriph_Driver/src/stm32f4xx_sdio.c ****   *           - Initialization and Configuration
  11:lib/chip/STM32F4xx_StdPeriph_Driver/src/stm32f4xx_sdio.c ****   *           - Command path state machine (CPSM) management
  12:lib/chip/STM32F4xx_StdPeriph_Driver/src/stm32f4xx_sdio.c ****   *           - Data path state machine (DPSM) management
  13:lib/chip/STM32F4xx_StdPeriph_Driver/src/stm32f4xx_sdio.c ****   *           - SDIO IO Cards mode management
  14:lib/chip/STM32F4xx_StdPeriph_Driver/src/stm32f4xx_sdio.c ****   *           - CE-ATA mode management
  15:lib/chip/STM32F4xx_StdPeriph_Driver/src/stm32f4xx_sdio.c ****   *           - DMA transfers management
  16:lib/chip/STM32F4xx_StdPeriph_Driver/src/stm32f4xx_sdio.c ****   *           - Interrupts and flags management
  17:lib/chip/STM32F4xx_StdPeriph_Driver/src/stm32f4xx_sdio.c ****   *
  18:lib/chip/STM32F4xx_StdPeriph_Driver/src/stm32f4xx_sdio.c ****   *  @verbatim
  19:lib/chip/STM32F4xx_StdPeriph_Driver/src/stm32f4xx_sdio.c ****   *
  20:lib/chip/STM32F4xx_StdPeriph_Driver/src/stm32f4xx_sdio.c ****   *
  21:lib/chip/STM32F4xx_StdPeriph_Driver/src/stm32f4xx_sdio.c ****   *          ===================================================================
  22:lib/chip/STM32F4xx_StdPeriph_Driver/src/stm32f4xx_sdio.c ****   *                                 How to use this driver
  23:lib/chip/STM32F4xx_StdPeriph_Driver/src/stm32f4xx_sdio.c ****   *          ===================================================================
  24:lib/chip/STM32F4xx_StdPeriph_Driver/src/stm32f4xx_sdio.c ****   *          1. The SDIO clock (SDIOCLK = 48 MHz) is coming from a specific output
  25:lib/chip/STM32F4xx_StdPeriph_Driver/src/stm32f4xx_sdio.c ****   *             of PLL (PLL48CLK). Before to start working with SDIO peripheral
  26:lib/chip/STM32F4xx_StdPeriph_Driver/src/stm32f4xx_sdio.c ****   *             make sure that the PLL is well configured.
  27:lib/chip/STM32F4xx_StdPeriph_Driver/src/stm32f4xx_sdio.c ****   *          The SDIO peripheral uses two clock signals:
  28:lib/chip/STM32F4xx_StdPeriph_Driver/src/stm32f4xx_sdio.c ****   *              - SDIO adapter clock (SDIOCLK = 48 MHz)
  29:lib/chip/STM32F4xx_StdPeriph_Driver/src/stm32f4xx_sdio.c ****   *              - APB2 bus clock (PCLK2)
  30:lib/chip/STM32F4xx_StdPeriph_Driver/src/stm32f4xx_sdio.c ****   *          PCLK2 and SDIO_CK clock frequencies must respect the following condition:
  31:lib/chip/STM32F4xx_StdPeriph_Driver/src/stm32f4xx_sdio.c ****   *                   Frequenc(PCLK2) >= (3 / 8 x Frequency(SDIO_CK))
  32:lib/chip/STM32F4xx_StdPeriph_Driver/src/stm32f4xx_sdio.c ****   *
  33:lib/chip/STM32F4xx_StdPeriph_Driver/src/stm32f4xx_sdio.c ****   *          2. Enable peripheral clock using RCC_APB2PeriphClockCmd(RCC_APB2Periph_SDIO, ENABLE).
  34:lib/chip/STM32F4xx_StdPeriph_Driver/src/stm32f4xx_sdio.c ****   *
  35:lib/chip/STM32F4xx_StdPeriph_Driver/src/stm32f4xx_sdio.c ****   *          3.  According to the SDIO mode, enable the GPIO clocks using 
  36:lib/chip/STM32F4xx_StdPeriph_Driver/src/stm32f4xx_sdio.c ****   *              RCC_AHB1PeriphClockCmd() function. 
  37:lib/chip/STM32F4xx_StdPeriph_Driver/src/stm32f4xx_sdio.c ****   *              The I/O can be one of the following configurations:
  38:lib/chip/STM32F4xx_StdPeriph_Driver/src/stm32f4xx_sdio.c ****   *                 - 1-bit data length: SDIO_CMD, SDIO_CK and D0.
  39:lib/chip/STM32F4xx_StdPeriph_Driver/src/stm32f4xx_sdio.c ****   *                 - 4-bit data length: SDIO_CMD, SDIO_CK and D[3:0].
  40:lib/chip/STM32F4xx_StdPeriph_Driver/src/stm32f4xx_sdio.c ****   *                 - 8-bit data length: SDIO_CMD, SDIO_CK and D[7:0].      
  41:lib/chip/STM32F4xx_StdPeriph_Driver/src/stm32f4xx_sdio.c ****   *
  42:lib/chip/STM32F4xx_StdPeriph_Driver/src/stm32f4xx_sdio.c ****   *          4. Peripheral's alternate function: 
  43:lib/chip/STM32F4xx_StdPeriph_Driver/src/stm32f4xx_sdio.c ****   *                 - Connect the pin to the desired peripherals' Alternate 
  44:lib/chip/STM32F4xx_StdPeriph_Driver/src/stm32f4xx_sdio.c ****   *                   Function (AF) using GPIO_PinAFConfig() function
  45:lib/chip/STM32F4xx_StdPeriph_Driver/src/stm32f4xx_sdio.c ****   *                 - Configure the desired pin in alternate function by:
  46:lib/chip/STM32F4xx_StdPeriph_Driver/src/stm32f4xx_sdio.c ****   *                   GPIO_InitStruct->GPIO_Mode = GPIO_Mode_AF
  47:lib/chip/STM32F4xx_StdPeriph_Driver/src/stm32f4xx_sdio.c ****   *                 - Select the type, pull-up/pull-down and output speed via 
  48:lib/chip/STM32F4xx_StdPeriph_Driver/src/stm32f4xx_sdio.c ****   *                   GPIO_PuPd, GPIO_OType and GPIO_Speed members
  49:lib/chip/STM32F4xx_StdPeriph_Driver/src/stm32f4xx_sdio.c ****   *                 - Call GPIO_Init() function
  50:lib/chip/STM32F4xx_StdPeriph_Driver/src/stm32f4xx_sdio.c ****   *
  51:lib/chip/STM32F4xx_StdPeriph_Driver/src/stm32f4xx_sdio.c ****   *          5. Program the Clock Edge, Clock Bypass, Clock Power Save, Bus Wide, 
  52:lib/chip/STM32F4xx_StdPeriph_Driver/src/stm32f4xx_sdio.c ****   *             hardware, flow control and the Clock Divider using the SDIO_Init()
  53:lib/chip/STM32F4xx_StdPeriph_Driver/src/stm32f4xx_sdio.c ****   *             function.
  54:lib/chip/STM32F4xx_StdPeriph_Driver/src/stm32f4xx_sdio.c ****   *
  55:lib/chip/STM32F4xx_StdPeriph_Driver/src/stm32f4xx_sdio.c ****   *          6. Enable the Power ON State using the SDIO_SetPowerState(SDIO_PowerState_ON) 
  56:lib/chip/STM32F4xx_StdPeriph_Driver/src/stm32f4xx_sdio.c ****   *             function.
  57:lib/chip/STM32F4xx_StdPeriph_Driver/src/stm32f4xx_sdio.c ****   *              
  58:lib/chip/STM32F4xx_StdPeriph_Driver/src/stm32f4xx_sdio.c ****   *          7. Enable the clock using the SDIO_ClockCmd() function.
  59:lib/chip/STM32F4xx_StdPeriph_Driver/src/stm32f4xx_sdio.c ****   *
  60:lib/chip/STM32F4xx_StdPeriph_Driver/src/stm32f4xx_sdio.c ****   *          8. Enable the NVIC and the corresponding interrupt using the function 
  61:lib/chip/STM32F4xx_StdPeriph_Driver/src/stm32f4xx_sdio.c ****   *             SDIO_ITConfig() if you need to use interrupt mode. 
  62:lib/chip/STM32F4xx_StdPeriph_Driver/src/stm32f4xx_sdio.c ****   *
  63:lib/chip/STM32F4xx_StdPeriph_Driver/src/stm32f4xx_sdio.c ****   *          9. When using the DMA mode 
  64:lib/chip/STM32F4xx_StdPeriph_Driver/src/stm32f4xx_sdio.c ****   *                   - Configure the DMA using DMA_Init() function
  65:lib/chip/STM32F4xx_StdPeriph_Driver/src/stm32f4xx_sdio.c ****   *                   - Active the needed channel Request using SDIO_DMACmd() function
  66:lib/chip/STM32F4xx_StdPeriph_Driver/src/stm32f4xx_sdio.c ****   *
  67:lib/chip/STM32F4xx_StdPeriph_Driver/src/stm32f4xx_sdio.c ****   *          10. Enable the DMA using the DMA_Cmd() function, when using DMA mode. 
  68:lib/chip/STM32F4xx_StdPeriph_Driver/src/stm32f4xx_sdio.c ****   *
  69:lib/chip/STM32F4xx_StdPeriph_Driver/src/stm32f4xx_sdio.c ****   *          11. To control the CPSM (Command Path State Machine) and send 
  70:lib/chip/STM32F4xx_StdPeriph_Driver/src/stm32f4xx_sdio.c ****   *              commands to the card use the SDIO_SendCommand(), 
  71:lib/chip/STM32F4xx_StdPeriph_Driver/src/stm32f4xx_sdio.c ****   *              SDIO_GetCommandResponse() and SDIO_GetResponse() functions.     
  72:lib/chip/STM32F4xx_StdPeriph_Driver/src/stm32f4xx_sdio.c ****   *              First, user has to fill the command structure (pointer to
  73:lib/chip/STM32F4xx_StdPeriph_Driver/src/stm32f4xx_sdio.c ****   *              SDIO_CmdInitTypeDef) according to the selected command to be sent.
  74:lib/chip/STM32F4xx_StdPeriph_Driver/src/stm32f4xx_sdio.c ****   *                 The parameters that should be filled are:
  75:lib/chip/STM32F4xx_StdPeriph_Driver/src/stm32f4xx_sdio.c ****   *                   - Command Argument
  76:lib/chip/STM32F4xx_StdPeriph_Driver/src/stm32f4xx_sdio.c ****   *                   - Command Index
  77:lib/chip/STM32F4xx_StdPeriph_Driver/src/stm32f4xx_sdio.c ****   *                   - Command Response type
  78:lib/chip/STM32F4xx_StdPeriph_Driver/src/stm32f4xx_sdio.c ****   *                   - Command Wait
  79:lib/chip/STM32F4xx_StdPeriph_Driver/src/stm32f4xx_sdio.c ****   *                   - CPSM Status (Enable or Disable)
  80:lib/chip/STM32F4xx_StdPeriph_Driver/src/stm32f4xx_sdio.c ****   *
  81:lib/chip/STM32F4xx_StdPeriph_Driver/src/stm32f4xx_sdio.c ****   *              To check if the command is well received, read the SDIO_CMDRESP
  82:lib/chip/STM32F4xx_StdPeriph_Driver/src/stm32f4xx_sdio.c ****   *              register using the SDIO_GetCommandResponse().
  83:lib/chip/STM32F4xx_StdPeriph_Driver/src/stm32f4xx_sdio.c ****   *              The SDIO responses registers (SDIO_RESP1 to SDIO_RESP2), use the
  84:lib/chip/STM32F4xx_StdPeriph_Driver/src/stm32f4xx_sdio.c ****   *              SDIO_GetResponse() function.
  85:lib/chip/STM32F4xx_StdPeriph_Driver/src/stm32f4xx_sdio.c ****   *
  86:lib/chip/STM32F4xx_StdPeriph_Driver/src/stm32f4xx_sdio.c ****   *          12. To control the DPSM (Data Path State Machine) and send/receive 
  87:lib/chip/STM32F4xx_StdPeriph_Driver/src/stm32f4xx_sdio.c ****   *              data to/from the card use the SDIO_DataConfig(), SDIO_GetDataCounter(), 
  88:lib/chip/STM32F4xx_StdPeriph_Driver/src/stm32f4xx_sdio.c ****   *              SDIO_ReadData(), SDIO_WriteData() and SDIO_GetFIFOCount() functions.
  89:lib/chip/STM32F4xx_StdPeriph_Driver/src/stm32f4xx_sdio.c ****   *
  90:lib/chip/STM32F4xx_StdPeriph_Driver/src/stm32f4xx_sdio.c ****   *              Read Operations
  91:lib/chip/STM32F4xx_StdPeriph_Driver/src/stm32f4xx_sdio.c ****   *              ---------------
  92:lib/chip/STM32F4xx_StdPeriph_Driver/src/stm32f4xx_sdio.c ****   *              a) First, user has to fill the data structure (pointer to
  93:lib/chip/STM32F4xx_StdPeriph_Driver/src/stm32f4xx_sdio.c ****   *                 SDIO_DataInitTypeDef) according to the selected data type to
  94:lib/chip/STM32F4xx_StdPeriph_Driver/src/stm32f4xx_sdio.c ****   *                 be received.
  95:lib/chip/STM32F4xx_StdPeriph_Driver/src/stm32f4xx_sdio.c ****   *                 The parameters that should be filled are:
  96:lib/chip/STM32F4xx_StdPeriph_Driver/src/stm32f4xx_sdio.c ****   *                   - Data TimeOut
  97:lib/chip/STM32F4xx_StdPeriph_Driver/src/stm32f4xx_sdio.c ****   *                   - Data Length
  98:lib/chip/STM32F4xx_StdPeriph_Driver/src/stm32f4xx_sdio.c ****   *                   - Data Block size
  99:lib/chip/STM32F4xx_StdPeriph_Driver/src/stm32f4xx_sdio.c ****   *                   - Data Transfer direction: should be from card (To SDIO)
 100:lib/chip/STM32F4xx_StdPeriph_Driver/src/stm32f4xx_sdio.c ****   *                   - Data Transfer mode
 101:lib/chip/STM32F4xx_StdPeriph_Driver/src/stm32f4xx_sdio.c ****   *                   - DPSM Status (Enable or Disable)
 102:lib/chip/STM32F4xx_StdPeriph_Driver/src/stm32f4xx_sdio.c ****   *                                   
 103:lib/chip/STM32F4xx_StdPeriph_Driver/src/stm32f4xx_sdio.c ****   *              b) Configure the SDIO resources to receive the data from the card
 104:lib/chip/STM32F4xx_StdPeriph_Driver/src/stm32f4xx_sdio.c ****   *                 according to selected transfer mode (Refer to Step 8, 9 and 10).
 105:lib/chip/STM32F4xx_StdPeriph_Driver/src/stm32f4xx_sdio.c ****   *
 106:lib/chip/STM32F4xx_StdPeriph_Driver/src/stm32f4xx_sdio.c ****   *              c) Send the selected Read command (refer to step 11).
 107:lib/chip/STM32F4xx_StdPeriph_Driver/src/stm32f4xx_sdio.c ****   *                  
 108:lib/chip/STM32F4xx_StdPeriph_Driver/src/stm32f4xx_sdio.c ****   *              d) Use the SDIO flags/interrupts to check the transfer status.
 109:lib/chip/STM32F4xx_StdPeriph_Driver/src/stm32f4xx_sdio.c ****   *
 110:lib/chip/STM32F4xx_StdPeriph_Driver/src/stm32f4xx_sdio.c ****   *              Write Operations
 111:lib/chip/STM32F4xx_StdPeriph_Driver/src/stm32f4xx_sdio.c ****   *              ---------------
 112:lib/chip/STM32F4xx_StdPeriph_Driver/src/stm32f4xx_sdio.c ****   *              a) First, user has to fill the data structure (pointer to
 113:lib/chip/STM32F4xx_StdPeriph_Driver/src/stm32f4xx_sdio.c ****   *                 SDIO_DataInitTypeDef) according to the selected data type to
 114:lib/chip/STM32F4xx_StdPeriph_Driver/src/stm32f4xx_sdio.c ****   *                 be received.
 115:lib/chip/STM32F4xx_StdPeriph_Driver/src/stm32f4xx_sdio.c ****   *                 The parameters that should be filled are:
 116:lib/chip/STM32F4xx_StdPeriph_Driver/src/stm32f4xx_sdio.c ****   *                   - Data TimeOut
 117:lib/chip/STM32F4xx_StdPeriph_Driver/src/stm32f4xx_sdio.c ****   *                   - Data Length
 118:lib/chip/STM32F4xx_StdPeriph_Driver/src/stm32f4xx_sdio.c ****   *                   - Data Block size
 119:lib/chip/STM32F4xx_StdPeriph_Driver/src/stm32f4xx_sdio.c ****   *                   - Data Transfer direction:  should be to card (To CARD)
 120:lib/chip/STM32F4xx_StdPeriph_Driver/src/stm32f4xx_sdio.c ****   *                   - Data Transfer mode
 121:lib/chip/STM32F4xx_StdPeriph_Driver/src/stm32f4xx_sdio.c ****   *                   - DPSM Status (Enable or Disable)
 122:lib/chip/STM32F4xx_StdPeriph_Driver/src/stm32f4xx_sdio.c ****   *
 123:lib/chip/STM32F4xx_StdPeriph_Driver/src/stm32f4xx_sdio.c ****   *              b) Configure the SDIO resources to send the data to the card
 124:lib/chip/STM32F4xx_StdPeriph_Driver/src/stm32f4xx_sdio.c ****   *                 according to selected transfer mode (Refer to Step 8, 9 and 10).
 125:lib/chip/STM32F4xx_StdPeriph_Driver/src/stm32f4xx_sdio.c ****   *                   
 126:lib/chip/STM32F4xx_StdPeriph_Driver/src/stm32f4xx_sdio.c ****   *              c) Send the selected Write command (refer to step 11).
 127:lib/chip/STM32F4xx_StdPeriph_Driver/src/stm32f4xx_sdio.c ****   *                  
 128:lib/chip/STM32F4xx_StdPeriph_Driver/src/stm32f4xx_sdio.c ****   *              d) Use the SDIO flags/interrupts to check the transfer status.
 129:lib/chip/STM32F4xx_StdPeriph_Driver/src/stm32f4xx_sdio.c ****   *
 130:lib/chip/STM32F4xx_StdPeriph_Driver/src/stm32f4xx_sdio.c ****   *
 131:lib/chip/STM32F4xx_StdPeriph_Driver/src/stm32f4xx_sdio.c ****   *  @endverbatim
 132:lib/chip/STM32F4xx_StdPeriph_Driver/src/stm32f4xx_sdio.c ****   *
 133:lib/chip/STM32F4xx_StdPeriph_Driver/src/stm32f4xx_sdio.c ****   *
 134:lib/chip/STM32F4xx_StdPeriph_Driver/src/stm32f4xx_sdio.c ****   ******************************************************************************
 135:lib/chip/STM32F4xx_StdPeriph_Driver/src/stm32f4xx_sdio.c ****   * @attention
 136:lib/chip/STM32F4xx_StdPeriph_Driver/src/stm32f4xx_sdio.c ****   *
 137:lib/chip/STM32F4xx_StdPeriph_Driver/src/stm32f4xx_sdio.c ****   * THE PRESENT FIRMWARE WHICH IS FOR GUIDANCE ONLY AIMS AT PROVIDING CUSTOMERS
 138:lib/chip/STM32F4xx_StdPeriph_Driver/src/stm32f4xx_sdio.c ****   * WITH CODING INFORMATION REGARDING THEIR PRODUCTS IN ORDER FOR THEM TO SAVE
 139:lib/chip/STM32F4xx_StdPeriph_Driver/src/stm32f4xx_sdio.c ****   * TIME. AS A RESULT, STMICROELECTRONICS SHALL NOT BE HELD LIABLE FOR ANY
 140:lib/chip/STM32F4xx_StdPeriph_Driver/src/stm32f4xx_sdio.c ****   * DIRECT, INDIRECT OR CONSEQUENTIAL DAMAGES WITH RESPECT TO ANY CLAIMS ARISING
 141:lib/chip/STM32F4xx_StdPeriph_Driver/src/stm32f4xx_sdio.c ****   * FROM THE CONTENT OF SUCH FIRMWARE AND/OR THE USE MADE BY CUSTOMERS OF THE
 142:lib/chip/STM32F4xx_StdPeriph_Driver/src/stm32f4xx_sdio.c ****   * CODING INFORMATION CONTAINED HEREIN IN CONNECTION WITH THEIR PRODUCTS.
 143:lib/chip/STM32F4xx_StdPeriph_Driver/src/stm32f4xx_sdio.c ****   *
 144:lib/chip/STM32F4xx_StdPeriph_Driver/src/stm32f4xx_sdio.c ****   * <h2><center>&copy; COPYRIGHT 2011 STMicroelectronics</center></h2>
 145:lib/chip/STM32F4xx_StdPeriph_Driver/src/stm32f4xx_sdio.c ****   ******************************************************************************
 146:lib/chip/STM32F4xx_StdPeriph_Driver/src/stm32f4xx_sdio.c ****   */
 147:lib/chip/STM32F4xx_StdPeriph_Driver/src/stm32f4xx_sdio.c **** 
 148:lib/chip/STM32F4xx_StdPeriph_Driver/src/stm32f4xx_sdio.c **** /* Includes ------------------------------------------------------------------*/
 149:lib/chip/STM32F4xx_StdPeriph_Driver/src/stm32f4xx_sdio.c **** #include "stm32f4xx_sdio.h"
 150:lib/chip/STM32F4xx_StdPeriph_Driver/src/stm32f4xx_sdio.c **** #include "stm32f4xx_rcc.h"
 151:lib/chip/STM32F4xx_StdPeriph_Driver/src/stm32f4xx_sdio.c **** 
 152:lib/chip/STM32F4xx_StdPeriph_Driver/src/stm32f4xx_sdio.c **** /** @addtogroup STM32F4xx_StdPeriph_Driver
 153:lib/chip/STM32F4xx_StdPeriph_Driver/src/stm32f4xx_sdio.c ****   * @{
 154:lib/chip/STM32F4xx_StdPeriph_Driver/src/stm32f4xx_sdio.c ****   */
 155:lib/chip/STM32F4xx_StdPeriph_Driver/src/stm32f4xx_sdio.c **** 
 156:lib/chip/STM32F4xx_StdPeriph_Driver/src/stm32f4xx_sdio.c **** /** @defgroup SDIO 
 157:lib/chip/STM32F4xx_StdPeriph_Driver/src/stm32f4xx_sdio.c ****   * @brief SDIO driver modules
 158:lib/chip/STM32F4xx_StdPeriph_Driver/src/stm32f4xx_sdio.c ****   * @{
 159:lib/chip/STM32F4xx_StdPeriph_Driver/src/stm32f4xx_sdio.c ****   */ 
 160:lib/chip/STM32F4xx_StdPeriph_Driver/src/stm32f4xx_sdio.c **** 
 161:lib/chip/STM32F4xx_StdPeriph_Driver/src/stm32f4xx_sdio.c **** /* Private typedef -----------------------------------------------------------*/
 162:lib/chip/STM32F4xx_StdPeriph_Driver/src/stm32f4xx_sdio.c **** /* Private define ------------------------------------------------------------*/
 163:lib/chip/STM32F4xx_StdPeriph_Driver/src/stm32f4xx_sdio.c **** 
 164:lib/chip/STM32F4xx_StdPeriph_Driver/src/stm32f4xx_sdio.c **** /* ------------ SDIO registers bit address in the alias region ----------- */
 165:lib/chip/STM32F4xx_StdPeriph_Driver/src/stm32f4xx_sdio.c **** #define SDIO_OFFSET                (SDIO_BASE - PERIPH_BASE)
 166:lib/chip/STM32F4xx_StdPeriph_Driver/src/stm32f4xx_sdio.c **** 
 167:lib/chip/STM32F4xx_StdPeriph_Driver/src/stm32f4xx_sdio.c **** /* --- CLKCR Register ---*/
 168:lib/chip/STM32F4xx_StdPeriph_Driver/src/stm32f4xx_sdio.c **** /* Alias word address of CLKEN bit */
 169:lib/chip/STM32F4xx_StdPeriph_Driver/src/stm32f4xx_sdio.c **** #define CLKCR_OFFSET              (SDIO_OFFSET + 0x04)
 170:lib/chip/STM32F4xx_StdPeriph_Driver/src/stm32f4xx_sdio.c **** #define CLKEN_BitNumber           0x08
 171:lib/chip/STM32F4xx_StdPeriph_Driver/src/stm32f4xx_sdio.c **** #define CLKCR_CLKEN_BB            (PERIPH_BB_BASE + (CLKCR_OFFSET * 32) + (CLKEN_BitNumber * 4))
 172:lib/chip/STM32F4xx_StdPeriph_Driver/src/stm32f4xx_sdio.c **** 
 173:lib/chip/STM32F4xx_StdPeriph_Driver/src/stm32f4xx_sdio.c **** /* --- CMD Register ---*/
 174:lib/chip/STM32F4xx_StdPeriph_Driver/src/stm32f4xx_sdio.c **** /* Alias word address of SDIOSUSPEND bit */
 175:lib/chip/STM32F4xx_StdPeriph_Driver/src/stm32f4xx_sdio.c **** #define CMD_OFFSET                (SDIO_OFFSET + 0x0C)
 176:lib/chip/STM32F4xx_StdPeriph_Driver/src/stm32f4xx_sdio.c **** #define SDIOSUSPEND_BitNumber     0x0B
 177:lib/chip/STM32F4xx_StdPeriph_Driver/src/stm32f4xx_sdio.c **** #define CMD_SDIOSUSPEND_BB        (PERIPH_BB_BASE + (CMD_OFFSET * 32) + (SDIOSUSPEND_BitNumber * 4)
 178:lib/chip/STM32F4xx_StdPeriph_Driver/src/stm32f4xx_sdio.c **** 
 179:lib/chip/STM32F4xx_StdPeriph_Driver/src/stm32f4xx_sdio.c **** /* Alias word address of ENCMDCOMPL bit */
 180:lib/chip/STM32F4xx_StdPeriph_Driver/src/stm32f4xx_sdio.c **** #define ENCMDCOMPL_BitNumber      0x0C
 181:lib/chip/STM32F4xx_StdPeriph_Driver/src/stm32f4xx_sdio.c **** #define CMD_ENCMDCOMPL_BB         (PERIPH_BB_BASE + (CMD_OFFSET * 32) + (ENCMDCOMPL_BitNumber * 4))
 182:lib/chip/STM32F4xx_StdPeriph_Driver/src/stm32f4xx_sdio.c **** 
 183:lib/chip/STM32F4xx_StdPeriph_Driver/src/stm32f4xx_sdio.c **** /* Alias word address of NIEN bit */
 184:lib/chip/STM32F4xx_StdPeriph_Driver/src/stm32f4xx_sdio.c **** #define NIEN_BitNumber            0x0D
 185:lib/chip/STM32F4xx_StdPeriph_Driver/src/stm32f4xx_sdio.c **** #define CMD_NIEN_BB               (PERIPH_BB_BASE + (CMD_OFFSET * 32) + (NIEN_BitNumber * 4))
 186:lib/chip/STM32F4xx_StdPeriph_Driver/src/stm32f4xx_sdio.c **** 
 187:lib/chip/STM32F4xx_StdPeriph_Driver/src/stm32f4xx_sdio.c **** /* Alias word address of ATACMD bit */
 188:lib/chip/STM32F4xx_StdPeriph_Driver/src/stm32f4xx_sdio.c **** #define ATACMD_BitNumber          0x0E
 189:lib/chip/STM32F4xx_StdPeriph_Driver/src/stm32f4xx_sdio.c **** #define CMD_ATACMD_BB             (PERIPH_BB_BASE + (CMD_OFFSET * 32) + (ATACMD_BitNumber * 4))
 190:lib/chip/STM32F4xx_StdPeriph_Driver/src/stm32f4xx_sdio.c **** 
 191:lib/chip/STM32F4xx_StdPeriph_Driver/src/stm32f4xx_sdio.c **** /* --- DCTRL Register ---*/
 192:lib/chip/STM32F4xx_StdPeriph_Driver/src/stm32f4xx_sdio.c **** /* Alias word address of DMAEN bit */
 193:lib/chip/STM32F4xx_StdPeriph_Driver/src/stm32f4xx_sdio.c **** #define DCTRL_OFFSET              (SDIO_OFFSET + 0x2C)
 194:lib/chip/STM32F4xx_StdPeriph_Driver/src/stm32f4xx_sdio.c **** #define DMAEN_BitNumber           0x03
 195:lib/chip/STM32F4xx_StdPeriph_Driver/src/stm32f4xx_sdio.c **** #define DCTRL_DMAEN_BB            (PERIPH_BB_BASE + (DCTRL_OFFSET * 32) + (DMAEN_BitNumber * 4))
 196:lib/chip/STM32F4xx_StdPeriph_Driver/src/stm32f4xx_sdio.c **** 
 197:lib/chip/STM32F4xx_StdPeriph_Driver/src/stm32f4xx_sdio.c **** /* Alias word address of RWSTART bit */
 198:lib/chip/STM32F4xx_StdPeriph_Driver/src/stm32f4xx_sdio.c **** #define RWSTART_BitNumber         0x08
 199:lib/chip/STM32F4xx_StdPeriph_Driver/src/stm32f4xx_sdio.c **** #define DCTRL_RWSTART_BB          (PERIPH_BB_BASE + (DCTRL_OFFSET * 32) + (RWSTART_BitNumber * 4))
 200:lib/chip/STM32F4xx_StdPeriph_Driver/src/stm32f4xx_sdio.c **** 
 201:lib/chip/STM32F4xx_StdPeriph_Driver/src/stm32f4xx_sdio.c **** /* Alias word address of RWSTOP bit */
 202:lib/chip/STM32F4xx_StdPeriph_Driver/src/stm32f4xx_sdio.c **** #define RWSTOP_BitNumber          0x09
 203:lib/chip/STM32F4xx_StdPeriph_Driver/src/stm32f4xx_sdio.c **** #define DCTRL_RWSTOP_BB           (PERIPH_BB_BASE + (DCTRL_OFFSET * 32) + (RWSTOP_BitNumber * 4))
 204:lib/chip/STM32F4xx_StdPeriph_Driver/src/stm32f4xx_sdio.c **** 
 205:lib/chip/STM32F4xx_StdPeriph_Driver/src/stm32f4xx_sdio.c **** /* Alias word address of RWMOD bit */
 206:lib/chip/STM32F4xx_StdPeriph_Driver/src/stm32f4xx_sdio.c **** #define RWMOD_BitNumber           0x0A
 207:lib/chip/STM32F4xx_StdPeriph_Driver/src/stm32f4xx_sdio.c **** #define DCTRL_RWMOD_BB            (PERIPH_BB_BASE + (DCTRL_OFFSET * 32) + (RWMOD_BitNumber * 4))
 208:lib/chip/STM32F4xx_StdPeriph_Driver/src/stm32f4xx_sdio.c **** 
 209:lib/chip/STM32F4xx_StdPeriph_Driver/src/stm32f4xx_sdio.c **** /* Alias word address of SDIOEN bit */
 210:lib/chip/STM32F4xx_StdPeriph_Driver/src/stm32f4xx_sdio.c **** #define SDIOEN_BitNumber          0x0B
 211:lib/chip/STM32F4xx_StdPeriph_Driver/src/stm32f4xx_sdio.c **** #define DCTRL_SDIOEN_BB           (PERIPH_BB_BASE + (DCTRL_OFFSET * 32) + (SDIOEN_BitNumber * 4))
 212:lib/chip/STM32F4xx_StdPeriph_Driver/src/stm32f4xx_sdio.c **** 
 213:lib/chip/STM32F4xx_StdPeriph_Driver/src/stm32f4xx_sdio.c **** /* ---------------------- SDIO registers bit mask ------------------------ */
 214:lib/chip/STM32F4xx_StdPeriph_Driver/src/stm32f4xx_sdio.c **** /* --- CLKCR Register ---*/
 215:lib/chip/STM32F4xx_StdPeriph_Driver/src/stm32f4xx_sdio.c **** /* CLKCR register clear mask */
 216:lib/chip/STM32F4xx_StdPeriph_Driver/src/stm32f4xx_sdio.c **** #define CLKCR_CLEAR_MASK         ((uint32_t)0xFFFF8100) 
 217:lib/chip/STM32F4xx_StdPeriph_Driver/src/stm32f4xx_sdio.c **** 
 218:lib/chip/STM32F4xx_StdPeriph_Driver/src/stm32f4xx_sdio.c **** /* --- PWRCTRL Register ---*/
 219:lib/chip/STM32F4xx_StdPeriph_Driver/src/stm32f4xx_sdio.c **** /* SDIO PWRCTRL Mask */
 220:lib/chip/STM32F4xx_StdPeriph_Driver/src/stm32f4xx_sdio.c **** #define PWR_PWRCTRL_MASK         ((uint32_t)0xFFFFFFFC)
 221:lib/chip/STM32F4xx_StdPeriph_Driver/src/stm32f4xx_sdio.c **** 
 222:lib/chip/STM32F4xx_StdPeriph_Driver/src/stm32f4xx_sdio.c **** /* --- DCTRL Register ---*/
 223:lib/chip/STM32F4xx_StdPeriph_Driver/src/stm32f4xx_sdio.c **** /* SDIO DCTRL Clear Mask */
 224:lib/chip/STM32F4xx_StdPeriph_Driver/src/stm32f4xx_sdio.c **** #define DCTRL_CLEAR_MASK         ((uint32_t)0xFFFFFF08)
 225:lib/chip/STM32F4xx_StdPeriph_Driver/src/stm32f4xx_sdio.c **** 
 226:lib/chip/STM32F4xx_StdPeriph_Driver/src/stm32f4xx_sdio.c **** /* --- CMD Register ---*/
 227:lib/chip/STM32F4xx_StdPeriph_Driver/src/stm32f4xx_sdio.c **** /* CMD Register clear mask */
 228:lib/chip/STM32F4xx_StdPeriph_Driver/src/stm32f4xx_sdio.c **** #define CMD_CLEAR_MASK           ((uint32_t)0xFFFFF800)
 229:lib/chip/STM32F4xx_StdPeriph_Driver/src/stm32f4xx_sdio.c **** 
 230:lib/chip/STM32F4xx_StdPeriph_Driver/src/stm32f4xx_sdio.c **** /* SDIO RESP Registers Address */
 231:lib/chip/STM32F4xx_StdPeriph_Driver/src/stm32f4xx_sdio.c **** #define SDIO_RESP_ADDR           ((uint32_t)(SDIO_BASE + 0x14))
 232:lib/chip/STM32F4xx_StdPeriph_Driver/src/stm32f4xx_sdio.c **** 
 233:lib/chip/STM32F4xx_StdPeriph_Driver/src/stm32f4xx_sdio.c **** /* Private macro -------------------------------------------------------------*/
 234:lib/chip/STM32F4xx_StdPeriph_Driver/src/stm32f4xx_sdio.c **** /* Private variables ---------------------------------------------------------*/
 235:lib/chip/STM32F4xx_StdPeriph_Driver/src/stm32f4xx_sdio.c **** /* Private function prototypes -----------------------------------------------*/
 236:lib/chip/STM32F4xx_StdPeriph_Driver/src/stm32f4xx_sdio.c **** /* Private functions ---------------------------------------------------------*/
 237:lib/chip/STM32F4xx_StdPeriph_Driver/src/stm32f4xx_sdio.c **** 
 238:lib/chip/STM32F4xx_StdPeriph_Driver/src/stm32f4xx_sdio.c **** /** @defgroup SDIO_Private_Functions
 239:lib/chip/STM32F4xx_StdPeriph_Driver/src/stm32f4xx_sdio.c ****   * @{
 240:lib/chip/STM32F4xx_StdPeriph_Driver/src/stm32f4xx_sdio.c ****   */
 241:lib/chip/STM32F4xx_StdPeriph_Driver/src/stm32f4xx_sdio.c **** 
 242:lib/chip/STM32F4xx_StdPeriph_Driver/src/stm32f4xx_sdio.c **** /** @defgroup SDIO_Group1 Initialization and Configuration functions
 243:lib/chip/STM32F4xx_StdPeriph_Driver/src/stm32f4xx_sdio.c ****  *  @brief   Initialization and Configuration functions 
 244:lib/chip/STM32F4xx_StdPeriph_Driver/src/stm32f4xx_sdio.c ****  *
 245:lib/chip/STM32F4xx_StdPeriph_Driver/src/stm32f4xx_sdio.c **** @verbatim   
 246:lib/chip/STM32F4xx_StdPeriph_Driver/src/stm32f4xx_sdio.c ****  ===============================================================================
 247:lib/chip/STM32F4xx_StdPeriph_Driver/src/stm32f4xx_sdio.c ****                  Initialization and Configuration functions
 248:lib/chip/STM32F4xx_StdPeriph_Driver/src/stm32f4xx_sdio.c ****  ===============================================================================
 249:lib/chip/STM32F4xx_StdPeriph_Driver/src/stm32f4xx_sdio.c **** 
 250:lib/chip/STM32F4xx_StdPeriph_Driver/src/stm32f4xx_sdio.c **** @endverbatim
 251:lib/chip/STM32F4xx_StdPeriph_Driver/src/stm32f4xx_sdio.c ****   * @{
 252:lib/chip/STM32F4xx_StdPeriph_Driver/src/stm32f4xx_sdio.c ****   */
 253:lib/chip/STM32F4xx_StdPeriph_Driver/src/stm32f4xx_sdio.c **** 
 254:lib/chip/STM32F4xx_StdPeriph_Driver/src/stm32f4xx_sdio.c **** /**
 255:lib/chip/STM32F4xx_StdPeriph_Driver/src/stm32f4xx_sdio.c ****   * @brief  Deinitializes the SDIO peripheral registers to their default reset values.
 256:lib/chip/STM32F4xx_StdPeriph_Driver/src/stm32f4xx_sdio.c ****   * @param  None
 257:lib/chip/STM32F4xx_StdPeriph_Driver/src/stm32f4xx_sdio.c ****   * @retval None
 258:lib/chip/STM32F4xx_StdPeriph_Driver/src/stm32f4xx_sdio.c ****   */
 259:lib/chip/STM32F4xx_StdPeriph_Driver/src/stm32f4xx_sdio.c **** void SDIO_DeInit(void)
 260:lib/chip/STM32F4xx_StdPeriph_Driver/src/stm32f4xx_sdio.c **** {
  28              		.loc 1 260 0
  29              		.cfi_startproc
  30              		@ args = 0, pretend = 0, frame = 0
  31              		@ frame_needed = 1, uses_anonymous_args = 0
  32 0000 80B5     		push	{r7, lr}
  33              	.LCFI0:
  34              		.cfi_def_cfa_offset 8
  35              		.cfi_offset 7, -8
  36              		.cfi_offset 14, -4
  37 0002 00AF     		add	r7, sp, #0
  38              	.LCFI1:
  39              		.cfi_def_cfa_register 7
 261:lib/chip/STM32F4xx_StdPeriph_Driver/src/stm32f4xx_sdio.c ****   RCC_APB2PeriphResetCmd(RCC_APB2Periph_SDIO, ENABLE);
  40              		.loc 1 261 0
  41 0004 4FF40060 		mov	r0, #2048
  42 0008 0121     		movs	r1, #1
  43 000a FFF7FEFF 		bl	RCC_APB2PeriphResetCmd
 262:lib/chip/STM32F4xx_StdPeriph_Driver/src/stm32f4xx_sdio.c ****   RCC_APB2PeriphResetCmd(RCC_APB2Periph_SDIO, DISABLE);
  44              		.loc 1 262 0
  45 000e 4FF40060 		mov	r0, #2048
  46 0012 0021     		movs	r1, #0
  47 0014 FFF7FEFF 		bl	RCC_APB2PeriphResetCmd
 263:lib/chip/STM32F4xx_StdPeriph_Driver/src/stm32f4xx_sdio.c **** }
  48              		.loc 1 263 0
  49 0018 80BD     		pop	{r7, pc}
  50              		.cfi_endproc
  51              	.LFE110:
  53 001a 00BF     		.section	.rodata
  54              		.align	2
  55              	.LC0:
  56 0000 6C69622F 		.ascii	"lib/chip/STM32F4xx_StdPeriph_Driver/src/stm32f4xx_s"
  56      63686970 
  56      2F53544D 
  56      33324634 
  56      78785F53 
  57 0033 64696F2E 		.ascii	"dio.c\000"
  57      6300
  58 0039 000000   		.section	.text.SDIO_Init,"ax",%progbits
  59              		.align	2
  60              		.global	SDIO_Init
  61              		.thumb
  62              		.thumb_func
  64              	SDIO_Init:
  65              	.LFB111:
 264:lib/chip/STM32F4xx_StdPeriph_Driver/src/stm32f4xx_sdio.c **** 
 265:lib/chip/STM32F4xx_StdPeriph_Driver/src/stm32f4xx_sdio.c **** /**
 266:lib/chip/STM32F4xx_StdPeriph_Driver/src/stm32f4xx_sdio.c ****   * @brief  Initializes the SDIO peripheral according to the specified 
 267:lib/chip/STM32F4xx_StdPeriph_Driver/src/stm32f4xx_sdio.c ****   *         parameters in the SDIO_InitStruct.
 268:lib/chip/STM32F4xx_StdPeriph_Driver/src/stm32f4xx_sdio.c ****   * @param  SDIO_InitStruct : pointer to a SDIO_InitTypeDef structure 
 269:lib/chip/STM32F4xx_StdPeriph_Driver/src/stm32f4xx_sdio.c ****   *         that contains the configuration information for the SDIO peripheral.
 270:lib/chip/STM32F4xx_StdPeriph_Driver/src/stm32f4xx_sdio.c ****   * @retval None
 271:lib/chip/STM32F4xx_StdPeriph_Driver/src/stm32f4xx_sdio.c ****   */
 272:lib/chip/STM32F4xx_StdPeriph_Driver/src/stm32f4xx_sdio.c **** void SDIO_Init(SDIO_InitTypeDef* SDIO_InitStruct)
 273:lib/chip/STM32F4xx_StdPeriph_Driver/src/stm32f4xx_sdio.c **** {
  66              		.loc 1 273 0
  67              		.cfi_startproc
  68              		@ args = 0, pretend = 0, frame = 16
  69              		@ frame_needed = 1, uses_anonymous_args = 0
  70 0000 80B5     		push	{r7, lr}
  71              	.LCFI2:
  72              		.cfi_def_cfa_offset 8
  73              		.cfi_offset 7, -8
  74              		.cfi_offset 14, -4
  75 0002 84B0     		sub	sp, sp, #16
  76              	.LCFI3:
  77              		.cfi_def_cfa_offset 24
  78 0004 00AF     		add	r7, sp, #0
  79              	.LCFI4:
  80              		.cfi_def_cfa_register 7
  81 0006 7860     		str	r0, [r7, #4]
 274:lib/chip/STM32F4xx_StdPeriph_Driver/src/stm32f4xx_sdio.c ****   uint32_t tmpreg = 0;
  82              		.loc 1 274 0
  83 0008 0023     		movs	r3, #0
  84 000a FB60     		str	r3, [r7, #12]
 275:lib/chip/STM32F4xx_StdPeriph_Driver/src/stm32f4xx_sdio.c ****     
 276:lib/chip/STM32F4xx_StdPeriph_Driver/src/stm32f4xx_sdio.c ****   /* Check the parameters */
 277:lib/chip/STM32F4xx_StdPeriph_Driver/src/stm32f4xx_sdio.c ****   assert_param(IS_SDIO_CLOCK_EDGE(SDIO_InitStruct->SDIO_ClockEdge));
  85              		.loc 1 277 0
  86 000c 7B68     		ldr	r3, [r7, #4]
  87 000e 1B68     		ldr	r3, [r3]
  88 0010 002B     		cmp	r3, #0
  89 0012 0CD0     		beq	.L3
  90              		.loc 1 277 0 is_stmt 0 discriminator 1
  91 0014 7B68     		ldr	r3, [r7, #4]
  92 0016 1B68     		ldr	r3, [r3]
  93 0018 B3F5005F 		cmp	r3, #8192
  94 001c 07D0     		beq	.L3
  95 001e 40F20000 		movw	r0, #:lower16:.LC0
  96 0022 C0F20000 		movt	r0, #:upper16:.LC0
  97 0026 40F21511 		movw	r1, #277
  98 002a FFF7FEFF 		bl	assert_failed
  99              	.L3:
 278:lib/chip/STM32F4xx_StdPeriph_Driver/src/stm32f4xx_sdio.c ****   assert_param(IS_SDIO_CLOCK_BYPASS(SDIO_InitStruct->SDIO_ClockBypass));
 100              		.loc 1 278 0 is_stmt 1
 101 002e 7B68     		ldr	r3, [r7, #4]
 102 0030 5B68     		ldr	r3, [r3, #4]
 103 0032 002B     		cmp	r3, #0
 104 0034 0CD0     		beq	.L4
 105              		.loc 1 278 0 is_stmt 0 discriminator 1
 106 0036 7B68     		ldr	r3, [r7, #4]
 107 0038 5B68     		ldr	r3, [r3, #4]
 108 003a B3F5806F 		cmp	r3, #1024
 109 003e 07D0     		beq	.L4
 110 0040 40F20000 		movw	r0, #:lower16:.LC0
 111 0044 C0F20000 		movt	r0, #:upper16:.LC0
 112 0048 4FF48B71 		mov	r1, #278
 113 004c FFF7FEFF 		bl	assert_failed
 114              	.L4:
 279:lib/chip/STM32F4xx_StdPeriph_Driver/src/stm32f4xx_sdio.c ****   assert_param(IS_SDIO_CLOCK_POWER_SAVE(SDIO_InitStruct->SDIO_ClockPowerSave));
 115              		.loc 1 279 0 is_stmt 1
 116 0050 7B68     		ldr	r3, [r7, #4]
 117 0052 9B68     		ldr	r3, [r3, #8]
 118 0054 002B     		cmp	r3, #0
 119 0056 0CD0     		beq	.L5
 120              		.loc 1 279 0 is_stmt 0 discriminator 1
 121 0058 7B68     		ldr	r3, [r7, #4]
 122 005a 9B68     		ldr	r3, [r3, #8]
 123 005c B3F5007F 		cmp	r3, #512
 124 0060 07D0     		beq	.L5
 125 0062 40F20000 		movw	r0, #:lower16:.LC0
 126 0066 C0F20000 		movt	r0, #:upper16:.LC0
 127 006a 40F21711 		movw	r1, #279
 128 006e FFF7FEFF 		bl	assert_failed
 129              	.L5:
 280:lib/chip/STM32F4xx_StdPeriph_Driver/src/stm32f4xx_sdio.c ****   assert_param(IS_SDIO_BUS_WIDE(SDIO_InitStruct->SDIO_BusWide));
 130              		.loc 1 280 0 is_stmt 1
 131 0072 7B68     		ldr	r3, [r7, #4]
 132 0074 DB68     		ldr	r3, [r3, #12]
 133 0076 002B     		cmp	r3, #0
 134 0078 11D0     		beq	.L6
 135              		.loc 1 280 0 is_stmt 0 discriminator 1
 136 007a 7B68     		ldr	r3, [r7, #4]
 137 007c DB68     		ldr	r3, [r3, #12]
 138 007e B3F5006F 		cmp	r3, #2048
 139 0082 0CD0     		beq	.L6
 140 0084 7B68     		ldr	r3, [r7, #4]
 141 0086 DB68     		ldr	r3, [r3, #12]
 142 0088 B3F5805F 		cmp	r3, #4096
 143 008c 07D0     		beq	.L6
 144 008e 40F20000 		movw	r0, #:lower16:.LC0
 145 0092 C0F20000 		movt	r0, #:upper16:.LC0
 146 0096 4FF48C71 		mov	r1, #280
 147 009a FFF7FEFF 		bl	assert_failed
 148              	.L6:
 281:lib/chip/STM32F4xx_StdPeriph_Driver/src/stm32f4xx_sdio.c ****   assert_param(IS_SDIO_HARDWARE_FLOW_CONTROL(SDIO_InitStruct->SDIO_HardwareFlowControl)); 
 149              		.loc 1 281 0 is_stmt 1
 150 009e 7B68     		ldr	r3, [r7, #4]
 151 00a0 1B69     		ldr	r3, [r3, #16]
 152 00a2 002B     		cmp	r3, #0
 153 00a4 0CD0     		beq	.L7
 154              		.loc 1 281 0 is_stmt 0 discriminator 1
 155 00a6 7B68     		ldr	r3, [r7, #4]
 156 00a8 1B69     		ldr	r3, [r3, #16]
 157 00aa B3F5804F 		cmp	r3, #16384
 158 00ae 07D0     		beq	.L7
 159 00b0 40F20000 		movw	r0, #:lower16:.LC0
 160 00b4 C0F20000 		movt	r0, #:upper16:.LC0
 161 00b8 40F21911 		movw	r1, #281
 162 00bc FFF7FEFF 		bl	assert_failed
 163              	.L7:
 282:lib/chip/STM32F4xx_StdPeriph_Driver/src/stm32f4xx_sdio.c ****    
 283:lib/chip/STM32F4xx_StdPeriph_Driver/src/stm32f4xx_sdio.c **** /*---------------------------- SDIO CLKCR Configuration ------------------------*/  
 284:lib/chip/STM32F4xx_StdPeriph_Driver/src/stm32f4xx_sdio.c ****   /* Get the SDIO CLKCR value */
 285:lib/chip/STM32F4xx_StdPeriph_Driver/src/stm32f4xx_sdio.c ****   tmpreg = SDIO->CLKCR;
 164              		.loc 1 285 0 is_stmt 1
 165 00c0 4FF43053 		mov	r3, #11264
 166 00c4 C4F20103 		movt	r3, 16385
 167 00c8 5B68     		ldr	r3, [r3, #4]
 168 00ca FB60     		str	r3, [r7, #12]
 286:lib/chip/STM32F4xx_StdPeriph_Driver/src/stm32f4xx_sdio.c ****   
 287:lib/chip/STM32F4xx_StdPeriph_Driver/src/stm32f4xx_sdio.c ****   /* Clear CLKDIV, PWRSAV, BYPASS, WIDBUS, NEGEDGE, HWFC_EN bits */
 288:lib/chip/STM32F4xx_StdPeriph_Driver/src/stm32f4xx_sdio.c ****   tmpreg &= CLKCR_CLEAR_MASK;
 169              		.loc 1 288 0
 170 00cc FB68     		ldr	r3, [r7, #12]
 171 00ce 23F4FD43 		bic	r3, r3, #32384
 172 00d2 23F07F03 		bic	r3, r3, #127
 173 00d6 FB60     		str	r3, [r7, #12]
 289:lib/chip/STM32F4xx_StdPeriph_Driver/src/stm32f4xx_sdio.c ****   
 290:lib/chip/STM32F4xx_StdPeriph_Driver/src/stm32f4xx_sdio.c ****   /* Set CLKDIV bits according to SDIO_ClockDiv value */
 291:lib/chip/STM32F4xx_StdPeriph_Driver/src/stm32f4xx_sdio.c ****   /* Set PWRSAV bit according to SDIO_ClockPowerSave value */
 292:lib/chip/STM32F4xx_StdPeriph_Driver/src/stm32f4xx_sdio.c ****   /* Set BYPASS bit according to SDIO_ClockBypass value */
 293:lib/chip/STM32F4xx_StdPeriph_Driver/src/stm32f4xx_sdio.c ****   /* Set WIDBUS bits according to SDIO_BusWide value */
 294:lib/chip/STM32F4xx_StdPeriph_Driver/src/stm32f4xx_sdio.c ****   /* Set NEGEDGE bits according to SDIO_ClockEdge value */
 295:lib/chip/STM32F4xx_StdPeriph_Driver/src/stm32f4xx_sdio.c ****   /* Set HWFC_EN bits according to SDIO_HardwareFlowControl value */
 296:lib/chip/STM32F4xx_StdPeriph_Driver/src/stm32f4xx_sdio.c ****   tmpreg |= (SDIO_InitStruct->SDIO_ClockDiv  | SDIO_InitStruct->SDIO_ClockPowerSave |
 174              		.loc 1 296 0
 175 00d8 7B68     		ldr	r3, [r7, #4]
 176 00da 1B7D     		ldrb	r3, [r3, #20]	@ zero_extendqisi2
 177 00dc 1A46     		mov	r2, r3
 178 00de 7B68     		ldr	r3, [r7, #4]
 179 00e0 9B68     		ldr	r3, [r3, #8]
 180 00e2 1A43     		orrs	r2, r2, r3
 297:lib/chip/STM32F4xx_StdPeriph_Driver/src/stm32f4xx_sdio.c ****              SDIO_InitStruct->SDIO_ClockBypass | SDIO_InitStruct->SDIO_BusWide |
 181              		.loc 1 297 0
 182 00e4 7B68     		ldr	r3, [r7, #4]
 183 00e6 5B68     		ldr	r3, [r3, #4]
 296:lib/chip/STM32F4xx_StdPeriph_Driver/src/stm32f4xx_sdio.c ****              SDIO_InitStruct->SDIO_ClockBypass | SDIO_InitStruct->SDIO_BusWide |
 184              		.loc 1 296 0
 185 00e8 1A43     		orrs	r2, r2, r3
 186              		.loc 1 297 0
 187 00ea 7B68     		ldr	r3, [r7, #4]
 188 00ec DB68     		ldr	r3, [r3, #12]
 189 00ee 1A43     		orrs	r2, r2, r3
 298:lib/chip/STM32F4xx_StdPeriph_Driver/src/stm32f4xx_sdio.c ****              SDIO_InitStruct->SDIO_ClockEdge | SDIO_InitStruct->SDIO_HardwareFlowControl); 
 190              		.loc 1 298 0
 191 00f0 7B68     		ldr	r3, [r7, #4]
 192 00f2 1B68     		ldr	r3, [r3]
 297:lib/chip/STM32F4xx_StdPeriph_Driver/src/stm32f4xx_sdio.c ****              SDIO_InitStruct->SDIO_ClockBypass | SDIO_InitStruct->SDIO_BusWide |
 193              		.loc 1 297 0
 194 00f4 1A43     		orrs	r2, r2, r3
 195              		.loc 1 298 0
 196 00f6 7B68     		ldr	r3, [r7, #4]
 197 00f8 1B69     		ldr	r3, [r3, #16]
 198 00fa 1343     		orrs	r3, r3, r2
 296:lib/chip/STM32F4xx_StdPeriph_Driver/src/stm32f4xx_sdio.c ****              SDIO_InitStruct->SDIO_ClockBypass | SDIO_InitStruct->SDIO_BusWide |
 199              		.loc 1 296 0
 200 00fc FA68     		ldr	r2, [r7, #12]
 201 00fe 1343     		orrs	r3, r3, r2
 202 0100 FB60     		str	r3, [r7, #12]
 299:lib/chip/STM32F4xx_StdPeriph_Driver/src/stm32f4xx_sdio.c ****   
 300:lib/chip/STM32F4xx_StdPeriph_Driver/src/stm32f4xx_sdio.c ****   /* Write to SDIO CLKCR */
 301:lib/chip/STM32F4xx_StdPeriph_Driver/src/stm32f4xx_sdio.c ****   SDIO->CLKCR = tmpreg;
 203              		.loc 1 301 0
 204 0102 4FF43053 		mov	r3, #11264
 205 0106 C4F20103 		movt	r3, 16385
 206 010a FA68     		ldr	r2, [r7, #12]
 207 010c 5A60     		str	r2, [r3, #4]
 302:lib/chip/STM32F4xx_StdPeriph_Driver/src/stm32f4xx_sdio.c **** }
 208              		.loc 1 302 0
 209 010e 1037     		adds	r7, r7, #16
 210 0110 BD46     		mov	sp, r7
 211              		@ sp needed
 212 0112 80BD     		pop	{r7, pc}
 213              		.cfi_endproc
 214              	.LFE111:
 216              		.section	.text.SDIO_StructInit,"ax",%progbits
 217              		.align	2
 218              		.global	SDIO_StructInit
 219              		.thumb
 220              		.thumb_func
 222              	SDIO_StructInit:
 223              	.LFB112:
 303:lib/chip/STM32F4xx_StdPeriph_Driver/src/stm32f4xx_sdio.c **** 
 304:lib/chip/STM32F4xx_StdPeriph_Driver/src/stm32f4xx_sdio.c **** /**
 305:lib/chip/STM32F4xx_StdPeriph_Driver/src/stm32f4xx_sdio.c ****   * @brief  Fills each SDIO_InitStruct member with its default value.
 306:lib/chip/STM32F4xx_StdPeriph_Driver/src/stm32f4xx_sdio.c ****   * @param  SDIO_InitStruct: pointer to an SDIO_InitTypeDef structure which 
 307:lib/chip/STM32F4xx_StdPeriph_Driver/src/stm32f4xx_sdio.c ****   *         will be initialized.
 308:lib/chip/STM32F4xx_StdPeriph_Driver/src/stm32f4xx_sdio.c ****   * @retval None
 309:lib/chip/STM32F4xx_StdPeriph_Driver/src/stm32f4xx_sdio.c ****   */
 310:lib/chip/STM32F4xx_StdPeriph_Driver/src/stm32f4xx_sdio.c **** void SDIO_StructInit(SDIO_InitTypeDef* SDIO_InitStruct)
 311:lib/chip/STM32F4xx_StdPeriph_Driver/src/stm32f4xx_sdio.c **** {
 224              		.loc 1 311 0
 225              		.cfi_startproc
 226              		@ args = 0, pretend = 0, frame = 8
 227              		@ frame_needed = 1, uses_anonymous_args = 0
 228              		@ link register save eliminated.
 229 0000 80B4     		push	{r7}
 230              	.LCFI5:
 231              		.cfi_def_cfa_offset 4
 232              		.cfi_offset 7, -4
 233 0002 83B0     		sub	sp, sp, #12
 234              	.LCFI6:
 235              		.cfi_def_cfa_offset 16
 236 0004 00AF     		add	r7, sp, #0
 237              	.LCFI7:
 238              		.cfi_def_cfa_register 7
 239 0006 7860     		str	r0, [r7, #4]
 312:lib/chip/STM32F4xx_StdPeriph_Driver/src/stm32f4xx_sdio.c ****   /* SDIO_InitStruct members default value */
 313:lib/chip/STM32F4xx_StdPeriph_Driver/src/stm32f4xx_sdio.c ****   SDIO_InitStruct->SDIO_ClockDiv = 0x00;
 240              		.loc 1 313 0
 241 0008 7B68     		ldr	r3, [r7, #4]
 242 000a 0022     		movs	r2, #0
 243 000c 1A75     		strb	r2, [r3, #20]
 314:lib/chip/STM32F4xx_StdPeriph_Driver/src/stm32f4xx_sdio.c ****   SDIO_InitStruct->SDIO_ClockEdge = SDIO_ClockEdge_Rising;
 244              		.loc 1 314 0
 245 000e 7B68     		ldr	r3, [r7, #4]
 246 0010 0022     		movs	r2, #0
 247 0012 1A60     		str	r2, [r3]
 315:lib/chip/STM32F4xx_StdPeriph_Driver/src/stm32f4xx_sdio.c ****   SDIO_InitStruct->SDIO_ClockBypass = SDIO_ClockBypass_Disable;
 248              		.loc 1 315 0
 249 0014 7B68     		ldr	r3, [r7, #4]
 250 0016 0022     		movs	r2, #0
 251 0018 5A60     		str	r2, [r3, #4]
 316:lib/chip/STM32F4xx_StdPeriph_Driver/src/stm32f4xx_sdio.c ****   SDIO_InitStruct->SDIO_ClockPowerSave = SDIO_ClockPowerSave_Disable;
 252              		.loc 1 316 0
 253 001a 7B68     		ldr	r3, [r7, #4]
 254 001c 0022     		movs	r2, #0
 255 001e 9A60     		str	r2, [r3, #8]
 317:lib/chip/STM32F4xx_StdPeriph_Driver/src/stm32f4xx_sdio.c ****   SDIO_InitStruct->SDIO_BusWide = SDIO_BusWide_1b;
 256              		.loc 1 317 0
 257 0020 7B68     		ldr	r3, [r7, #4]
 258 0022 0022     		movs	r2, #0
 259 0024 DA60     		str	r2, [r3, #12]
 318:lib/chip/STM32F4xx_StdPeriph_Driver/src/stm32f4xx_sdio.c ****   SDIO_InitStruct->SDIO_HardwareFlowControl = SDIO_HardwareFlowControl_Disable;
 260              		.loc 1 318 0
 261 0026 7B68     		ldr	r3, [r7, #4]
 262 0028 0022     		movs	r2, #0
 263 002a 1A61     		str	r2, [r3, #16]
 319:lib/chip/STM32F4xx_StdPeriph_Driver/src/stm32f4xx_sdio.c **** }
 264              		.loc 1 319 0
 265 002c 0C37     		adds	r7, r7, #12
 266 002e BD46     		mov	sp, r7
 267              		@ sp needed
 268 0030 5DF8047B 		ldr	r7, [sp], #4
 269 0034 7047     		bx	lr
 270              		.cfi_endproc
 271              	.LFE112:
 273 0036 00BF     		.section	.text.SDIO_ClockCmd,"ax",%progbits
 274              		.align	2
 275              		.global	SDIO_ClockCmd
 276              		.thumb
 277              		.thumb_func
 279              	SDIO_ClockCmd:
 280              	.LFB113:
 320:lib/chip/STM32F4xx_StdPeriph_Driver/src/stm32f4xx_sdio.c **** 
 321:lib/chip/STM32F4xx_StdPeriph_Driver/src/stm32f4xx_sdio.c **** /**
 322:lib/chip/STM32F4xx_StdPeriph_Driver/src/stm32f4xx_sdio.c ****   * @brief  Enables or disables the SDIO Clock.
 323:lib/chip/STM32F4xx_StdPeriph_Driver/src/stm32f4xx_sdio.c ****   * @param  NewState: new state of the SDIO Clock. 
 324:lib/chip/STM32F4xx_StdPeriph_Driver/src/stm32f4xx_sdio.c ****   *         This parameter can be: ENABLE or DISABLE.
 325:lib/chip/STM32F4xx_StdPeriph_Driver/src/stm32f4xx_sdio.c ****   * @retval None
 326:lib/chip/STM32F4xx_StdPeriph_Driver/src/stm32f4xx_sdio.c ****   */
 327:lib/chip/STM32F4xx_StdPeriph_Driver/src/stm32f4xx_sdio.c **** void SDIO_ClockCmd(FunctionalState NewState)
 328:lib/chip/STM32F4xx_StdPeriph_Driver/src/stm32f4xx_sdio.c **** {
 281              		.loc 1 328 0
 282              		.cfi_startproc
 283              		@ args = 0, pretend = 0, frame = 8
 284              		@ frame_needed = 1, uses_anonymous_args = 0
 285 0000 80B5     		push	{r7, lr}
 286              	.LCFI8:
 287              		.cfi_def_cfa_offset 8
 288              		.cfi_offset 7, -8
 289              		.cfi_offset 14, -4
 290 0002 82B0     		sub	sp, sp, #8
 291              	.LCFI9:
 292              		.cfi_def_cfa_offset 16
 293 0004 00AF     		add	r7, sp, #0
 294              	.LCFI10:
 295              		.cfi_def_cfa_register 7
 296 0006 0346     		mov	r3, r0
 297 0008 FB71     		strb	r3, [r7, #7]
 329:lib/chip/STM32F4xx_StdPeriph_Driver/src/stm32f4xx_sdio.c ****   /* Check the parameters */
 330:lib/chip/STM32F4xx_StdPeriph_Driver/src/stm32f4xx_sdio.c ****   assert_param(IS_FUNCTIONAL_STATE(NewState));
 298              		.loc 1 330 0
 299 000a FB79     		ldrb	r3, [r7, #7]	@ zero_extendqisi2
 300 000c 002B     		cmp	r3, #0
 301 000e 0AD0     		beq	.L10
 302              		.loc 1 330 0 is_stmt 0 discriminator 1
 303 0010 FB79     		ldrb	r3, [r7, #7]	@ zero_extendqisi2
 304 0012 012B     		cmp	r3, #1
 305 0014 07D0     		beq	.L10
 306 0016 40F20000 		movw	r0, #:lower16:.LC0
 307 001a C0F20000 		movt	r0, #:upper16:.LC0
 308 001e 4FF4A571 		mov	r1, #330
 309 0022 FFF7FEFF 		bl	assert_failed
 310              	.L10:
 331:lib/chip/STM32F4xx_StdPeriph_Driver/src/stm32f4xx_sdio.c ****   
 332:lib/chip/STM32F4xx_StdPeriph_Driver/src/stm32f4xx_sdio.c ****   *(__IO uint32_t *) CLKCR_CLKEN_BB = (uint32_t)NewState;
 311              		.loc 1 332 0 is_stmt 1
 312 0026 48F2A003 		movw	r3, #32928
 313 002a C4F22523 		movt	r3, 16933
 314 002e FA79     		ldrb	r2, [r7, #7]	@ zero_extendqisi2
 315 0030 1A60     		str	r2, [r3]
 333:lib/chip/STM32F4xx_StdPeriph_Driver/src/stm32f4xx_sdio.c **** }
 316              		.loc 1 333 0
 317 0032 0837     		adds	r7, r7, #8
 318 0034 BD46     		mov	sp, r7
 319              		@ sp needed
 320 0036 80BD     		pop	{r7, pc}
 321              		.cfi_endproc
 322              	.LFE113:
 324              		.section	.text.SDIO_SetPowerState,"ax",%progbits
 325              		.align	2
 326              		.global	SDIO_SetPowerState
 327              		.thumb
 328              		.thumb_func
 330              	SDIO_SetPowerState:
 331              	.LFB114:
 334:lib/chip/STM32F4xx_StdPeriph_Driver/src/stm32f4xx_sdio.c **** 
 335:lib/chip/STM32F4xx_StdPeriph_Driver/src/stm32f4xx_sdio.c **** /**
 336:lib/chip/STM32F4xx_StdPeriph_Driver/src/stm32f4xx_sdio.c ****   * @brief  Sets the power status of the controller.
 337:lib/chip/STM32F4xx_StdPeriph_Driver/src/stm32f4xx_sdio.c ****   * @param  SDIO_PowerState: new state of the Power state. 
 338:lib/chip/STM32F4xx_StdPeriph_Driver/src/stm32f4xx_sdio.c ****   *          This parameter can be one of the following values:
 339:lib/chip/STM32F4xx_StdPeriph_Driver/src/stm32f4xx_sdio.c ****   *            @arg SDIO_PowerState_OFF: SDIO Power OFF
 340:lib/chip/STM32F4xx_StdPeriph_Driver/src/stm32f4xx_sdio.c ****   *            @arg SDIO_PowerState_ON: SDIO Power ON
 341:lib/chip/STM32F4xx_StdPeriph_Driver/src/stm32f4xx_sdio.c ****   * @retval None
 342:lib/chip/STM32F4xx_StdPeriph_Driver/src/stm32f4xx_sdio.c ****   */
 343:lib/chip/STM32F4xx_StdPeriph_Driver/src/stm32f4xx_sdio.c **** void SDIO_SetPowerState(uint32_t SDIO_PowerState)
 344:lib/chip/STM32F4xx_StdPeriph_Driver/src/stm32f4xx_sdio.c **** {
 332              		.loc 1 344 0
 333              		.cfi_startproc
 334              		@ args = 0, pretend = 0, frame = 8
 335              		@ frame_needed = 1, uses_anonymous_args = 0
 336 0000 80B5     		push	{r7, lr}
 337              	.LCFI11:
 338              		.cfi_def_cfa_offset 8
 339              		.cfi_offset 7, -8
 340              		.cfi_offset 14, -4
 341 0002 82B0     		sub	sp, sp, #8
 342              	.LCFI12:
 343              		.cfi_def_cfa_offset 16
 344 0004 00AF     		add	r7, sp, #0
 345              	.LCFI13:
 346              		.cfi_def_cfa_register 7
 347 0006 7860     		str	r0, [r7, #4]
 345:lib/chip/STM32F4xx_StdPeriph_Driver/src/stm32f4xx_sdio.c ****   /* Check the parameters */
 346:lib/chip/STM32F4xx_StdPeriph_Driver/src/stm32f4xx_sdio.c ****   assert_param(IS_SDIO_POWER_STATE(SDIO_PowerState));
 348              		.loc 1 346 0
 349 0008 7B68     		ldr	r3, [r7, #4]
 350 000a 002B     		cmp	r3, #0
 351 000c 0AD0     		beq	.L12
 352              		.loc 1 346 0 is_stmt 0 discriminator 1
 353 000e 7B68     		ldr	r3, [r7, #4]
 354 0010 032B     		cmp	r3, #3
 355 0012 07D0     		beq	.L12
 356 0014 40F20000 		movw	r0, #:lower16:.LC0
 357 0018 C0F20000 		movt	r0, #:upper16:.LC0
 358 001c 4FF4AD71 		mov	r1, #346
 359 0020 FFF7FEFF 		bl	assert_failed
 360              	.L12:
 347:lib/chip/STM32F4xx_StdPeriph_Driver/src/stm32f4xx_sdio.c ****   
 348:lib/chip/STM32F4xx_StdPeriph_Driver/src/stm32f4xx_sdio.c ****   SDIO->POWER = SDIO_PowerState;
 361              		.loc 1 348 0 is_stmt 1
 362 0024 4FF43053 		mov	r3, #11264
 363 0028 C4F20103 		movt	r3, 16385
 364 002c 7A68     		ldr	r2, [r7, #4]
 365 002e 1A60     		str	r2, [r3]
 349:lib/chip/STM32F4xx_StdPeriph_Driver/src/stm32f4xx_sdio.c **** }
 366              		.loc 1 349 0
 367 0030 0837     		adds	r7, r7, #8
 368 0032 BD46     		mov	sp, r7
 369              		@ sp needed
 370 0034 80BD     		pop	{r7, pc}
 371              		.cfi_endproc
 372              	.LFE114:
 374 0036 00BF     		.section	.text.SDIO_GetPowerState,"ax",%progbits
 375              		.align	2
 376              		.global	SDIO_GetPowerState
 377              		.thumb
 378              		.thumb_func
 380              	SDIO_GetPowerState:
 381              	.LFB115:
 350:lib/chip/STM32F4xx_StdPeriph_Driver/src/stm32f4xx_sdio.c **** 
 351:lib/chip/STM32F4xx_StdPeriph_Driver/src/stm32f4xx_sdio.c **** /**
 352:lib/chip/STM32F4xx_StdPeriph_Driver/src/stm32f4xx_sdio.c ****   * @brief  Gets the power status of the controller.
 353:lib/chip/STM32F4xx_StdPeriph_Driver/src/stm32f4xx_sdio.c ****   * @param  None
 354:lib/chip/STM32F4xx_StdPeriph_Driver/src/stm32f4xx_sdio.c ****   * @retval Power status of the controller. The returned value can be one of the 
 355:lib/chip/STM32F4xx_StdPeriph_Driver/src/stm32f4xx_sdio.c ****   *         following values:
 356:lib/chip/STM32F4xx_StdPeriph_Driver/src/stm32f4xx_sdio.c ****   *            - 0x00: Power OFF
 357:lib/chip/STM32F4xx_StdPeriph_Driver/src/stm32f4xx_sdio.c ****   *            - 0x02: Power UP
 358:lib/chip/STM32F4xx_StdPeriph_Driver/src/stm32f4xx_sdio.c ****   *            - 0x03: Power ON 
 359:lib/chip/STM32F4xx_StdPeriph_Driver/src/stm32f4xx_sdio.c ****   */
 360:lib/chip/STM32F4xx_StdPeriph_Driver/src/stm32f4xx_sdio.c **** uint32_t SDIO_GetPowerState(void)
 361:lib/chip/STM32F4xx_StdPeriph_Driver/src/stm32f4xx_sdio.c **** {
 382              		.loc 1 361 0
 383              		.cfi_startproc
 384              		@ args = 0, pretend = 0, frame = 0
 385              		@ frame_needed = 1, uses_anonymous_args = 0
 386              		@ link register save eliminated.
 387 0000 80B4     		push	{r7}
 388              	.LCFI14:
 389              		.cfi_def_cfa_offset 4
 390              		.cfi_offset 7, -4
 391 0002 00AF     		add	r7, sp, #0
 392              	.LCFI15:
 393              		.cfi_def_cfa_register 7
 362:lib/chip/STM32F4xx_StdPeriph_Driver/src/stm32f4xx_sdio.c ****   return (SDIO->POWER & (~PWR_PWRCTRL_MASK));
 394              		.loc 1 362 0
 395 0004 4FF43053 		mov	r3, #11264
 396 0008 C4F20103 		movt	r3, 16385
 397 000c 1B68     		ldr	r3, [r3]
 398 000e 03F00303 		and	r3, r3, #3
 363:lib/chip/STM32F4xx_StdPeriph_Driver/src/stm32f4xx_sdio.c **** }
 399              		.loc 1 363 0
 400 0012 1846     		mov	r0, r3
 401 0014 BD46     		mov	sp, r7
 402              		@ sp needed
 403 0016 5DF8047B 		ldr	r7, [sp], #4
 404 001a 7047     		bx	lr
 405              		.cfi_endproc
 406              	.LFE115:
 408              		.section	.text.SDIO_SendCommand,"ax",%progbits
 409              		.align	2
 410              		.global	SDIO_SendCommand
 411              		.thumb
 412              		.thumb_func
 414              	SDIO_SendCommand:
 415              	.LFB116:
 364:lib/chip/STM32F4xx_StdPeriph_Driver/src/stm32f4xx_sdio.c **** 
 365:lib/chip/STM32F4xx_StdPeriph_Driver/src/stm32f4xx_sdio.c **** /**
 366:lib/chip/STM32F4xx_StdPeriph_Driver/src/stm32f4xx_sdio.c ****   * @}
 367:lib/chip/STM32F4xx_StdPeriph_Driver/src/stm32f4xx_sdio.c ****   */
 368:lib/chip/STM32F4xx_StdPeriph_Driver/src/stm32f4xx_sdio.c **** 
 369:lib/chip/STM32F4xx_StdPeriph_Driver/src/stm32f4xx_sdio.c **** /** @defgroup SDIO_Group2 Command path state machine (CPSM) management functions
 370:lib/chip/STM32F4xx_StdPeriph_Driver/src/stm32f4xx_sdio.c ****  *  @brief   Command path state machine (CPSM) management functions 
 371:lib/chip/STM32F4xx_StdPeriph_Driver/src/stm32f4xx_sdio.c ****  *
 372:lib/chip/STM32F4xx_StdPeriph_Driver/src/stm32f4xx_sdio.c **** @verbatim   
 373:lib/chip/STM32F4xx_StdPeriph_Driver/src/stm32f4xx_sdio.c ****  ===============================================================================
 374:lib/chip/STM32F4xx_StdPeriph_Driver/src/stm32f4xx_sdio.c ****               Command path state machine (CPSM) management functions
 375:lib/chip/STM32F4xx_StdPeriph_Driver/src/stm32f4xx_sdio.c ****  ===============================================================================  
 376:lib/chip/STM32F4xx_StdPeriph_Driver/src/stm32f4xx_sdio.c **** 
 377:lib/chip/STM32F4xx_StdPeriph_Driver/src/stm32f4xx_sdio.c ****   This section provide functions allowing to program and read the Command path 
 378:lib/chip/STM32F4xx_StdPeriph_Driver/src/stm32f4xx_sdio.c ****   state machine (CPSM).
 379:lib/chip/STM32F4xx_StdPeriph_Driver/src/stm32f4xx_sdio.c **** 
 380:lib/chip/STM32F4xx_StdPeriph_Driver/src/stm32f4xx_sdio.c **** @endverbatim
 381:lib/chip/STM32F4xx_StdPeriph_Driver/src/stm32f4xx_sdio.c ****   * @{
 382:lib/chip/STM32F4xx_StdPeriph_Driver/src/stm32f4xx_sdio.c ****   */
 383:lib/chip/STM32F4xx_StdPeriph_Driver/src/stm32f4xx_sdio.c **** 
 384:lib/chip/STM32F4xx_StdPeriph_Driver/src/stm32f4xx_sdio.c **** /**
 385:lib/chip/STM32F4xx_StdPeriph_Driver/src/stm32f4xx_sdio.c ****   * @brief  Initializes the SDIO Command according to the specified 
 386:lib/chip/STM32F4xx_StdPeriph_Driver/src/stm32f4xx_sdio.c ****   *         parameters in the SDIO_CmdInitStruct and send the command.
 387:lib/chip/STM32F4xx_StdPeriph_Driver/src/stm32f4xx_sdio.c ****   * @param  SDIO_CmdInitStruct : pointer to a SDIO_CmdInitTypeDef 
 388:lib/chip/STM32F4xx_StdPeriph_Driver/src/stm32f4xx_sdio.c ****   *         structure that contains the configuration information for the SDIO 
 389:lib/chip/STM32F4xx_StdPeriph_Driver/src/stm32f4xx_sdio.c ****   *         command.
 390:lib/chip/STM32F4xx_StdPeriph_Driver/src/stm32f4xx_sdio.c ****   * @retval None
 391:lib/chip/STM32F4xx_StdPeriph_Driver/src/stm32f4xx_sdio.c ****   */
 392:lib/chip/STM32F4xx_StdPeriph_Driver/src/stm32f4xx_sdio.c **** void SDIO_SendCommand(SDIO_CmdInitTypeDef *SDIO_CmdInitStruct)
 393:lib/chip/STM32F4xx_StdPeriph_Driver/src/stm32f4xx_sdio.c **** {
 416              		.loc 1 393 0
 417              		.cfi_startproc
 418              		@ args = 0, pretend = 0, frame = 16
 419              		@ frame_needed = 1, uses_anonymous_args = 0
 420 0000 80B5     		push	{r7, lr}
 421              	.LCFI16:
 422              		.cfi_def_cfa_offset 8
 423              		.cfi_offset 7, -8
 424              		.cfi_offset 14, -4
 425 0002 84B0     		sub	sp, sp, #16
 426              	.LCFI17:
 427              		.cfi_def_cfa_offset 24
 428 0004 00AF     		add	r7, sp, #0
 429              	.LCFI18:
 430              		.cfi_def_cfa_register 7
 431 0006 7860     		str	r0, [r7, #4]
 394:lib/chip/STM32F4xx_StdPeriph_Driver/src/stm32f4xx_sdio.c ****   uint32_t tmpreg = 0;
 432              		.loc 1 394 0
 433 0008 0023     		movs	r3, #0
 434 000a FB60     		str	r3, [r7, #12]
 395:lib/chip/STM32F4xx_StdPeriph_Driver/src/stm32f4xx_sdio.c ****   
 396:lib/chip/STM32F4xx_StdPeriph_Driver/src/stm32f4xx_sdio.c ****   /* Check the parameters */
 397:lib/chip/STM32F4xx_StdPeriph_Driver/src/stm32f4xx_sdio.c ****   assert_param(IS_SDIO_CMD_INDEX(SDIO_CmdInitStruct->SDIO_CmdIndex));
 435              		.loc 1 397 0
 436 000c 7B68     		ldr	r3, [r7, #4]
 437 000e 5B68     		ldr	r3, [r3, #4]
 438 0010 3F2B     		cmp	r3, #63
 439 0012 07D9     		bls	.L16
 440              		.loc 1 397 0 is_stmt 0 discriminator 1
 441 0014 40F20000 		movw	r0, #:lower16:.LC0
 442 0018 C0F20000 		movt	r0, #:upper16:.LC0
 443 001c 40F28D11 		movw	r1, #397
 444 0020 FFF7FEFF 		bl	assert_failed
 445              	.L16:
 398:lib/chip/STM32F4xx_StdPeriph_Driver/src/stm32f4xx_sdio.c ****   assert_param(IS_SDIO_RESPONSE(SDIO_CmdInitStruct->SDIO_Response));
 446              		.loc 1 398 0 is_stmt 1
 447 0024 7B68     		ldr	r3, [r7, #4]
 448 0026 9B68     		ldr	r3, [r3, #8]
 449 0028 002B     		cmp	r3, #0
 450 002a 0FD0     		beq	.L17
 451              		.loc 1 398 0 is_stmt 0 discriminator 1
 452 002c 7B68     		ldr	r3, [r7, #4]
 453 002e 9B68     		ldr	r3, [r3, #8]
 454 0030 402B     		cmp	r3, #64
 455 0032 0BD0     		beq	.L17
 456 0034 7B68     		ldr	r3, [r7, #4]
 457 0036 9B68     		ldr	r3, [r3, #8]
 458 0038 C02B     		cmp	r3, #192
 459 003a 07D0     		beq	.L17
 460 003c 40F20000 		movw	r0, #:lower16:.LC0
 461 0040 C0F20000 		movt	r0, #:upper16:.LC0
 462 0044 4FF4C771 		mov	r1, #398
 463 0048 FFF7FEFF 		bl	assert_failed
 464              	.L17:
 399:lib/chip/STM32F4xx_StdPeriph_Driver/src/stm32f4xx_sdio.c ****   assert_param(IS_SDIO_WAIT(SDIO_CmdInitStruct->SDIO_Wait));
 465              		.loc 1 399 0 is_stmt 1
 466 004c 7B68     		ldr	r3, [r7, #4]
 467 004e DB68     		ldr	r3, [r3, #12]
 468 0050 002B     		cmp	r3, #0
 469 0052 11D0     		beq	.L18
 470              		.loc 1 399 0 is_stmt 0 discriminator 1
 471 0054 7B68     		ldr	r3, [r7, #4]
 472 0056 DB68     		ldr	r3, [r3, #12]
 473 0058 B3F5807F 		cmp	r3, #256
 474 005c 0CD0     		beq	.L18
 475 005e 7B68     		ldr	r3, [r7, #4]
 476 0060 DB68     		ldr	r3, [r3, #12]
 477 0062 B3F5007F 		cmp	r3, #512
 478 0066 07D0     		beq	.L18
 479 0068 40F20000 		movw	r0, #:lower16:.LC0
 480 006c C0F20000 		movt	r0, #:upper16:.LC0
 481 0070 40F28F11 		movw	r1, #399
 482 0074 FFF7FEFF 		bl	assert_failed
 483              	.L18:
 400:lib/chip/STM32F4xx_StdPeriph_Driver/src/stm32f4xx_sdio.c ****   assert_param(IS_SDIO_CPSM(SDIO_CmdInitStruct->SDIO_CPSM));
 484              		.loc 1 400 0 is_stmt 1
 485 0078 7B68     		ldr	r3, [r7, #4]
 486 007a 1B69     		ldr	r3, [r3, #16]
 487 007c B3F5806F 		cmp	r3, #1024
 488 0080 0BD0     		beq	.L19
 489              		.loc 1 400 0 is_stmt 0 discriminator 1
 490 0082 7B68     		ldr	r3, [r7, #4]
 491 0084 1B69     		ldr	r3, [r3, #16]
 492 0086 002B     		cmp	r3, #0
 493 0088 07D0     		beq	.L19
 494 008a 40F20000 		movw	r0, #:lower16:.LC0
 495 008e C0F20000 		movt	r0, #:upper16:.LC0
 496 0092 4FF4C871 		mov	r1, #400
 497 0096 FFF7FEFF 		bl	assert_failed
 498              	.L19:
 401:lib/chip/STM32F4xx_StdPeriph_Driver/src/stm32f4xx_sdio.c ****   
 402:lib/chip/STM32F4xx_StdPeriph_Driver/src/stm32f4xx_sdio.c **** /*---------------------------- SDIO ARG Configuration ------------------------*/
 403:lib/chip/STM32F4xx_StdPeriph_Driver/src/stm32f4xx_sdio.c ****   /* Set the SDIO Argument value */
 404:lib/chip/STM32F4xx_StdPeriph_Driver/src/stm32f4xx_sdio.c ****   SDIO->ARG = SDIO_CmdInitStruct->SDIO_Argument;
 499              		.loc 1 404 0 is_stmt 1
 500 009a 4FF43053 		mov	r3, #11264
 501 009e C4F20103 		movt	r3, 16385
 502 00a2 7A68     		ldr	r2, [r7, #4]
 503 00a4 1268     		ldr	r2, [r2]
 504 00a6 9A60     		str	r2, [r3, #8]
 405:lib/chip/STM32F4xx_StdPeriph_Driver/src/stm32f4xx_sdio.c ****   
 406:lib/chip/STM32F4xx_StdPeriph_Driver/src/stm32f4xx_sdio.c **** /*---------------------------- SDIO CMD Configuration ------------------------*/  
 407:lib/chip/STM32F4xx_StdPeriph_Driver/src/stm32f4xx_sdio.c ****   /* Get the SDIO CMD value */
 408:lib/chip/STM32F4xx_StdPeriph_Driver/src/stm32f4xx_sdio.c ****   tmpreg = SDIO->CMD;
 505              		.loc 1 408 0
 506 00a8 4FF43053 		mov	r3, #11264
 507 00ac C4F20103 		movt	r3, 16385
 508 00b0 DB68     		ldr	r3, [r3, #12]
 509 00b2 FB60     		str	r3, [r7, #12]
 409:lib/chip/STM32F4xx_StdPeriph_Driver/src/stm32f4xx_sdio.c ****   /* Clear CMDINDEX, WAITRESP, WAITINT, WAITPEND, CPSMEN bits */
 410:lib/chip/STM32F4xx_StdPeriph_Driver/src/stm32f4xx_sdio.c ****   tmpreg &= CMD_CLEAR_MASK;
 510              		.loc 1 410 0
 511 00b4 FB68     		ldr	r3, [r7, #12]
 512 00b6 23F4FF63 		bic	r3, r3, #2040
 513 00ba 23F00703 		bic	r3, r3, #7
 514 00be FB60     		str	r3, [r7, #12]
 411:lib/chip/STM32F4xx_StdPeriph_Driver/src/stm32f4xx_sdio.c ****   /* Set CMDINDEX bits according to SDIO_CmdIndex value */
 412:lib/chip/STM32F4xx_StdPeriph_Driver/src/stm32f4xx_sdio.c ****   /* Set WAITRESP bits according to SDIO_Response value */
 413:lib/chip/STM32F4xx_StdPeriph_Driver/src/stm32f4xx_sdio.c ****   /* Set WAITINT and WAITPEND bits according to SDIO_Wait value */
 414:lib/chip/STM32F4xx_StdPeriph_Driver/src/stm32f4xx_sdio.c ****   /* Set CPSMEN bits according to SDIO_CPSM value */
 415:lib/chip/STM32F4xx_StdPeriph_Driver/src/stm32f4xx_sdio.c ****   tmpreg |= (uint32_t)SDIO_CmdInitStruct->SDIO_CmdIndex | SDIO_CmdInitStruct->SDIO_Response
 515              		.loc 1 415 0
 516 00c0 7B68     		ldr	r3, [r7, #4]
 517 00c2 5A68     		ldr	r2, [r3, #4]
 518 00c4 7B68     		ldr	r3, [r7, #4]
 519 00c6 9B68     		ldr	r3, [r3, #8]
 520 00c8 1A43     		orrs	r2, r2, r3
 416:lib/chip/STM32F4xx_StdPeriph_Driver/src/stm32f4xx_sdio.c ****            | SDIO_CmdInitStruct->SDIO_Wait | SDIO_CmdInitStruct->SDIO_CPSM;
 521              		.loc 1 416 0
 522 00ca 7B68     		ldr	r3, [r7, #4]
 523 00cc DB68     		ldr	r3, [r3, #12]
 524 00ce 1A43     		orrs	r2, r2, r3
 525 00d0 7B68     		ldr	r3, [r7, #4]
 526 00d2 1B69     		ldr	r3, [r3, #16]
 527 00d4 1343     		orrs	r3, r3, r2
 415:lib/chip/STM32F4xx_StdPeriph_Driver/src/stm32f4xx_sdio.c ****            | SDIO_CmdInitStruct->SDIO_Wait | SDIO_CmdInitStruct->SDIO_CPSM;
 528              		.loc 1 415 0
 529 00d6 FA68     		ldr	r2, [r7, #12]
 530 00d8 1343     		orrs	r3, r3, r2
 531 00da FB60     		str	r3, [r7, #12]
 417:lib/chip/STM32F4xx_StdPeriph_Driver/src/stm32f4xx_sdio.c ****   
 418:lib/chip/STM32F4xx_StdPeriph_Driver/src/stm32f4xx_sdio.c ****   /* Write to SDIO CMD */
 419:lib/chip/STM32F4xx_StdPeriph_Driver/src/stm32f4xx_sdio.c ****   SDIO->CMD = tmpreg;
 532              		.loc 1 419 0
 533 00dc 4FF43053 		mov	r3, #11264
 534 00e0 C4F20103 		movt	r3, 16385
 535 00e4 FA68     		ldr	r2, [r7, #12]
 536 00e6 DA60     		str	r2, [r3, #12]
 420:lib/chip/STM32F4xx_StdPeriph_Driver/src/stm32f4xx_sdio.c **** }
 537              		.loc 1 420 0
 538 00e8 1037     		adds	r7, r7, #16
 539 00ea BD46     		mov	sp, r7
 540              		@ sp needed
 541 00ec 80BD     		pop	{r7, pc}
 542              		.cfi_endproc
 543              	.LFE116:
 545 00ee 00BF     		.section	.text.SDIO_CmdStructInit,"ax",%progbits
 546              		.align	2
 547              		.global	SDIO_CmdStructInit
 548              		.thumb
 549              		.thumb_func
 551              	SDIO_CmdStructInit:
 552              	.LFB117:
 421:lib/chip/STM32F4xx_StdPeriph_Driver/src/stm32f4xx_sdio.c **** 
 422:lib/chip/STM32F4xx_StdPeriph_Driver/src/stm32f4xx_sdio.c **** /**
 423:lib/chip/STM32F4xx_StdPeriph_Driver/src/stm32f4xx_sdio.c ****   * @brief  Fills each SDIO_CmdInitStruct member with its default value.
 424:lib/chip/STM32F4xx_StdPeriph_Driver/src/stm32f4xx_sdio.c ****   * @param  SDIO_CmdInitStruct: pointer to an SDIO_CmdInitTypeDef 
 425:lib/chip/STM32F4xx_StdPeriph_Driver/src/stm32f4xx_sdio.c ****   *         structure which will be initialized.
 426:lib/chip/STM32F4xx_StdPeriph_Driver/src/stm32f4xx_sdio.c ****   * @retval None
 427:lib/chip/STM32F4xx_StdPeriph_Driver/src/stm32f4xx_sdio.c ****   */
 428:lib/chip/STM32F4xx_StdPeriph_Driver/src/stm32f4xx_sdio.c **** void SDIO_CmdStructInit(SDIO_CmdInitTypeDef* SDIO_CmdInitStruct)
 429:lib/chip/STM32F4xx_StdPeriph_Driver/src/stm32f4xx_sdio.c **** {
 553              		.loc 1 429 0
 554              		.cfi_startproc
 555              		@ args = 0, pretend = 0, frame = 8
 556              		@ frame_needed = 1, uses_anonymous_args = 0
 557              		@ link register save eliminated.
 558 0000 80B4     		push	{r7}
 559              	.LCFI19:
 560              		.cfi_def_cfa_offset 4
 561              		.cfi_offset 7, -4
 562 0002 83B0     		sub	sp, sp, #12
 563              	.LCFI20:
 564              		.cfi_def_cfa_offset 16
 565 0004 00AF     		add	r7, sp, #0
 566              	.LCFI21:
 567              		.cfi_def_cfa_register 7
 568 0006 7860     		str	r0, [r7, #4]
 430:lib/chip/STM32F4xx_StdPeriph_Driver/src/stm32f4xx_sdio.c ****   /* SDIO_CmdInitStruct members default value */
 431:lib/chip/STM32F4xx_StdPeriph_Driver/src/stm32f4xx_sdio.c ****   SDIO_CmdInitStruct->SDIO_Argument = 0x00;
 569              		.loc 1 431 0
 570 0008 7B68     		ldr	r3, [r7, #4]
 571 000a 0022     		movs	r2, #0
 572 000c 1A60     		str	r2, [r3]
 432:lib/chip/STM32F4xx_StdPeriph_Driver/src/stm32f4xx_sdio.c ****   SDIO_CmdInitStruct->SDIO_CmdIndex = 0x00;
 573              		.loc 1 432 0
 574 000e 7B68     		ldr	r3, [r7, #4]
 575 0010 0022     		movs	r2, #0
 576 0012 5A60     		str	r2, [r3, #4]
 433:lib/chip/STM32F4xx_StdPeriph_Driver/src/stm32f4xx_sdio.c ****   SDIO_CmdInitStruct->SDIO_Response = SDIO_Response_No;
 577              		.loc 1 433 0
 578 0014 7B68     		ldr	r3, [r7, #4]
 579 0016 0022     		movs	r2, #0
 580 0018 9A60     		str	r2, [r3, #8]
 434:lib/chip/STM32F4xx_StdPeriph_Driver/src/stm32f4xx_sdio.c ****   SDIO_CmdInitStruct->SDIO_Wait = SDIO_Wait_No;
 581              		.loc 1 434 0
 582 001a 7B68     		ldr	r3, [r7, #4]
 583 001c 0022     		movs	r2, #0
 584 001e DA60     		str	r2, [r3, #12]
 435:lib/chip/STM32F4xx_StdPeriph_Driver/src/stm32f4xx_sdio.c ****   SDIO_CmdInitStruct->SDIO_CPSM = SDIO_CPSM_Disable;
 585              		.loc 1 435 0
 586 0020 7B68     		ldr	r3, [r7, #4]
 587 0022 0022     		movs	r2, #0
 588 0024 1A61     		str	r2, [r3, #16]
 436:lib/chip/STM32F4xx_StdPeriph_Driver/src/stm32f4xx_sdio.c **** }
 589              		.loc 1 436 0
 590 0026 0C37     		adds	r7, r7, #12
 591 0028 BD46     		mov	sp, r7
 592              		@ sp needed
 593 002a 5DF8047B 		ldr	r7, [sp], #4
 594 002e 7047     		bx	lr
 595              		.cfi_endproc
 596              	.LFE117:
 598              		.section	.text.SDIO_GetCommandResponse,"ax",%progbits
 599              		.align	2
 600              		.global	SDIO_GetCommandResponse
 601              		.thumb
 602              		.thumb_func
 604              	SDIO_GetCommandResponse:
 605              	.LFB118:
 437:lib/chip/STM32F4xx_StdPeriph_Driver/src/stm32f4xx_sdio.c **** 
 438:lib/chip/STM32F4xx_StdPeriph_Driver/src/stm32f4xx_sdio.c **** /**
 439:lib/chip/STM32F4xx_StdPeriph_Driver/src/stm32f4xx_sdio.c ****   * @brief  Returns command index of last command for which response received.
 440:lib/chip/STM32F4xx_StdPeriph_Driver/src/stm32f4xx_sdio.c ****   * @param  None
 441:lib/chip/STM32F4xx_StdPeriph_Driver/src/stm32f4xx_sdio.c ****   * @retval Returns the command index of the last command response received.
 442:lib/chip/STM32F4xx_StdPeriph_Driver/src/stm32f4xx_sdio.c ****   */
 443:lib/chip/STM32F4xx_StdPeriph_Driver/src/stm32f4xx_sdio.c **** uint8_t SDIO_GetCommandResponse(void)
 444:lib/chip/STM32F4xx_StdPeriph_Driver/src/stm32f4xx_sdio.c **** {
 606              		.loc 1 444 0
 607              		.cfi_startproc
 608              		@ args = 0, pretend = 0, frame = 0
 609              		@ frame_needed = 1, uses_anonymous_args = 0
 610              		@ link register save eliminated.
 611 0000 80B4     		push	{r7}
 612              	.LCFI22:
 613              		.cfi_def_cfa_offset 4
 614              		.cfi_offset 7, -4
 615 0002 00AF     		add	r7, sp, #0
 616              	.LCFI23:
 617              		.cfi_def_cfa_register 7
 445:lib/chip/STM32F4xx_StdPeriph_Driver/src/stm32f4xx_sdio.c ****   return (uint8_t)(SDIO->RESPCMD);
 618              		.loc 1 445 0
 619 0004 4FF43053 		mov	r3, #11264
 620 0008 C4F20103 		movt	r3, 16385
 621 000c 1B69     		ldr	r3, [r3, #16]
 622 000e DBB2     		uxtb	r3, r3
 446:lib/chip/STM32F4xx_StdPeriph_Driver/src/stm32f4xx_sdio.c **** }
 623              		.loc 1 446 0
 624 0010 1846     		mov	r0, r3
 625 0012 BD46     		mov	sp, r7
 626              		@ sp needed
 627 0014 5DF8047B 		ldr	r7, [sp], #4
 628 0018 7047     		bx	lr
 629              		.cfi_endproc
 630              	.LFE118:
 632 001a 00BF     		.section	.text.SDIO_GetResponse,"ax",%progbits
 633              		.align	2
 634              		.global	SDIO_GetResponse
 635              		.thumb
 636              		.thumb_func
 638              	SDIO_GetResponse:
 639              	.LFB119:
 447:lib/chip/STM32F4xx_StdPeriph_Driver/src/stm32f4xx_sdio.c **** 
 448:lib/chip/STM32F4xx_StdPeriph_Driver/src/stm32f4xx_sdio.c **** /**
 449:lib/chip/STM32F4xx_StdPeriph_Driver/src/stm32f4xx_sdio.c ****   * @brief  Returns response received from the card for the last command.
 450:lib/chip/STM32F4xx_StdPeriph_Driver/src/stm32f4xx_sdio.c ****   * @param  SDIO_RESP: Specifies the SDIO response register. 
 451:lib/chip/STM32F4xx_StdPeriph_Driver/src/stm32f4xx_sdio.c ****   *          This parameter can be one of the following values:
 452:lib/chip/STM32F4xx_StdPeriph_Driver/src/stm32f4xx_sdio.c ****   *            @arg SDIO_RESP1: Response Register 1
 453:lib/chip/STM32F4xx_StdPeriph_Driver/src/stm32f4xx_sdio.c ****   *            @arg SDIO_RESP2: Response Register 2
 454:lib/chip/STM32F4xx_StdPeriph_Driver/src/stm32f4xx_sdio.c ****   *            @arg SDIO_RESP3: Response Register 3
 455:lib/chip/STM32F4xx_StdPeriph_Driver/src/stm32f4xx_sdio.c ****   *            @arg SDIO_RESP4: Response Register 4
 456:lib/chip/STM32F4xx_StdPeriph_Driver/src/stm32f4xx_sdio.c ****   * @retval The Corresponding response register value.
 457:lib/chip/STM32F4xx_StdPeriph_Driver/src/stm32f4xx_sdio.c ****   */
 458:lib/chip/STM32F4xx_StdPeriph_Driver/src/stm32f4xx_sdio.c **** uint32_t SDIO_GetResponse(uint32_t SDIO_RESP)
 459:lib/chip/STM32F4xx_StdPeriph_Driver/src/stm32f4xx_sdio.c **** {
 640              		.loc 1 459 0
 641              		.cfi_startproc
 642              		@ args = 0, pretend = 0, frame = 16
 643              		@ frame_needed = 1, uses_anonymous_args = 0
 644 0000 80B5     		push	{r7, lr}
 645              	.LCFI24:
 646              		.cfi_def_cfa_offset 8
 647              		.cfi_offset 7, -8
 648              		.cfi_offset 14, -4
 649 0002 84B0     		sub	sp, sp, #16
 650              	.LCFI25:
 651              		.cfi_def_cfa_offset 24
 652 0004 00AF     		add	r7, sp, #0
 653              	.LCFI26:
 654              		.cfi_def_cfa_register 7
 655 0006 7860     		str	r0, [r7, #4]
 460:lib/chip/STM32F4xx_StdPeriph_Driver/src/stm32f4xx_sdio.c ****   __IO uint32_t tmp = 0;
 656              		.loc 1 460 0
 657 0008 0023     		movs	r3, #0
 658 000a FB60     		str	r3, [r7, #12]
 461:lib/chip/STM32F4xx_StdPeriph_Driver/src/stm32f4xx_sdio.c **** 
 462:lib/chip/STM32F4xx_StdPeriph_Driver/src/stm32f4xx_sdio.c ****   /* Check the parameters */
 463:lib/chip/STM32F4xx_StdPeriph_Driver/src/stm32f4xx_sdio.c ****   assert_param(IS_SDIO_RESP(SDIO_RESP));
 659              		.loc 1 463 0
 660 000c 7B68     		ldr	r3, [r7, #4]
 661 000e 002B     		cmp	r3, #0
 662 0010 10D0     		beq	.L24
 663              		.loc 1 463 0 is_stmt 0 discriminator 1
 664 0012 7B68     		ldr	r3, [r7, #4]
 665 0014 042B     		cmp	r3, #4
 666 0016 0DD0     		beq	.L24
 667 0018 7B68     		ldr	r3, [r7, #4]
 668 001a 082B     		cmp	r3, #8
 669 001c 0AD0     		beq	.L24
 670 001e 7B68     		ldr	r3, [r7, #4]
 671 0020 0C2B     		cmp	r3, #12
 672 0022 07D0     		beq	.L24
 673 0024 40F20000 		movw	r0, #:lower16:.LC0
 674 0028 C0F20000 		movt	r0, #:upper16:.LC0
 675 002c 40F2CF11 		movw	r1, #463
 676 0030 FFF7FEFF 		bl	assert_failed
 677              	.L24:
 464:lib/chip/STM32F4xx_StdPeriph_Driver/src/stm32f4xx_sdio.c **** 
 465:lib/chip/STM32F4xx_StdPeriph_Driver/src/stm32f4xx_sdio.c ****   tmp = SDIO_RESP_ADDR + SDIO_RESP;
 678              		.loc 1 465 0 is_stmt 1
 679 0034 7A68     		ldr	r2, [r7, #4]
 680 0036 42F61443 		movw	r3, #11284
 681 003a C4F20103 		movt	r3, 16385
 682 003e 1344     		add	r3, r3, r2
 683 0040 FB60     		str	r3, [r7, #12]
 466:lib/chip/STM32F4xx_StdPeriph_Driver/src/stm32f4xx_sdio.c ****   
 467:lib/chip/STM32F4xx_StdPeriph_Driver/src/stm32f4xx_sdio.c ****   return (*(__IO uint32_t *) tmp); 
 684              		.loc 1 467 0
 685 0042 FB68     		ldr	r3, [r7, #12]
 686 0044 1B68     		ldr	r3, [r3]
 468:lib/chip/STM32F4xx_StdPeriph_Driver/src/stm32f4xx_sdio.c **** }
 687              		.loc 1 468 0
 688 0046 1846     		mov	r0, r3
 689 0048 1037     		adds	r7, r7, #16
 690 004a BD46     		mov	sp, r7
 691              		@ sp needed
 692 004c 80BD     		pop	{r7, pc}
 693              		.cfi_endproc
 694              	.LFE119:
 696 004e 00BF     		.section	.text.SDIO_DataConfig,"ax",%progbits
 697              		.align	2
 698              		.global	SDIO_DataConfig
 699              		.thumb
 700              		.thumb_func
 702              	SDIO_DataConfig:
 703              	.LFB120:
 469:lib/chip/STM32F4xx_StdPeriph_Driver/src/stm32f4xx_sdio.c **** 
 470:lib/chip/STM32F4xx_StdPeriph_Driver/src/stm32f4xx_sdio.c **** /**
 471:lib/chip/STM32F4xx_StdPeriph_Driver/src/stm32f4xx_sdio.c ****   * @}
 472:lib/chip/STM32F4xx_StdPeriph_Driver/src/stm32f4xx_sdio.c ****   */
 473:lib/chip/STM32F4xx_StdPeriph_Driver/src/stm32f4xx_sdio.c **** 
 474:lib/chip/STM32F4xx_StdPeriph_Driver/src/stm32f4xx_sdio.c **** /** @defgroup SDIO_Group3 Data path state machine (DPSM) management functions
 475:lib/chip/STM32F4xx_StdPeriph_Driver/src/stm32f4xx_sdio.c ****  *  @brief   Data path state machine (DPSM) management functions
 476:lib/chip/STM32F4xx_StdPeriph_Driver/src/stm32f4xx_sdio.c ****  *
 477:lib/chip/STM32F4xx_StdPeriph_Driver/src/stm32f4xx_sdio.c **** @verbatim   
 478:lib/chip/STM32F4xx_StdPeriph_Driver/src/stm32f4xx_sdio.c ****  ===============================================================================
 479:lib/chip/STM32F4xx_StdPeriph_Driver/src/stm32f4xx_sdio.c ****               Data path state machine (DPSM) management functions
 480:lib/chip/STM32F4xx_StdPeriph_Driver/src/stm32f4xx_sdio.c ****  ===============================================================================  
 481:lib/chip/STM32F4xx_StdPeriph_Driver/src/stm32f4xx_sdio.c **** 
 482:lib/chip/STM32F4xx_StdPeriph_Driver/src/stm32f4xx_sdio.c ****   This section provide functions allowing to program and read the Data path 
 483:lib/chip/STM32F4xx_StdPeriph_Driver/src/stm32f4xx_sdio.c ****   state machine (DPSM).
 484:lib/chip/STM32F4xx_StdPeriph_Driver/src/stm32f4xx_sdio.c **** 
 485:lib/chip/STM32F4xx_StdPeriph_Driver/src/stm32f4xx_sdio.c **** @endverbatim
 486:lib/chip/STM32F4xx_StdPeriph_Driver/src/stm32f4xx_sdio.c ****   * @{
 487:lib/chip/STM32F4xx_StdPeriph_Driver/src/stm32f4xx_sdio.c ****   */
 488:lib/chip/STM32F4xx_StdPeriph_Driver/src/stm32f4xx_sdio.c **** 
 489:lib/chip/STM32F4xx_StdPeriph_Driver/src/stm32f4xx_sdio.c **** /**
 490:lib/chip/STM32F4xx_StdPeriph_Driver/src/stm32f4xx_sdio.c ****   * @brief  Initializes the SDIO data path according to the specified 
 491:lib/chip/STM32F4xx_StdPeriph_Driver/src/stm32f4xx_sdio.c ****   *         parameters in the SDIO_DataInitStruct.
 492:lib/chip/STM32F4xx_StdPeriph_Driver/src/stm32f4xx_sdio.c ****   * @param  SDIO_DataInitStruct : pointer to a SDIO_DataInitTypeDef structure 
 493:lib/chip/STM32F4xx_StdPeriph_Driver/src/stm32f4xx_sdio.c ****   *         that contains the configuration information for the SDIO command.
 494:lib/chip/STM32F4xx_StdPeriph_Driver/src/stm32f4xx_sdio.c ****   * @retval None
 495:lib/chip/STM32F4xx_StdPeriph_Driver/src/stm32f4xx_sdio.c ****   */
 496:lib/chip/STM32F4xx_StdPeriph_Driver/src/stm32f4xx_sdio.c **** void SDIO_DataConfig(SDIO_DataInitTypeDef* SDIO_DataInitStruct)
 497:lib/chip/STM32F4xx_StdPeriph_Driver/src/stm32f4xx_sdio.c **** {
 704              		.loc 1 497 0
 705              		.cfi_startproc
 706              		@ args = 0, pretend = 0, frame = 16
 707              		@ frame_needed = 1, uses_anonymous_args = 0
 708 0000 80B5     		push	{r7, lr}
 709              	.LCFI27:
 710              		.cfi_def_cfa_offset 8
 711              		.cfi_offset 7, -8
 712              		.cfi_offset 14, -4
 713 0002 84B0     		sub	sp, sp, #16
 714              	.LCFI28:
 715              		.cfi_def_cfa_offset 24
 716 0004 00AF     		add	r7, sp, #0
 717              	.LCFI29:
 718              		.cfi_def_cfa_register 7
 719 0006 7860     		str	r0, [r7, #4]
 498:lib/chip/STM32F4xx_StdPeriph_Driver/src/stm32f4xx_sdio.c ****   uint32_t tmpreg = 0;
 720              		.loc 1 498 0
 721 0008 0023     		movs	r3, #0
 722 000a FB60     		str	r3, [r7, #12]
 499:lib/chip/STM32F4xx_StdPeriph_Driver/src/stm32f4xx_sdio.c ****   
 500:lib/chip/STM32F4xx_StdPeriph_Driver/src/stm32f4xx_sdio.c ****   /* Check the parameters */
 501:lib/chip/STM32F4xx_StdPeriph_Driver/src/stm32f4xx_sdio.c ****   assert_param(IS_SDIO_DATA_LENGTH(SDIO_DataInitStruct->SDIO_DataLength));
 723              		.loc 1 501 0
 724 000c 7B68     		ldr	r3, [r7, #4]
 725 000e 5B68     		ldr	r3, [r3, #4]
 726 0010 B3F1007F 		cmp	r3, #33554432
 727 0014 07D3     		bcc	.L27
 728              		.loc 1 501 0 is_stmt 0 discriminator 1
 729 0016 40F20000 		movw	r0, #:lower16:.LC0
 730 001a C0F20000 		movt	r0, #:upper16:.LC0
 731 001e 40F2F511 		movw	r1, #501
 732 0022 FFF7FEFF 		bl	assert_failed
 733              	.L27:
 502:lib/chip/STM32F4xx_StdPeriph_Driver/src/stm32f4xx_sdio.c ****   assert_param(IS_SDIO_BLOCK_SIZE(SDIO_DataInitStruct->SDIO_DataBlockSize));
 734              		.loc 1 502 0 is_stmt 1
 735 0026 7B68     		ldr	r3, [r7, #4]
 736 0028 9B68     		ldr	r3, [r3, #8]
 737 002a 002B     		cmp	r3, #0
 738 002c 3FD0     		beq	.L28
 739              		.loc 1 502 0 is_stmt 0 discriminator 1
 740 002e 7B68     		ldr	r3, [r7, #4]
 741 0030 9B68     		ldr	r3, [r3, #8]
 742 0032 102B     		cmp	r3, #16
 743 0034 3BD0     		beq	.L28
 744 0036 7B68     		ldr	r3, [r7, #4]
 745 0038 9B68     		ldr	r3, [r3, #8]
 746 003a 202B     		cmp	r3, #32
 747 003c 37D0     		beq	.L28
 748 003e 7B68     		ldr	r3, [r7, #4]
 749 0040 9B68     		ldr	r3, [r3, #8]
 750 0042 302B     		cmp	r3, #48
 751 0044 33D0     		beq	.L28
 752 0046 7B68     		ldr	r3, [r7, #4]
 753 0048 9B68     		ldr	r3, [r3, #8]
 754 004a 402B     		cmp	r3, #64
 755 004c 2FD0     		beq	.L28
 756 004e 7B68     		ldr	r3, [r7, #4]
 757 0050 9B68     		ldr	r3, [r3, #8]
 758 0052 502B     		cmp	r3, #80
 759 0054 2BD0     		beq	.L28
 760 0056 7B68     		ldr	r3, [r7, #4]
 761 0058 9B68     		ldr	r3, [r3, #8]
 762 005a 602B     		cmp	r3, #96
 763 005c 27D0     		beq	.L28
 764 005e 7B68     		ldr	r3, [r7, #4]
 765 0060 9B68     		ldr	r3, [r3, #8]
 766 0062 702B     		cmp	r3, #112
 767 0064 23D0     		beq	.L28
 768 0066 7B68     		ldr	r3, [r7, #4]
 769 0068 9B68     		ldr	r3, [r3, #8]
 770 006a 802B     		cmp	r3, #128
 771 006c 1FD0     		beq	.L28
 772 006e 7B68     		ldr	r3, [r7, #4]
 773 0070 9B68     		ldr	r3, [r3, #8]
 774 0072 902B     		cmp	r3, #144
 775 0074 1BD0     		beq	.L28
 776 0076 7B68     		ldr	r3, [r7, #4]
 777 0078 9B68     		ldr	r3, [r3, #8]
 778 007a A02B     		cmp	r3, #160
 779 007c 17D0     		beq	.L28
 780 007e 7B68     		ldr	r3, [r7, #4]
 781 0080 9B68     		ldr	r3, [r3, #8]
 782 0082 B02B     		cmp	r3, #176
 783 0084 13D0     		beq	.L28
 784 0086 7B68     		ldr	r3, [r7, #4]
 785 0088 9B68     		ldr	r3, [r3, #8]
 786 008a C02B     		cmp	r3, #192
 787 008c 0FD0     		beq	.L28
 788 008e 7B68     		ldr	r3, [r7, #4]
 789 0090 9B68     		ldr	r3, [r3, #8]
 790 0092 D02B     		cmp	r3, #208
 791 0094 0BD0     		beq	.L28
 792 0096 7B68     		ldr	r3, [r7, #4]
 793 0098 9B68     		ldr	r3, [r3, #8]
 794 009a E02B     		cmp	r3, #224
 795 009c 07D0     		beq	.L28
 796 009e 40F20000 		movw	r0, #:lower16:.LC0
 797 00a2 C0F20000 		movt	r0, #:upper16:.LC0
 798 00a6 4FF4FB71 		mov	r1, #502
 799 00aa FFF7FEFF 		bl	assert_failed
 800              	.L28:
 503:lib/chip/STM32F4xx_StdPeriph_Driver/src/stm32f4xx_sdio.c ****   assert_param(IS_SDIO_TRANSFER_DIR(SDIO_DataInitStruct->SDIO_TransferDir));
 801              		.loc 1 503 0 is_stmt 1
 802 00ae 7B68     		ldr	r3, [r7, #4]
 803 00b0 DB68     		ldr	r3, [r3, #12]
 804 00b2 002B     		cmp	r3, #0
 805 00b4 0BD0     		beq	.L29
 806              		.loc 1 503 0 is_stmt 0 discriminator 1
 807 00b6 7B68     		ldr	r3, [r7, #4]
 808 00b8 DB68     		ldr	r3, [r3, #12]
 809 00ba 022B     		cmp	r3, #2
 810 00bc 07D0     		beq	.L29
 811 00be 40F20000 		movw	r0, #:lower16:.LC0
 812 00c2 C0F20000 		movt	r0, #:upper16:.LC0
 813 00c6 40F2F711 		movw	r1, #503
 814 00ca FFF7FEFF 		bl	assert_failed
 815              	.L29:
 504:lib/chip/STM32F4xx_StdPeriph_Driver/src/stm32f4xx_sdio.c ****   assert_param(IS_SDIO_TRANSFER_MODE(SDIO_DataInitStruct->SDIO_TransferMode));
 816              		.loc 1 504 0 is_stmt 1
 817 00ce 7B68     		ldr	r3, [r7, #4]
 818 00d0 1B69     		ldr	r3, [r3, #16]
 819 00d2 042B     		cmp	r3, #4
 820 00d4 0BD0     		beq	.L30
 821              		.loc 1 504 0 is_stmt 0 discriminator 1
 822 00d6 7B68     		ldr	r3, [r7, #4]
 823 00d8 1B69     		ldr	r3, [r3, #16]
 824 00da 002B     		cmp	r3, #0
 825 00dc 07D0     		beq	.L30
 826 00de 40F20000 		movw	r0, #:lower16:.LC0
 827 00e2 C0F20000 		movt	r0, #:upper16:.LC0
 828 00e6 4FF4FC71 		mov	r1, #504
 829 00ea FFF7FEFF 		bl	assert_failed
 830              	.L30:
 505:lib/chip/STM32F4xx_StdPeriph_Driver/src/stm32f4xx_sdio.c ****   assert_param(IS_SDIO_DPSM(SDIO_DataInitStruct->SDIO_DPSM));
 831              		.loc 1 505 0 is_stmt 1
 832 00ee 7B68     		ldr	r3, [r7, #4]
 833 00f0 5B69     		ldr	r3, [r3, #20]
 834 00f2 012B     		cmp	r3, #1
 835 00f4 0BD0     		beq	.L31
 836              		.loc 1 505 0 is_stmt 0 discriminator 1
 837 00f6 7B68     		ldr	r3, [r7, #4]
 838 00f8 5B69     		ldr	r3, [r3, #20]
 839 00fa 002B     		cmp	r3, #0
 840 00fc 07D0     		beq	.L31
 841 00fe 40F20000 		movw	r0, #:lower16:.LC0
 842 0102 C0F20000 		movt	r0, #:upper16:.LC0
 843 0106 40F2F911 		movw	r1, #505
 844 010a FFF7FEFF 		bl	assert_failed
 845              	.L31:
 506:lib/chip/STM32F4xx_StdPeriph_Driver/src/stm32f4xx_sdio.c **** 
 507:lib/chip/STM32F4xx_StdPeriph_Driver/src/stm32f4xx_sdio.c **** /*---------------------------- SDIO DTIMER Configuration ---------------------*/
 508:lib/chip/STM32F4xx_StdPeriph_Driver/src/stm32f4xx_sdio.c ****   /* Set the SDIO Data TimeOut value */
 509:lib/chip/STM32F4xx_StdPeriph_Driver/src/stm32f4xx_sdio.c ****   SDIO->DTIMER = SDIO_DataInitStruct->SDIO_DataTimeOut;
 846              		.loc 1 509 0 is_stmt 1
 847 010e 4FF43053 		mov	r3, #11264
 848 0112 C4F20103 		movt	r3, 16385
 849 0116 7A68     		ldr	r2, [r7, #4]
 850 0118 1268     		ldr	r2, [r2]
 851 011a 5A62     		str	r2, [r3, #36]
 510:lib/chip/STM32F4xx_StdPeriph_Driver/src/stm32f4xx_sdio.c **** 
 511:lib/chip/STM32F4xx_StdPeriph_Driver/src/stm32f4xx_sdio.c **** /*---------------------------- SDIO DLEN Configuration -----------------------*/
 512:lib/chip/STM32F4xx_StdPeriph_Driver/src/stm32f4xx_sdio.c ****   /* Set the SDIO DataLength value */
 513:lib/chip/STM32F4xx_StdPeriph_Driver/src/stm32f4xx_sdio.c ****   SDIO->DLEN = SDIO_DataInitStruct->SDIO_DataLength;
 852              		.loc 1 513 0
 853 011c 4FF43053 		mov	r3, #11264
 854 0120 C4F20103 		movt	r3, 16385
 855 0124 7A68     		ldr	r2, [r7, #4]
 856 0126 5268     		ldr	r2, [r2, #4]
 857 0128 9A62     		str	r2, [r3, #40]
 514:lib/chip/STM32F4xx_StdPeriph_Driver/src/stm32f4xx_sdio.c **** 
 515:lib/chip/STM32F4xx_StdPeriph_Driver/src/stm32f4xx_sdio.c **** /*---------------------------- SDIO DCTRL Configuration ----------------------*/  
 516:lib/chip/STM32F4xx_StdPeriph_Driver/src/stm32f4xx_sdio.c ****   /* Get the SDIO DCTRL value */
 517:lib/chip/STM32F4xx_StdPeriph_Driver/src/stm32f4xx_sdio.c ****   tmpreg = SDIO->DCTRL;
 858              		.loc 1 517 0
 859 012a 4FF43053 		mov	r3, #11264
 860 012e C4F20103 		movt	r3, 16385
 861 0132 DB6A     		ldr	r3, [r3, #44]
 862 0134 FB60     		str	r3, [r7, #12]
 518:lib/chip/STM32F4xx_StdPeriph_Driver/src/stm32f4xx_sdio.c ****   /* Clear DEN, DTMODE, DTDIR and DBCKSIZE bits */
 519:lib/chip/STM32F4xx_StdPeriph_Driver/src/stm32f4xx_sdio.c ****   tmpreg &= DCTRL_CLEAR_MASK;
 863              		.loc 1 519 0
 864 0136 FB68     		ldr	r3, [r7, #12]
 865 0138 23F0F703 		bic	r3, r3, #247
 866 013c FB60     		str	r3, [r7, #12]
 520:lib/chip/STM32F4xx_StdPeriph_Driver/src/stm32f4xx_sdio.c ****   /* Set DEN bit according to SDIO_DPSM value */
 521:lib/chip/STM32F4xx_StdPeriph_Driver/src/stm32f4xx_sdio.c ****   /* Set DTMODE bit according to SDIO_TransferMode value */
 522:lib/chip/STM32F4xx_StdPeriph_Driver/src/stm32f4xx_sdio.c ****   /* Set DTDIR bit according to SDIO_TransferDir value */
 523:lib/chip/STM32F4xx_StdPeriph_Driver/src/stm32f4xx_sdio.c ****   /* Set DBCKSIZE bits according to SDIO_DataBlockSize value */
 524:lib/chip/STM32F4xx_StdPeriph_Driver/src/stm32f4xx_sdio.c ****   tmpreg |= (uint32_t)SDIO_DataInitStruct->SDIO_DataBlockSize | SDIO_DataInitStruct->SDIO_TransferD
 867              		.loc 1 524 0
 868 013e 7B68     		ldr	r3, [r7, #4]
 869 0140 9A68     		ldr	r2, [r3, #8]
 870 0142 7B68     		ldr	r3, [r7, #4]
 871 0144 DB68     		ldr	r3, [r3, #12]
 872 0146 1A43     		orrs	r2, r2, r3
 525:lib/chip/STM32F4xx_StdPeriph_Driver/src/stm32f4xx_sdio.c ****            | SDIO_DataInitStruct->SDIO_TransferMode | SDIO_DataInitStruct->SDIO_DPSM;
 873              		.loc 1 525 0
 874 0148 7B68     		ldr	r3, [r7, #4]
 875 014a 1B69     		ldr	r3, [r3, #16]
 876 014c 1A43     		orrs	r2, r2, r3
 877 014e 7B68     		ldr	r3, [r7, #4]
 878 0150 5B69     		ldr	r3, [r3, #20]
 879 0152 1343     		orrs	r3, r3, r2
 524:lib/chip/STM32F4xx_StdPeriph_Driver/src/stm32f4xx_sdio.c ****            | SDIO_DataInitStruct->SDIO_TransferMode | SDIO_DataInitStruct->SDIO_DPSM;
 880              		.loc 1 524 0
 881 0154 FA68     		ldr	r2, [r7, #12]
 882 0156 1343     		orrs	r3, r3, r2
 883 0158 FB60     		str	r3, [r7, #12]
 526:lib/chip/STM32F4xx_StdPeriph_Driver/src/stm32f4xx_sdio.c **** 
 527:lib/chip/STM32F4xx_StdPeriph_Driver/src/stm32f4xx_sdio.c ****   /* Write to SDIO DCTRL */
 528:lib/chip/STM32F4xx_StdPeriph_Driver/src/stm32f4xx_sdio.c ****   SDIO->DCTRL = tmpreg;
 884              		.loc 1 528 0
 885 015a 4FF43053 		mov	r3, #11264
 886 015e C4F20103 		movt	r3, 16385
 887 0162 FA68     		ldr	r2, [r7, #12]
 888 0164 DA62     		str	r2, [r3, #44]
 529:lib/chip/STM32F4xx_StdPeriph_Driver/src/stm32f4xx_sdio.c **** }
 889              		.loc 1 529 0
 890 0166 1037     		adds	r7, r7, #16
 891 0168 BD46     		mov	sp, r7
 892              		@ sp needed
 893 016a 80BD     		pop	{r7, pc}
 894              		.cfi_endproc
 895              	.LFE120:
 897              		.section	.text.SDIO_DataStructInit,"ax",%progbits
 898              		.align	2
 899              		.global	SDIO_DataStructInit
 900              		.thumb
 901              		.thumb_func
 903              	SDIO_DataStructInit:
 904              	.LFB121:
 530:lib/chip/STM32F4xx_StdPeriph_Driver/src/stm32f4xx_sdio.c **** 
 531:lib/chip/STM32F4xx_StdPeriph_Driver/src/stm32f4xx_sdio.c **** /**
 532:lib/chip/STM32F4xx_StdPeriph_Driver/src/stm32f4xx_sdio.c ****   * @brief  Fills each SDIO_DataInitStruct member with its default value.
 533:lib/chip/STM32F4xx_StdPeriph_Driver/src/stm32f4xx_sdio.c ****   * @param  SDIO_DataInitStruct: pointer to an SDIO_DataInitTypeDef structure 
 534:lib/chip/STM32F4xx_StdPeriph_Driver/src/stm32f4xx_sdio.c ****   *         which will be initialized.
 535:lib/chip/STM32F4xx_StdPeriph_Driver/src/stm32f4xx_sdio.c ****   * @retval None
 536:lib/chip/STM32F4xx_StdPeriph_Driver/src/stm32f4xx_sdio.c ****   */
 537:lib/chip/STM32F4xx_StdPeriph_Driver/src/stm32f4xx_sdio.c **** void SDIO_DataStructInit(SDIO_DataInitTypeDef* SDIO_DataInitStruct)
 538:lib/chip/STM32F4xx_StdPeriph_Driver/src/stm32f4xx_sdio.c **** {
 905              		.loc 1 538 0
 906              		.cfi_startproc
 907              		@ args = 0, pretend = 0, frame = 8
 908              		@ frame_needed = 1, uses_anonymous_args = 0
 909              		@ link register save eliminated.
 910 0000 80B4     		push	{r7}
 911              	.LCFI30:
 912              		.cfi_def_cfa_offset 4
 913              		.cfi_offset 7, -4
 914 0002 83B0     		sub	sp, sp, #12
 915              	.LCFI31:
 916              		.cfi_def_cfa_offset 16
 917 0004 00AF     		add	r7, sp, #0
 918              	.LCFI32:
 919              		.cfi_def_cfa_register 7
 920 0006 7860     		str	r0, [r7, #4]
 539:lib/chip/STM32F4xx_StdPeriph_Driver/src/stm32f4xx_sdio.c ****   /* SDIO_DataInitStruct members default value */
 540:lib/chip/STM32F4xx_StdPeriph_Driver/src/stm32f4xx_sdio.c ****   SDIO_DataInitStruct->SDIO_DataTimeOut = 0xFFFFFFFF;
 921              		.loc 1 540 0
 922 0008 7B68     		ldr	r3, [r7, #4]
 923 000a 4FF0FF32 		mov	r2, #-1
 924 000e 1A60     		str	r2, [r3]
 541:lib/chip/STM32F4xx_StdPeriph_Driver/src/stm32f4xx_sdio.c ****   SDIO_DataInitStruct->SDIO_DataLength = 0x00;
 925              		.loc 1 541 0
 926 0010 7B68     		ldr	r3, [r7, #4]
 927 0012 0022     		movs	r2, #0
 928 0014 5A60     		str	r2, [r3, #4]
 542:lib/chip/STM32F4xx_StdPeriph_Driver/src/stm32f4xx_sdio.c ****   SDIO_DataInitStruct->SDIO_DataBlockSize = SDIO_DataBlockSize_1b;
 929              		.loc 1 542 0
 930 0016 7B68     		ldr	r3, [r7, #4]
 931 0018 0022     		movs	r2, #0
 932 001a 9A60     		str	r2, [r3, #8]
 543:lib/chip/STM32F4xx_StdPeriph_Driver/src/stm32f4xx_sdio.c ****   SDIO_DataInitStruct->SDIO_TransferDir = SDIO_TransferDir_ToCard;
 933              		.loc 1 543 0
 934 001c 7B68     		ldr	r3, [r7, #4]
 935 001e 0022     		movs	r2, #0
 936 0020 DA60     		str	r2, [r3, #12]
 544:lib/chip/STM32F4xx_StdPeriph_Driver/src/stm32f4xx_sdio.c ****   SDIO_DataInitStruct->SDIO_TransferMode = SDIO_TransferMode_Block;  
 937              		.loc 1 544 0
 938 0022 7B68     		ldr	r3, [r7, #4]
 939 0024 0022     		movs	r2, #0
 940 0026 1A61     		str	r2, [r3, #16]
 545:lib/chip/STM32F4xx_StdPeriph_Driver/src/stm32f4xx_sdio.c ****   SDIO_DataInitStruct->SDIO_DPSM = SDIO_DPSM_Disable;
 941              		.loc 1 545 0
 942 0028 7B68     		ldr	r3, [r7, #4]
 943 002a 0022     		movs	r2, #0
 944 002c 5A61     		str	r2, [r3, #20]
 546:lib/chip/STM32F4xx_StdPeriph_Driver/src/stm32f4xx_sdio.c **** }
 945              		.loc 1 546 0
 946 002e 0C37     		adds	r7, r7, #12
 947 0030 BD46     		mov	sp, r7
 948              		@ sp needed
 949 0032 5DF8047B 		ldr	r7, [sp], #4
 950 0036 7047     		bx	lr
 951              		.cfi_endproc
 952              	.LFE121:
 954              		.section	.text.SDIO_GetDataCounter,"ax",%progbits
 955              		.align	2
 956              		.global	SDIO_GetDataCounter
 957              		.thumb
 958              		.thumb_func
 960              	SDIO_GetDataCounter:
 961              	.LFB122:
 547:lib/chip/STM32F4xx_StdPeriph_Driver/src/stm32f4xx_sdio.c **** 
 548:lib/chip/STM32F4xx_StdPeriph_Driver/src/stm32f4xx_sdio.c **** /**
 549:lib/chip/STM32F4xx_StdPeriph_Driver/src/stm32f4xx_sdio.c ****   * @brief  Returns number of remaining data bytes to be transferred.
 550:lib/chip/STM32F4xx_StdPeriph_Driver/src/stm32f4xx_sdio.c ****   * @param  None
 551:lib/chip/STM32F4xx_StdPeriph_Driver/src/stm32f4xx_sdio.c ****   * @retval Number of remaining data bytes to be transferred
 552:lib/chip/STM32F4xx_StdPeriph_Driver/src/stm32f4xx_sdio.c ****   */
 553:lib/chip/STM32F4xx_StdPeriph_Driver/src/stm32f4xx_sdio.c **** uint32_t SDIO_GetDataCounter(void)
 554:lib/chip/STM32F4xx_StdPeriph_Driver/src/stm32f4xx_sdio.c **** { 
 962              		.loc 1 554 0
 963              		.cfi_startproc
 964              		@ args = 0, pretend = 0, frame = 0
 965              		@ frame_needed = 1, uses_anonymous_args = 0
 966              		@ link register save eliminated.
 967 0000 80B4     		push	{r7}
 968              	.LCFI33:
 969              		.cfi_def_cfa_offset 4
 970              		.cfi_offset 7, -4
 971 0002 00AF     		add	r7, sp, #0
 972              	.LCFI34:
 973              		.cfi_def_cfa_register 7
 555:lib/chip/STM32F4xx_StdPeriph_Driver/src/stm32f4xx_sdio.c ****   return SDIO->DCOUNT;
 974              		.loc 1 555 0
 975 0004 4FF43053 		mov	r3, #11264
 976 0008 C4F20103 		movt	r3, 16385
 977 000c 1B6B     		ldr	r3, [r3, #48]
 556:lib/chip/STM32F4xx_StdPeriph_Driver/src/stm32f4xx_sdio.c **** }
 978              		.loc 1 556 0
 979 000e 1846     		mov	r0, r3
 980 0010 BD46     		mov	sp, r7
 981              		@ sp needed
 982 0012 5DF8047B 		ldr	r7, [sp], #4
 983 0016 7047     		bx	lr
 984              		.cfi_endproc
 985              	.LFE122:
 987              		.section	.text.SDIO_ReadData,"ax",%progbits
 988              		.align	2
 989              		.global	SDIO_ReadData
 990              		.thumb
 991              		.thumb_func
 993              	SDIO_ReadData:
 994              	.LFB123:
 557:lib/chip/STM32F4xx_StdPeriph_Driver/src/stm32f4xx_sdio.c **** 
 558:lib/chip/STM32F4xx_StdPeriph_Driver/src/stm32f4xx_sdio.c **** /**
 559:lib/chip/STM32F4xx_StdPeriph_Driver/src/stm32f4xx_sdio.c ****   * @brief  Read one data word from Rx FIFO.
 560:lib/chip/STM32F4xx_StdPeriph_Driver/src/stm32f4xx_sdio.c ****   * @param  None
 561:lib/chip/STM32F4xx_StdPeriph_Driver/src/stm32f4xx_sdio.c ****   * @retval Data received
 562:lib/chip/STM32F4xx_StdPeriph_Driver/src/stm32f4xx_sdio.c ****   */
 563:lib/chip/STM32F4xx_StdPeriph_Driver/src/stm32f4xx_sdio.c **** uint32_t SDIO_ReadData(void)
 564:lib/chip/STM32F4xx_StdPeriph_Driver/src/stm32f4xx_sdio.c **** { 
 995              		.loc 1 564 0
 996              		.cfi_startproc
 997              		@ args = 0, pretend = 0, frame = 0
 998              		@ frame_needed = 1, uses_anonymous_args = 0
 999              		@ link register save eliminated.
 1000 0000 80B4     		push	{r7}
 1001              	.LCFI35:
 1002              		.cfi_def_cfa_offset 4
 1003              		.cfi_offset 7, -4
 1004 0002 00AF     		add	r7, sp, #0
 1005              	.LCFI36:
 1006              		.cfi_def_cfa_register 7
 565:lib/chip/STM32F4xx_StdPeriph_Driver/src/stm32f4xx_sdio.c ****   return SDIO->FIFO;
 1007              		.loc 1 565 0
 1008 0004 4FF43053 		mov	r3, #11264
 1009 0008 C4F20103 		movt	r3, 16385
 1010 000c D3F88030 		ldr	r3, [r3, #128]
 566:lib/chip/STM32F4xx_StdPeriph_Driver/src/stm32f4xx_sdio.c **** }
 1011              		.loc 1 566 0
 1012 0010 1846     		mov	r0, r3
 1013 0012 BD46     		mov	sp, r7
 1014              		@ sp needed
 1015 0014 5DF8047B 		ldr	r7, [sp], #4
 1016 0018 7047     		bx	lr
 1017              		.cfi_endproc
 1018              	.LFE123:
 1020 001a 00BF     		.section	.text.SDIO_WriteData,"ax",%progbits
 1021              		.align	2
 1022              		.global	SDIO_WriteData
 1023              		.thumb
 1024              		.thumb_func
 1026              	SDIO_WriteData:
 1027              	.LFB124:
 567:lib/chip/STM32F4xx_StdPeriph_Driver/src/stm32f4xx_sdio.c **** 
 568:lib/chip/STM32F4xx_StdPeriph_Driver/src/stm32f4xx_sdio.c **** /**
 569:lib/chip/STM32F4xx_StdPeriph_Driver/src/stm32f4xx_sdio.c ****   * @brief  Write one data word to Tx FIFO.
 570:lib/chip/STM32F4xx_StdPeriph_Driver/src/stm32f4xx_sdio.c ****   * @param  Data: 32-bit data word to write.
 571:lib/chip/STM32F4xx_StdPeriph_Driver/src/stm32f4xx_sdio.c ****   * @retval None
 572:lib/chip/STM32F4xx_StdPeriph_Driver/src/stm32f4xx_sdio.c ****   */
 573:lib/chip/STM32F4xx_StdPeriph_Driver/src/stm32f4xx_sdio.c **** void SDIO_WriteData(uint32_t Data)
 574:lib/chip/STM32F4xx_StdPeriph_Driver/src/stm32f4xx_sdio.c **** { 
 1028              		.loc 1 574 0
 1029              		.cfi_startproc
 1030              		@ args = 0, pretend = 0, frame = 8
 1031              		@ frame_needed = 1, uses_anonymous_args = 0
 1032              		@ link register save eliminated.
 1033 0000 80B4     		push	{r7}
 1034              	.LCFI37:
 1035              		.cfi_def_cfa_offset 4
 1036              		.cfi_offset 7, -4
 1037 0002 83B0     		sub	sp, sp, #12
 1038              	.LCFI38:
 1039              		.cfi_def_cfa_offset 16
 1040 0004 00AF     		add	r7, sp, #0
 1041              	.LCFI39:
 1042              		.cfi_def_cfa_register 7
 1043 0006 7860     		str	r0, [r7, #4]
 575:lib/chip/STM32F4xx_StdPeriph_Driver/src/stm32f4xx_sdio.c ****   SDIO->FIFO = Data;
 1044              		.loc 1 575 0
 1045 0008 4FF43053 		mov	r3, #11264
 1046 000c C4F20103 		movt	r3, 16385
 1047 0010 7A68     		ldr	r2, [r7, #4]
 1048 0012 C3F88020 		str	r2, [r3, #128]
 576:lib/chip/STM32F4xx_StdPeriph_Driver/src/stm32f4xx_sdio.c **** }
 1049              		.loc 1 576 0
 1050 0016 0C37     		adds	r7, r7, #12
 1051 0018 BD46     		mov	sp, r7
 1052              		@ sp needed
 1053 001a 5DF8047B 		ldr	r7, [sp], #4
 1054 001e 7047     		bx	lr
 1055              		.cfi_endproc
 1056              	.LFE124:
 1058              		.section	.text.SDIO_GetFIFOCount,"ax",%progbits
 1059              		.align	2
 1060              		.global	SDIO_GetFIFOCount
 1061              		.thumb
 1062              		.thumb_func
 1064              	SDIO_GetFIFOCount:
 1065              	.LFB125:
 577:lib/chip/STM32F4xx_StdPeriph_Driver/src/stm32f4xx_sdio.c **** 
 578:lib/chip/STM32F4xx_StdPeriph_Driver/src/stm32f4xx_sdio.c **** /**
 579:lib/chip/STM32F4xx_StdPeriph_Driver/src/stm32f4xx_sdio.c ****   * @brief  Returns the number of words left to be written to or read from FIFO.	
 580:lib/chip/STM32F4xx_StdPeriph_Driver/src/stm32f4xx_sdio.c ****   * @param  None
 581:lib/chip/STM32F4xx_StdPeriph_Driver/src/stm32f4xx_sdio.c ****   * @retval Remaining number of words.
 582:lib/chip/STM32F4xx_StdPeriph_Driver/src/stm32f4xx_sdio.c ****   */
 583:lib/chip/STM32F4xx_StdPeriph_Driver/src/stm32f4xx_sdio.c **** uint32_t SDIO_GetFIFOCount(void)
 584:lib/chip/STM32F4xx_StdPeriph_Driver/src/stm32f4xx_sdio.c **** { 
 1066              		.loc 1 584 0
 1067              		.cfi_startproc
 1068              		@ args = 0, pretend = 0, frame = 0
 1069              		@ frame_needed = 1, uses_anonymous_args = 0
 1070              		@ link register save eliminated.
 1071 0000 80B4     		push	{r7}
 1072              	.LCFI40:
 1073              		.cfi_def_cfa_offset 4
 1074              		.cfi_offset 7, -4
 1075 0002 00AF     		add	r7, sp, #0
 1076              	.LCFI41:
 1077              		.cfi_def_cfa_register 7
 585:lib/chip/STM32F4xx_StdPeriph_Driver/src/stm32f4xx_sdio.c ****   return SDIO->FIFOCNT;
 1078              		.loc 1 585 0
 1079 0004 4FF43053 		mov	r3, #11264
 1080 0008 C4F20103 		movt	r3, 16385
 1081 000c 9B6C     		ldr	r3, [r3, #72]
 586:lib/chip/STM32F4xx_StdPeriph_Driver/src/stm32f4xx_sdio.c **** }
 1082              		.loc 1 586 0
 1083 000e 1846     		mov	r0, r3
 1084 0010 BD46     		mov	sp, r7
 1085              		@ sp needed
 1086 0012 5DF8047B 		ldr	r7, [sp], #4
 1087 0016 7047     		bx	lr
 1088              		.cfi_endproc
 1089              	.LFE125:
 1091              		.section	.text.SDIO_StartSDIOReadWait,"ax",%progbits
 1092              		.align	2
 1093              		.global	SDIO_StartSDIOReadWait
 1094              		.thumb
 1095              		.thumb_func
 1097              	SDIO_StartSDIOReadWait:
 1098              	.LFB126:
 587:lib/chip/STM32F4xx_StdPeriph_Driver/src/stm32f4xx_sdio.c **** 
 588:lib/chip/STM32F4xx_StdPeriph_Driver/src/stm32f4xx_sdio.c **** /**
 589:lib/chip/STM32F4xx_StdPeriph_Driver/src/stm32f4xx_sdio.c ****   * @}
 590:lib/chip/STM32F4xx_StdPeriph_Driver/src/stm32f4xx_sdio.c ****   */
 591:lib/chip/STM32F4xx_StdPeriph_Driver/src/stm32f4xx_sdio.c **** 
 592:lib/chip/STM32F4xx_StdPeriph_Driver/src/stm32f4xx_sdio.c **** /** @defgroup SDIO_Group4 SDIO IO Cards mode management functions
 593:lib/chip/STM32F4xx_StdPeriph_Driver/src/stm32f4xx_sdio.c ****  *  @brief   SDIO IO Cards mode management functions
 594:lib/chip/STM32F4xx_StdPeriph_Driver/src/stm32f4xx_sdio.c ****  *
 595:lib/chip/STM32F4xx_StdPeriph_Driver/src/stm32f4xx_sdio.c **** @verbatim   
 596:lib/chip/STM32F4xx_StdPeriph_Driver/src/stm32f4xx_sdio.c ****  ===============================================================================
 597:lib/chip/STM32F4xx_StdPeriph_Driver/src/stm32f4xx_sdio.c ****               SDIO IO Cards mode management functions
 598:lib/chip/STM32F4xx_StdPeriph_Driver/src/stm32f4xx_sdio.c ****  ===============================================================================  
 599:lib/chip/STM32F4xx_StdPeriph_Driver/src/stm32f4xx_sdio.c **** 
 600:lib/chip/STM32F4xx_StdPeriph_Driver/src/stm32f4xx_sdio.c ****   This section provide functions allowing to program and read the SDIO IO Cards.
 601:lib/chip/STM32F4xx_StdPeriph_Driver/src/stm32f4xx_sdio.c **** 
 602:lib/chip/STM32F4xx_StdPeriph_Driver/src/stm32f4xx_sdio.c **** @endverbatim
 603:lib/chip/STM32F4xx_StdPeriph_Driver/src/stm32f4xx_sdio.c ****   * @{
 604:lib/chip/STM32F4xx_StdPeriph_Driver/src/stm32f4xx_sdio.c ****   */
 605:lib/chip/STM32F4xx_StdPeriph_Driver/src/stm32f4xx_sdio.c **** 
 606:lib/chip/STM32F4xx_StdPeriph_Driver/src/stm32f4xx_sdio.c **** /**
 607:lib/chip/STM32F4xx_StdPeriph_Driver/src/stm32f4xx_sdio.c ****   * @brief  Starts the SD I/O Read Wait operation.	
 608:lib/chip/STM32F4xx_StdPeriph_Driver/src/stm32f4xx_sdio.c ****   * @param  NewState: new state of the Start SDIO Read Wait operation. 
 609:lib/chip/STM32F4xx_StdPeriph_Driver/src/stm32f4xx_sdio.c ****   *         This parameter can be: ENABLE or DISABLE.
 610:lib/chip/STM32F4xx_StdPeriph_Driver/src/stm32f4xx_sdio.c ****   * @retval None
 611:lib/chip/STM32F4xx_StdPeriph_Driver/src/stm32f4xx_sdio.c ****   */
 612:lib/chip/STM32F4xx_StdPeriph_Driver/src/stm32f4xx_sdio.c **** void SDIO_StartSDIOReadWait(FunctionalState NewState)
 613:lib/chip/STM32F4xx_StdPeriph_Driver/src/stm32f4xx_sdio.c **** { 
 1099              		.loc 1 613 0
 1100              		.cfi_startproc
 1101              		@ args = 0, pretend = 0, frame = 8
 1102              		@ frame_needed = 1, uses_anonymous_args = 0
 1103 0000 80B5     		push	{r7, lr}
 1104              	.LCFI42:
 1105              		.cfi_def_cfa_offset 8
 1106              		.cfi_offset 7, -8
 1107              		.cfi_offset 14, -4
 1108 0002 82B0     		sub	sp, sp, #8
 1109              	.LCFI43:
 1110              		.cfi_def_cfa_offset 16
 1111 0004 00AF     		add	r7, sp, #0
 1112              	.LCFI44:
 1113              		.cfi_def_cfa_register 7
 1114 0006 0346     		mov	r3, r0
 1115 0008 FB71     		strb	r3, [r7, #7]
 614:lib/chip/STM32F4xx_StdPeriph_Driver/src/stm32f4xx_sdio.c ****   /* Check the parameters */
 615:lib/chip/STM32F4xx_StdPeriph_Driver/src/stm32f4xx_sdio.c ****   assert_param(IS_FUNCTIONAL_STATE(NewState));
 1116              		.loc 1 615 0
 1117 000a FB79     		ldrb	r3, [r7, #7]	@ zero_extendqisi2
 1118 000c 002B     		cmp	r3, #0
 1119 000e 0AD0     		beq	.L41
 1120              		.loc 1 615 0 is_stmt 0 discriminator 1
 1121 0010 FB79     		ldrb	r3, [r7, #7]	@ zero_extendqisi2
 1122 0012 012B     		cmp	r3, #1
 1123 0014 07D0     		beq	.L41
 1124 0016 40F20000 		movw	r0, #:lower16:.LC0
 1125 001a C0F20000 		movt	r0, #:upper16:.LC0
 1126 001e 40F26721 		movw	r1, #615
 1127 0022 FFF7FEFF 		bl	assert_failed
 1128              	.L41:
 616:lib/chip/STM32F4xx_StdPeriph_Driver/src/stm32f4xx_sdio.c ****   
 617:lib/chip/STM32F4xx_StdPeriph_Driver/src/stm32f4xx_sdio.c ****   *(__IO uint32_t *) DCTRL_RWSTART_BB = (uint32_t) NewState;
 1129              		.loc 1 617 0 is_stmt 1
 1130 0026 48F2A053 		movw	r3, #34208
 1131 002a C4F22523 		movt	r3, 16933
 1132 002e FA79     		ldrb	r2, [r7, #7]	@ zero_extendqisi2
 1133 0030 1A60     		str	r2, [r3]
 618:lib/chip/STM32F4xx_StdPeriph_Driver/src/stm32f4xx_sdio.c **** }
 1134              		.loc 1 618 0
 1135 0032 0837     		adds	r7, r7, #8
 1136 0034 BD46     		mov	sp, r7
 1137              		@ sp needed
 1138 0036 80BD     		pop	{r7, pc}
 1139              		.cfi_endproc
 1140              	.LFE126:
 1142              		.section	.text.SDIO_StopSDIOReadWait,"ax",%progbits
 1143              		.align	2
 1144              		.global	SDIO_StopSDIOReadWait
 1145              		.thumb
 1146              		.thumb_func
 1148              	SDIO_StopSDIOReadWait:
 1149              	.LFB127:
 619:lib/chip/STM32F4xx_StdPeriph_Driver/src/stm32f4xx_sdio.c **** 
 620:lib/chip/STM32F4xx_StdPeriph_Driver/src/stm32f4xx_sdio.c **** /**
 621:lib/chip/STM32F4xx_StdPeriph_Driver/src/stm32f4xx_sdio.c ****   * @brief  Stops the SD I/O Read Wait operation.	
 622:lib/chip/STM32F4xx_StdPeriph_Driver/src/stm32f4xx_sdio.c ****   * @param  NewState: new state of the Stop SDIO Read Wait operation. 
 623:lib/chip/STM32F4xx_StdPeriph_Driver/src/stm32f4xx_sdio.c ****   *         This parameter can be: ENABLE or DISABLE.
 624:lib/chip/STM32F4xx_StdPeriph_Driver/src/stm32f4xx_sdio.c ****   * @retval None
 625:lib/chip/STM32F4xx_StdPeriph_Driver/src/stm32f4xx_sdio.c ****   */
 626:lib/chip/STM32F4xx_StdPeriph_Driver/src/stm32f4xx_sdio.c **** void SDIO_StopSDIOReadWait(FunctionalState NewState)
 627:lib/chip/STM32F4xx_StdPeriph_Driver/src/stm32f4xx_sdio.c **** { 
 1150              		.loc 1 627 0
 1151              		.cfi_startproc
 1152              		@ args = 0, pretend = 0, frame = 8
 1153              		@ frame_needed = 1, uses_anonymous_args = 0
 1154 0000 80B5     		push	{r7, lr}
 1155              	.LCFI45:
 1156              		.cfi_def_cfa_offset 8
 1157              		.cfi_offset 7, -8
 1158              		.cfi_offset 14, -4
 1159 0002 82B0     		sub	sp, sp, #8
 1160              	.LCFI46:
 1161              		.cfi_def_cfa_offset 16
 1162 0004 00AF     		add	r7, sp, #0
 1163              	.LCFI47:
 1164              		.cfi_def_cfa_register 7
 1165 0006 0346     		mov	r3, r0
 1166 0008 FB71     		strb	r3, [r7, #7]
 628:lib/chip/STM32F4xx_StdPeriph_Driver/src/stm32f4xx_sdio.c ****   /* Check the parameters */
 629:lib/chip/STM32F4xx_StdPeriph_Driver/src/stm32f4xx_sdio.c ****   assert_param(IS_FUNCTIONAL_STATE(NewState));
 1167              		.loc 1 629 0
 1168 000a FB79     		ldrb	r3, [r7, #7]	@ zero_extendqisi2
 1169 000c 002B     		cmp	r3, #0
 1170 000e 0AD0     		beq	.L43
 1171              		.loc 1 629 0 is_stmt 0 discriminator 1
 1172 0010 FB79     		ldrb	r3, [r7, #7]	@ zero_extendqisi2
 1173 0012 012B     		cmp	r3, #1
 1174 0014 07D0     		beq	.L43
 1175 0016 40F20000 		movw	r0, #:lower16:.LC0
 1176 001a C0F20000 		movt	r0, #:upper16:.LC0
 1177 001e 40F27521 		movw	r1, #629
 1178 0022 FFF7FEFF 		bl	assert_failed
 1179              	.L43:
 630:lib/chip/STM32F4xx_StdPeriph_Driver/src/stm32f4xx_sdio.c ****   
 631:lib/chip/STM32F4xx_StdPeriph_Driver/src/stm32f4xx_sdio.c ****   *(__IO uint32_t *) DCTRL_RWSTOP_BB = (uint32_t) NewState;
 1180              		.loc 1 631 0 is_stmt 1
 1181 0026 48F2A453 		movw	r3, #34212
 1182 002a C4F22523 		movt	r3, 16933
 1183 002e FA79     		ldrb	r2, [r7, #7]	@ zero_extendqisi2
 1184 0030 1A60     		str	r2, [r3]
 632:lib/chip/STM32F4xx_StdPeriph_Driver/src/stm32f4xx_sdio.c **** }
 1185              		.loc 1 632 0
 1186 0032 0837     		adds	r7, r7, #8
 1187 0034 BD46     		mov	sp, r7
 1188              		@ sp needed
 1189 0036 80BD     		pop	{r7, pc}
 1190              		.cfi_endproc
 1191              	.LFE127:
 1193              		.section	.text.SDIO_SetSDIOReadWaitMode,"ax",%progbits
 1194              		.align	2
 1195              		.global	SDIO_SetSDIOReadWaitMode
 1196              		.thumb
 1197              		.thumb_func
 1199              	SDIO_SetSDIOReadWaitMode:
 1200              	.LFB128:
 633:lib/chip/STM32F4xx_StdPeriph_Driver/src/stm32f4xx_sdio.c **** 
 634:lib/chip/STM32F4xx_StdPeriph_Driver/src/stm32f4xx_sdio.c **** /**
 635:lib/chip/STM32F4xx_StdPeriph_Driver/src/stm32f4xx_sdio.c ****   * @brief  Sets one of the two options of inserting read wait interval.
 636:lib/chip/STM32F4xx_StdPeriph_Driver/src/stm32f4xx_sdio.c ****   * @param  SDIO_ReadWaitMode: SD I/O Read Wait operation mode.
 637:lib/chip/STM32F4xx_StdPeriph_Driver/src/stm32f4xx_sdio.c ****   *          This parameter can be:
 638:lib/chip/STM32F4xx_StdPeriph_Driver/src/stm32f4xx_sdio.c ****   *            @arg SDIO_ReadWaitMode_CLK: Read Wait control by stopping SDIOCLK
 639:lib/chip/STM32F4xx_StdPeriph_Driver/src/stm32f4xx_sdio.c ****   *            @arg SDIO_ReadWaitMode_DATA2: Read Wait control using SDIO_DATA2
 640:lib/chip/STM32F4xx_StdPeriph_Driver/src/stm32f4xx_sdio.c ****   * @retval None
 641:lib/chip/STM32F4xx_StdPeriph_Driver/src/stm32f4xx_sdio.c ****   */
 642:lib/chip/STM32F4xx_StdPeriph_Driver/src/stm32f4xx_sdio.c **** void SDIO_SetSDIOReadWaitMode(uint32_t SDIO_ReadWaitMode)
 643:lib/chip/STM32F4xx_StdPeriph_Driver/src/stm32f4xx_sdio.c **** {
 1201              		.loc 1 643 0
 1202              		.cfi_startproc
 1203              		@ args = 0, pretend = 0, frame = 8
 1204              		@ frame_needed = 1, uses_anonymous_args = 0
 1205 0000 80B5     		push	{r7, lr}
 1206              	.LCFI48:
 1207              		.cfi_def_cfa_offset 8
 1208              		.cfi_offset 7, -8
 1209              		.cfi_offset 14, -4
 1210 0002 82B0     		sub	sp, sp, #8
 1211              	.LCFI49:
 1212              		.cfi_def_cfa_offset 16
 1213 0004 00AF     		add	r7, sp, #0
 1214              	.LCFI50:
 1215              		.cfi_def_cfa_register 7
 1216 0006 7860     		str	r0, [r7, #4]
 644:lib/chip/STM32F4xx_StdPeriph_Driver/src/stm32f4xx_sdio.c ****   /* Check the parameters */
 645:lib/chip/STM32F4xx_StdPeriph_Driver/src/stm32f4xx_sdio.c ****   assert_param(IS_SDIO_READWAIT_MODE(SDIO_ReadWaitMode));
 1217              		.loc 1 645 0
 1218 0008 7B68     		ldr	r3, [r7, #4]
 1219 000a 002B     		cmp	r3, #0
 1220 000c 0AD0     		beq	.L45
 1221              		.loc 1 645 0 is_stmt 0 discriminator 1
 1222 000e 7B68     		ldr	r3, [r7, #4]
 1223 0010 012B     		cmp	r3, #1
 1224 0012 07D0     		beq	.L45
 1225 0014 40F20000 		movw	r0, #:lower16:.LC0
 1226 0018 C0F20000 		movt	r0, #:upper16:.LC0
 1227 001c 40F28521 		movw	r1, #645
 1228 0020 FFF7FEFF 		bl	assert_failed
 1229              	.L45:
 646:lib/chip/STM32F4xx_StdPeriph_Driver/src/stm32f4xx_sdio.c ****   
 647:lib/chip/STM32F4xx_StdPeriph_Driver/src/stm32f4xx_sdio.c ****   *(__IO uint32_t *) DCTRL_RWMOD_BB = SDIO_ReadWaitMode;
 1230              		.loc 1 647 0 is_stmt 1
 1231 0024 48F2A853 		movw	r3, #34216
 1232 0028 C4F22523 		movt	r3, 16933
 1233 002c 7A68     		ldr	r2, [r7, #4]
 1234 002e 1A60     		str	r2, [r3]
 648:lib/chip/STM32F4xx_StdPeriph_Driver/src/stm32f4xx_sdio.c **** }
 1235              		.loc 1 648 0
 1236 0030 0837     		adds	r7, r7, #8
 1237 0032 BD46     		mov	sp, r7
 1238              		@ sp needed
 1239 0034 80BD     		pop	{r7, pc}
 1240              		.cfi_endproc
 1241              	.LFE128:
 1243 0036 00BF     		.section	.text.SDIO_SetSDIOOperation,"ax",%progbits
 1244              		.align	2
 1245              		.global	SDIO_SetSDIOOperation
 1246              		.thumb
 1247              		.thumb_func
 1249              	SDIO_SetSDIOOperation:
 1250              	.LFB129:
 649:lib/chip/STM32F4xx_StdPeriph_Driver/src/stm32f4xx_sdio.c **** 
 650:lib/chip/STM32F4xx_StdPeriph_Driver/src/stm32f4xx_sdio.c **** /**
 651:lib/chip/STM32F4xx_StdPeriph_Driver/src/stm32f4xx_sdio.c ****   * @brief  Enables or disables the SD I/O Mode Operation.
 652:lib/chip/STM32F4xx_StdPeriph_Driver/src/stm32f4xx_sdio.c ****   * @param  NewState: new state of SDIO specific operation. 
 653:lib/chip/STM32F4xx_StdPeriph_Driver/src/stm32f4xx_sdio.c ****   *         This parameter can be: ENABLE or DISABLE.
 654:lib/chip/STM32F4xx_StdPeriph_Driver/src/stm32f4xx_sdio.c ****   * @retval None
 655:lib/chip/STM32F4xx_StdPeriph_Driver/src/stm32f4xx_sdio.c ****   */
 656:lib/chip/STM32F4xx_StdPeriph_Driver/src/stm32f4xx_sdio.c **** void SDIO_SetSDIOOperation(FunctionalState NewState)
 657:lib/chip/STM32F4xx_StdPeriph_Driver/src/stm32f4xx_sdio.c **** { 
 1251              		.loc 1 657 0
 1252              		.cfi_startproc
 1253              		@ args = 0, pretend = 0, frame = 8
 1254              		@ frame_needed = 1, uses_anonymous_args = 0
 1255 0000 80B5     		push	{r7, lr}
 1256              	.LCFI51:
 1257              		.cfi_def_cfa_offset 8
 1258              		.cfi_offset 7, -8
 1259              		.cfi_offset 14, -4
 1260 0002 82B0     		sub	sp, sp, #8
 1261              	.LCFI52:
 1262              		.cfi_def_cfa_offset 16
 1263 0004 00AF     		add	r7, sp, #0
 1264              	.LCFI53:
 1265              		.cfi_def_cfa_register 7
 1266 0006 0346     		mov	r3, r0
 1267 0008 FB71     		strb	r3, [r7, #7]
 658:lib/chip/STM32F4xx_StdPeriph_Driver/src/stm32f4xx_sdio.c ****   /* Check the parameters */
 659:lib/chip/STM32F4xx_StdPeriph_Driver/src/stm32f4xx_sdio.c ****   assert_param(IS_FUNCTIONAL_STATE(NewState));
 1268              		.loc 1 659 0
 1269 000a FB79     		ldrb	r3, [r7, #7]	@ zero_extendqisi2
 1270 000c 002B     		cmp	r3, #0
 1271 000e 0AD0     		beq	.L47
 1272              		.loc 1 659 0 is_stmt 0 discriminator 1
 1273 0010 FB79     		ldrb	r3, [r7, #7]	@ zero_extendqisi2
 1274 0012 012B     		cmp	r3, #1
 1275 0014 07D0     		beq	.L47
 1276 0016 40F20000 		movw	r0, #:lower16:.LC0
 1277 001a C0F20000 		movt	r0, #:upper16:.LC0
 1278 001e 40F29321 		movw	r1, #659
 1279 0022 FFF7FEFF 		bl	assert_failed
 1280              	.L47:
 660:lib/chip/STM32F4xx_StdPeriph_Driver/src/stm32f4xx_sdio.c ****   
 661:lib/chip/STM32F4xx_StdPeriph_Driver/src/stm32f4xx_sdio.c ****   *(__IO uint32_t *) DCTRL_SDIOEN_BB = (uint32_t)NewState;
 1281              		.loc 1 661 0 is_stmt 1
 1282 0026 48F2AC53 		movw	r3, #34220
 1283 002a C4F22523 		movt	r3, 16933
 1284 002e FA79     		ldrb	r2, [r7, #7]	@ zero_extendqisi2
 1285 0030 1A60     		str	r2, [r3]
 662:lib/chip/STM32F4xx_StdPeriph_Driver/src/stm32f4xx_sdio.c **** }
 1286              		.loc 1 662 0
 1287 0032 0837     		adds	r7, r7, #8
 1288 0034 BD46     		mov	sp, r7
 1289              		@ sp needed
 1290 0036 80BD     		pop	{r7, pc}
 1291              		.cfi_endproc
 1292              	.LFE129:
 1294              		.section	.text.SDIO_SendSDIOSuspendCmd,"ax",%progbits
 1295              		.align	2
 1296              		.global	SDIO_SendSDIOSuspendCmd
 1297              		.thumb
 1298              		.thumb_func
 1300              	SDIO_SendSDIOSuspendCmd:
 1301              	.LFB130:
 663:lib/chip/STM32F4xx_StdPeriph_Driver/src/stm32f4xx_sdio.c **** 
 664:lib/chip/STM32F4xx_StdPeriph_Driver/src/stm32f4xx_sdio.c **** /**
 665:lib/chip/STM32F4xx_StdPeriph_Driver/src/stm32f4xx_sdio.c ****   * @brief  Enables or disables the SD I/O Mode suspend command sending.
 666:lib/chip/STM32F4xx_StdPeriph_Driver/src/stm32f4xx_sdio.c ****   * @param  NewState: new state of the SD I/O Mode suspend command.
 667:lib/chip/STM32F4xx_StdPeriph_Driver/src/stm32f4xx_sdio.c ****   *         This parameter can be: ENABLE or DISABLE.
 668:lib/chip/STM32F4xx_StdPeriph_Driver/src/stm32f4xx_sdio.c ****   * @retval None
 669:lib/chip/STM32F4xx_StdPeriph_Driver/src/stm32f4xx_sdio.c ****   */
 670:lib/chip/STM32F4xx_StdPeriph_Driver/src/stm32f4xx_sdio.c **** void SDIO_SendSDIOSuspendCmd(FunctionalState NewState)
 671:lib/chip/STM32F4xx_StdPeriph_Driver/src/stm32f4xx_sdio.c **** { 
 1302              		.loc 1 671 0
 1303              		.cfi_startproc
 1304              		@ args = 0, pretend = 0, frame = 8
 1305              		@ frame_needed = 1, uses_anonymous_args = 0
 1306 0000 80B5     		push	{r7, lr}
 1307              	.LCFI54:
 1308              		.cfi_def_cfa_offset 8
 1309              		.cfi_offset 7, -8
 1310              		.cfi_offset 14, -4
 1311 0002 82B0     		sub	sp, sp, #8
 1312              	.LCFI55:
 1313              		.cfi_def_cfa_offset 16
 1314 0004 00AF     		add	r7, sp, #0
 1315              	.LCFI56:
 1316              		.cfi_def_cfa_register 7
 1317 0006 0346     		mov	r3, r0
 1318 0008 FB71     		strb	r3, [r7, #7]
 672:lib/chip/STM32F4xx_StdPeriph_Driver/src/stm32f4xx_sdio.c ****   /* Check the parameters */
 673:lib/chip/STM32F4xx_StdPeriph_Driver/src/stm32f4xx_sdio.c ****   assert_param(IS_FUNCTIONAL_STATE(NewState));
 1319              		.loc 1 673 0
 1320 000a FB79     		ldrb	r3, [r7, #7]	@ zero_extendqisi2
 1321 000c 002B     		cmp	r3, #0
 1322 000e 0AD0     		beq	.L49
 1323              		.loc 1 673 0 is_stmt 0 discriminator 1
 1324 0010 FB79     		ldrb	r3, [r7, #7]	@ zero_extendqisi2
 1325 0012 012B     		cmp	r3, #1
 1326 0014 07D0     		beq	.L49
 1327 0016 40F20000 		movw	r0, #:lower16:.LC0
 1328 001a C0F20000 		movt	r0, #:upper16:.LC0
 1329 001e 40F2A121 		movw	r1, #673
 1330 0022 FFF7FEFF 		bl	assert_failed
 1331              	.L49:
 674:lib/chip/STM32F4xx_StdPeriph_Driver/src/stm32f4xx_sdio.c ****   
 675:lib/chip/STM32F4xx_StdPeriph_Driver/src/stm32f4xx_sdio.c ****   *(__IO uint32_t *) CMD_SDIOSUSPEND_BB = (uint32_t)NewState;
 1332              		.loc 1 675 0 is_stmt 1
 1333 0026 48F2AC13 		movw	r3, #33196
 1334 002a C4F22523 		movt	r3, 16933
 1335 002e FA79     		ldrb	r2, [r7, #7]	@ zero_extendqisi2
 1336 0030 1A60     		str	r2, [r3]
 676:lib/chip/STM32F4xx_StdPeriph_Driver/src/stm32f4xx_sdio.c **** }
 1337              		.loc 1 676 0
 1338 0032 0837     		adds	r7, r7, #8
 1339 0034 BD46     		mov	sp, r7
 1340              		@ sp needed
 1341 0036 80BD     		pop	{r7, pc}
 1342              		.cfi_endproc
 1343              	.LFE130:
 1345              		.section	.text.SDIO_CommandCompletionCmd,"ax",%progbits
 1346              		.align	2
 1347              		.global	SDIO_CommandCompletionCmd
 1348              		.thumb
 1349              		.thumb_func
 1351              	SDIO_CommandCompletionCmd:
 1352              	.LFB131:
 677:lib/chip/STM32F4xx_StdPeriph_Driver/src/stm32f4xx_sdio.c **** 
 678:lib/chip/STM32F4xx_StdPeriph_Driver/src/stm32f4xx_sdio.c **** /**
 679:lib/chip/STM32F4xx_StdPeriph_Driver/src/stm32f4xx_sdio.c ****   * @}
 680:lib/chip/STM32F4xx_StdPeriph_Driver/src/stm32f4xx_sdio.c ****   */
 681:lib/chip/STM32F4xx_StdPeriph_Driver/src/stm32f4xx_sdio.c **** 
 682:lib/chip/STM32F4xx_StdPeriph_Driver/src/stm32f4xx_sdio.c **** /** @defgroup SDIO_Group5 CE-ATA mode management functions
 683:lib/chip/STM32F4xx_StdPeriph_Driver/src/stm32f4xx_sdio.c ****  *  @brief   CE-ATA mode management functions
 684:lib/chip/STM32F4xx_StdPeriph_Driver/src/stm32f4xx_sdio.c ****  *
 685:lib/chip/STM32F4xx_StdPeriph_Driver/src/stm32f4xx_sdio.c **** @verbatim   
 686:lib/chip/STM32F4xx_StdPeriph_Driver/src/stm32f4xx_sdio.c ****  ===============================================================================
 687:lib/chip/STM32F4xx_StdPeriph_Driver/src/stm32f4xx_sdio.c ****               CE-ATA mode management functions
 688:lib/chip/STM32F4xx_StdPeriph_Driver/src/stm32f4xx_sdio.c ****  ===============================================================================  
 689:lib/chip/STM32F4xx_StdPeriph_Driver/src/stm32f4xx_sdio.c **** 
 690:lib/chip/STM32F4xx_StdPeriph_Driver/src/stm32f4xx_sdio.c ****   This section provide functions allowing to program and read the CE-ATA card.
 691:lib/chip/STM32F4xx_StdPeriph_Driver/src/stm32f4xx_sdio.c **** 
 692:lib/chip/STM32F4xx_StdPeriph_Driver/src/stm32f4xx_sdio.c **** @endverbatim
 693:lib/chip/STM32F4xx_StdPeriph_Driver/src/stm32f4xx_sdio.c ****   * @{
 694:lib/chip/STM32F4xx_StdPeriph_Driver/src/stm32f4xx_sdio.c ****   */
 695:lib/chip/STM32F4xx_StdPeriph_Driver/src/stm32f4xx_sdio.c **** 
 696:lib/chip/STM32F4xx_StdPeriph_Driver/src/stm32f4xx_sdio.c **** /**
 697:lib/chip/STM32F4xx_StdPeriph_Driver/src/stm32f4xx_sdio.c ****   * @brief  Enables or disables the command completion signal.
 698:lib/chip/STM32F4xx_StdPeriph_Driver/src/stm32f4xx_sdio.c ****   * @param  NewState: new state of command completion signal. 
 699:lib/chip/STM32F4xx_StdPeriph_Driver/src/stm32f4xx_sdio.c ****   *         This parameter can be: ENABLE or DISABLE.
 700:lib/chip/STM32F4xx_StdPeriph_Driver/src/stm32f4xx_sdio.c ****   * @retval None
 701:lib/chip/STM32F4xx_StdPeriph_Driver/src/stm32f4xx_sdio.c ****   */
 702:lib/chip/STM32F4xx_StdPeriph_Driver/src/stm32f4xx_sdio.c **** void SDIO_CommandCompletionCmd(FunctionalState NewState)
 703:lib/chip/STM32F4xx_StdPeriph_Driver/src/stm32f4xx_sdio.c **** { 
 1353              		.loc 1 703 0
 1354              		.cfi_startproc
 1355              		@ args = 0, pretend = 0, frame = 8
 1356              		@ frame_needed = 1, uses_anonymous_args = 0
 1357 0000 80B5     		push	{r7, lr}
 1358              	.LCFI57:
 1359              		.cfi_def_cfa_offset 8
 1360              		.cfi_offset 7, -8
 1361              		.cfi_offset 14, -4
 1362 0002 82B0     		sub	sp, sp, #8
 1363              	.LCFI58:
 1364              		.cfi_def_cfa_offset 16
 1365 0004 00AF     		add	r7, sp, #0
 1366              	.LCFI59:
 1367              		.cfi_def_cfa_register 7
 1368 0006 0346     		mov	r3, r0
 1369 0008 FB71     		strb	r3, [r7, #7]
 704:lib/chip/STM32F4xx_StdPeriph_Driver/src/stm32f4xx_sdio.c ****   /* Check the parameters */
 705:lib/chip/STM32F4xx_StdPeriph_Driver/src/stm32f4xx_sdio.c ****   assert_param(IS_FUNCTIONAL_STATE(NewState));
 1370              		.loc 1 705 0
 1371 000a FB79     		ldrb	r3, [r7, #7]	@ zero_extendqisi2
 1372 000c 002B     		cmp	r3, #0
 1373 000e 0AD0     		beq	.L51
 1374              		.loc 1 705 0 is_stmt 0 discriminator 1
 1375 0010 FB79     		ldrb	r3, [r7, #7]	@ zero_extendqisi2
 1376 0012 012B     		cmp	r3, #1
 1377 0014 07D0     		beq	.L51
 1378 0016 40F20000 		movw	r0, #:lower16:.LC0
 1379 001a C0F20000 		movt	r0, #:upper16:.LC0
 1380 001e 40F2C121 		movw	r1, #705
 1381 0022 FFF7FEFF 		bl	assert_failed
 1382              	.L51:
 706:lib/chip/STM32F4xx_StdPeriph_Driver/src/stm32f4xx_sdio.c ****   
 707:lib/chip/STM32F4xx_StdPeriph_Driver/src/stm32f4xx_sdio.c ****   *(__IO uint32_t *) CMD_ENCMDCOMPL_BB = (uint32_t)NewState;
 1383              		.loc 1 707 0 is_stmt 1
 1384 0026 48F2B013 		movw	r3, #33200
 1385 002a C4F22523 		movt	r3, 16933
 1386 002e FA79     		ldrb	r2, [r7, #7]	@ zero_extendqisi2
 1387 0030 1A60     		str	r2, [r3]
 708:lib/chip/STM32F4xx_StdPeriph_Driver/src/stm32f4xx_sdio.c **** }
 1388              		.loc 1 708 0
 1389 0032 0837     		adds	r7, r7, #8
 1390 0034 BD46     		mov	sp, r7
 1391              		@ sp needed
 1392 0036 80BD     		pop	{r7, pc}
 1393              		.cfi_endproc
 1394              	.LFE131:
 1396              		.section	.text.SDIO_CEATAITCmd,"ax",%progbits
 1397              		.align	2
 1398              		.global	SDIO_CEATAITCmd
 1399              		.thumb
 1400              		.thumb_func
 1402              	SDIO_CEATAITCmd:
 1403              	.LFB132:
 709:lib/chip/STM32F4xx_StdPeriph_Driver/src/stm32f4xx_sdio.c **** 
 710:lib/chip/STM32F4xx_StdPeriph_Driver/src/stm32f4xx_sdio.c **** /**
 711:lib/chip/STM32F4xx_StdPeriph_Driver/src/stm32f4xx_sdio.c ****   * @brief  Enables or disables the CE-ATA interrupt.
 712:lib/chip/STM32F4xx_StdPeriph_Driver/src/stm32f4xx_sdio.c ****   * @param  NewState: new state of CE-ATA interrupt. 
 713:lib/chip/STM32F4xx_StdPeriph_Driver/src/stm32f4xx_sdio.c ****   *         This parameter can be: ENABLE or DISABLE.
 714:lib/chip/STM32F4xx_StdPeriph_Driver/src/stm32f4xx_sdio.c ****   * @retval None
 715:lib/chip/STM32F4xx_StdPeriph_Driver/src/stm32f4xx_sdio.c ****   */
 716:lib/chip/STM32F4xx_StdPeriph_Driver/src/stm32f4xx_sdio.c **** void SDIO_CEATAITCmd(FunctionalState NewState)
 717:lib/chip/STM32F4xx_StdPeriph_Driver/src/stm32f4xx_sdio.c **** { 
 1404              		.loc 1 717 0
 1405              		.cfi_startproc
 1406              		@ args = 0, pretend = 0, frame = 8
 1407              		@ frame_needed = 1, uses_anonymous_args = 0
 1408 0000 80B5     		push	{r7, lr}
 1409              	.LCFI60:
 1410              		.cfi_def_cfa_offset 8
 1411              		.cfi_offset 7, -8
 1412              		.cfi_offset 14, -4
 1413 0002 82B0     		sub	sp, sp, #8
 1414              	.LCFI61:
 1415              		.cfi_def_cfa_offset 16
 1416 0004 00AF     		add	r7, sp, #0
 1417              	.LCFI62:
 1418              		.cfi_def_cfa_register 7
 1419 0006 0346     		mov	r3, r0
 1420 0008 FB71     		strb	r3, [r7, #7]
 718:lib/chip/STM32F4xx_StdPeriph_Driver/src/stm32f4xx_sdio.c ****   /* Check the parameters */
 719:lib/chip/STM32F4xx_StdPeriph_Driver/src/stm32f4xx_sdio.c ****   assert_param(IS_FUNCTIONAL_STATE(NewState));
 1421              		.loc 1 719 0
 1422 000a FB79     		ldrb	r3, [r7, #7]	@ zero_extendqisi2
 1423 000c 002B     		cmp	r3, #0
 1424 000e 0AD0     		beq	.L53
 1425              		.loc 1 719 0 is_stmt 0 discriminator 1
 1426 0010 FB79     		ldrb	r3, [r7, #7]	@ zero_extendqisi2
 1427 0012 012B     		cmp	r3, #1
 1428 0014 07D0     		beq	.L53
 1429 0016 40F20000 		movw	r0, #:lower16:.LC0
 1430 001a C0F20000 		movt	r0, #:upper16:.LC0
 1431 001e 40F2CF21 		movw	r1, #719
 1432 0022 FFF7FEFF 		bl	assert_failed
 1433              	.L53:
 720:lib/chip/STM32F4xx_StdPeriph_Driver/src/stm32f4xx_sdio.c ****   
 721:lib/chip/STM32F4xx_StdPeriph_Driver/src/stm32f4xx_sdio.c ****   *(__IO uint32_t *) CMD_NIEN_BB = (uint32_t)((~((uint32_t)NewState)) & ((uint32_t)0x1));
 1434              		.loc 1 721 0 is_stmt 1
 1435 0026 48F2B413 		movw	r3, #33204
 1436 002a C4F22523 		movt	r3, 16933
 1437 002e FA79     		ldrb	r2, [r7, #7]	@ zero_extendqisi2
 1438 0030 02F00102 		and	r2, r2, #1
 1439 0034 002A     		cmp	r2, #0
 1440 0036 14BF     		ite	ne
 1441 0038 0022     		movne	r2, #0
 1442 003a 0122     		moveq	r2, #1
 1443 003c D2B2     		uxtb	r2, r2
 1444 003e 1A60     		str	r2, [r3]
 722:lib/chip/STM32F4xx_StdPeriph_Driver/src/stm32f4xx_sdio.c **** }
 1445              		.loc 1 722 0
 1446 0040 0837     		adds	r7, r7, #8
 1447 0042 BD46     		mov	sp, r7
 1448              		@ sp needed
 1449 0044 80BD     		pop	{r7, pc}
 1450              		.cfi_endproc
 1451              	.LFE132:
 1453 0046 00BF     		.section	.text.SDIO_SendCEATACmd,"ax",%progbits
 1454              		.align	2
 1455              		.global	SDIO_SendCEATACmd
 1456              		.thumb
 1457              		.thumb_func
 1459              	SDIO_SendCEATACmd:
 1460              	.LFB133:
 723:lib/chip/STM32F4xx_StdPeriph_Driver/src/stm32f4xx_sdio.c **** 
 724:lib/chip/STM32F4xx_StdPeriph_Driver/src/stm32f4xx_sdio.c **** /**
 725:lib/chip/STM32F4xx_StdPeriph_Driver/src/stm32f4xx_sdio.c ****   * @brief  Sends CE-ATA command (CMD61).
 726:lib/chip/STM32F4xx_StdPeriph_Driver/src/stm32f4xx_sdio.c ****   * @param  NewState: new state of CE-ATA command. 
 727:lib/chip/STM32F4xx_StdPeriph_Driver/src/stm32f4xx_sdio.c ****   *         This parameter can be: ENABLE or DISABLE.
 728:lib/chip/STM32F4xx_StdPeriph_Driver/src/stm32f4xx_sdio.c ****   * @retval None
 729:lib/chip/STM32F4xx_StdPeriph_Driver/src/stm32f4xx_sdio.c ****   */
 730:lib/chip/STM32F4xx_StdPeriph_Driver/src/stm32f4xx_sdio.c **** void SDIO_SendCEATACmd(FunctionalState NewState)
 731:lib/chip/STM32F4xx_StdPeriph_Driver/src/stm32f4xx_sdio.c **** { 
 1461              		.loc 1 731 0
 1462              		.cfi_startproc
 1463              		@ args = 0, pretend = 0, frame = 8
 1464              		@ frame_needed = 1, uses_anonymous_args = 0
 1465 0000 80B5     		push	{r7, lr}
 1466              	.LCFI63:
 1467              		.cfi_def_cfa_offset 8
 1468              		.cfi_offset 7, -8
 1469              		.cfi_offset 14, -4
 1470 0002 82B0     		sub	sp, sp, #8
 1471              	.LCFI64:
 1472              		.cfi_def_cfa_offset 16
 1473 0004 00AF     		add	r7, sp, #0
 1474              	.LCFI65:
 1475              		.cfi_def_cfa_register 7
 1476 0006 0346     		mov	r3, r0
 1477 0008 FB71     		strb	r3, [r7, #7]
 732:lib/chip/STM32F4xx_StdPeriph_Driver/src/stm32f4xx_sdio.c ****   /* Check the parameters */
 733:lib/chip/STM32F4xx_StdPeriph_Driver/src/stm32f4xx_sdio.c ****   assert_param(IS_FUNCTIONAL_STATE(NewState));
 1478              		.loc 1 733 0
 1479 000a FB79     		ldrb	r3, [r7, #7]	@ zero_extendqisi2
 1480 000c 002B     		cmp	r3, #0
 1481 000e 0AD0     		beq	.L55
 1482              		.loc 1 733 0 is_stmt 0 discriminator 1
 1483 0010 FB79     		ldrb	r3, [r7, #7]	@ zero_extendqisi2
 1484 0012 012B     		cmp	r3, #1
 1485 0014 07D0     		beq	.L55
 1486 0016 40F20000 		movw	r0, #:lower16:.LC0
 1487 001a C0F20000 		movt	r0, #:upper16:.LC0
 1488 001e 40F2DD21 		movw	r1, #733
 1489 0022 FFF7FEFF 		bl	assert_failed
 1490              	.L55:
 734:lib/chip/STM32F4xx_StdPeriph_Driver/src/stm32f4xx_sdio.c ****   
 735:lib/chip/STM32F4xx_StdPeriph_Driver/src/stm32f4xx_sdio.c ****   *(__IO uint32_t *) CMD_ATACMD_BB = (uint32_t)NewState;
 1491              		.loc 1 735 0 is_stmt 1
 1492 0026 48F2B813 		movw	r3, #33208
 1493 002a C4F22523 		movt	r3, 16933
 1494 002e FA79     		ldrb	r2, [r7, #7]	@ zero_extendqisi2
 1495 0030 1A60     		str	r2, [r3]
 736:lib/chip/STM32F4xx_StdPeriph_Driver/src/stm32f4xx_sdio.c **** }
 1496              		.loc 1 736 0
 1497 0032 0837     		adds	r7, r7, #8
 1498 0034 BD46     		mov	sp, r7
 1499              		@ sp needed
 1500 0036 80BD     		pop	{r7, pc}
 1501              		.cfi_endproc
 1502              	.LFE133:
 1504              		.section	.text.SDIO_DMACmd,"ax",%progbits
 1505              		.align	2
 1506              		.global	SDIO_DMACmd
 1507              		.thumb
 1508              		.thumb_func
 1510              	SDIO_DMACmd:
 1511              	.LFB134:
 737:lib/chip/STM32F4xx_StdPeriph_Driver/src/stm32f4xx_sdio.c **** 
 738:lib/chip/STM32F4xx_StdPeriph_Driver/src/stm32f4xx_sdio.c **** /**
 739:lib/chip/STM32F4xx_StdPeriph_Driver/src/stm32f4xx_sdio.c ****   * @}
 740:lib/chip/STM32F4xx_StdPeriph_Driver/src/stm32f4xx_sdio.c ****   */
 741:lib/chip/STM32F4xx_StdPeriph_Driver/src/stm32f4xx_sdio.c **** 
 742:lib/chip/STM32F4xx_StdPeriph_Driver/src/stm32f4xx_sdio.c **** /** @defgroup SDIO_Group6 DMA transfers management functions
 743:lib/chip/STM32F4xx_StdPeriph_Driver/src/stm32f4xx_sdio.c ****  *  @brief   DMA transfers management functions
 744:lib/chip/STM32F4xx_StdPeriph_Driver/src/stm32f4xx_sdio.c ****  *
 745:lib/chip/STM32F4xx_StdPeriph_Driver/src/stm32f4xx_sdio.c **** @verbatim   
 746:lib/chip/STM32F4xx_StdPeriph_Driver/src/stm32f4xx_sdio.c ****  ===============================================================================
 747:lib/chip/STM32F4xx_StdPeriph_Driver/src/stm32f4xx_sdio.c ****               DMA transfers management functions
 748:lib/chip/STM32F4xx_StdPeriph_Driver/src/stm32f4xx_sdio.c ****  ===============================================================================  
 749:lib/chip/STM32F4xx_StdPeriph_Driver/src/stm32f4xx_sdio.c **** 
 750:lib/chip/STM32F4xx_StdPeriph_Driver/src/stm32f4xx_sdio.c ****   This section provide functions allowing to program SDIO DMA transfer.
 751:lib/chip/STM32F4xx_StdPeriph_Driver/src/stm32f4xx_sdio.c **** 
 752:lib/chip/STM32F4xx_StdPeriph_Driver/src/stm32f4xx_sdio.c **** @endverbatim
 753:lib/chip/STM32F4xx_StdPeriph_Driver/src/stm32f4xx_sdio.c ****   * @{
 754:lib/chip/STM32F4xx_StdPeriph_Driver/src/stm32f4xx_sdio.c ****   */
 755:lib/chip/STM32F4xx_StdPeriph_Driver/src/stm32f4xx_sdio.c **** 
 756:lib/chip/STM32F4xx_StdPeriph_Driver/src/stm32f4xx_sdio.c **** /**
 757:lib/chip/STM32F4xx_StdPeriph_Driver/src/stm32f4xx_sdio.c ****   * @brief  Enables or disables the SDIO DMA request.
 758:lib/chip/STM32F4xx_StdPeriph_Driver/src/stm32f4xx_sdio.c ****   * @param  NewState: new state of the selected SDIO DMA request.
 759:lib/chip/STM32F4xx_StdPeriph_Driver/src/stm32f4xx_sdio.c ****   *          This parameter can be: ENABLE or DISABLE.
 760:lib/chip/STM32F4xx_StdPeriph_Driver/src/stm32f4xx_sdio.c ****   * @retval None
 761:lib/chip/STM32F4xx_StdPeriph_Driver/src/stm32f4xx_sdio.c ****   */
 762:lib/chip/STM32F4xx_StdPeriph_Driver/src/stm32f4xx_sdio.c **** void SDIO_DMACmd(FunctionalState NewState)
 763:lib/chip/STM32F4xx_StdPeriph_Driver/src/stm32f4xx_sdio.c **** {
 1512              		.loc 1 763 0
 1513              		.cfi_startproc
 1514              		@ args = 0, pretend = 0, frame = 8
 1515              		@ frame_needed = 1, uses_anonymous_args = 0
 1516 0000 80B5     		push	{r7, lr}
 1517              	.LCFI66:
 1518              		.cfi_def_cfa_offset 8
 1519              		.cfi_offset 7, -8
 1520              		.cfi_offset 14, -4
 1521 0002 82B0     		sub	sp, sp, #8
 1522              	.LCFI67:
 1523              		.cfi_def_cfa_offset 16
 1524 0004 00AF     		add	r7, sp, #0
 1525              	.LCFI68:
 1526              		.cfi_def_cfa_register 7
 1527 0006 0346     		mov	r3, r0
 1528 0008 FB71     		strb	r3, [r7, #7]
 764:lib/chip/STM32F4xx_StdPeriph_Driver/src/stm32f4xx_sdio.c ****   /* Check the parameters */
 765:lib/chip/STM32F4xx_StdPeriph_Driver/src/stm32f4xx_sdio.c ****   assert_param(IS_FUNCTIONAL_STATE(NewState));
 1529              		.loc 1 765 0
 1530 000a FB79     		ldrb	r3, [r7, #7]	@ zero_extendqisi2
 1531 000c 002B     		cmp	r3, #0
 1532 000e 0AD0     		beq	.L57
 1533              		.loc 1 765 0 is_stmt 0 discriminator 1
 1534 0010 FB79     		ldrb	r3, [r7, #7]	@ zero_extendqisi2
 1535 0012 012B     		cmp	r3, #1
 1536 0014 07D0     		beq	.L57
 1537 0016 40F20000 		movw	r0, #:lower16:.LC0
 1538 001a C0F20000 		movt	r0, #:upper16:.LC0
 1539 001e 40F2FD21 		movw	r1, #765
 1540 0022 FFF7FEFF 		bl	assert_failed
 1541              	.L57:
 766:lib/chip/STM32F4xx_StdPeriph_Driver/src/stm32f4xx_sdio.c ****   
 767:lib/chip/STM32F4xx_StdPeriph_Driver/src/stm32f4xx_sdio.c ****   *(__IO uint32_t *) DCTRL_DMAEN_BB = (uint32_t)NewState;
 1542              		.loc 1 767 0 is_stmt 1
 1543 0026 48F28C53 		movw	r3, #34188
 1544 002a C4F22523 		movt	r3, 16933
 1545 002e FA79     		ldrb	r2, [r7, #7]	@ zero_extendqisi2
 1546 0030 1A60     		str	r2, [r3]
 768:lib/chip/STM32F4xx_StdPeriph_Driver/src/stm32f4xx_sdio.c **** }
 1547              		.loc 1 768 0
 1548 0032 0837     		adds	r7, r7, #8
 1549 0034 BD46     		mov	sp, r7
 1550              		@ sp needed
 1551 0036 80BD     		pop	{r7, pc}
 1552              		.cfi_endproc
 1553              	.LFE134:
 1555              		.section	.text.SDIO_ITConfig,"ax",%progbits
 1556              		.align	2
 1557              		.global	SDIO_ITConfig
 1558              		.thumb
 1559              		.thumb_func
 1561              	SDIO_ITConfig:
 1562              	.LFB135:
 769:lib/chip/STM32F4xx_StdPeriph_Driver/src/stm32f4xx_sdio.c **** 
 770:lib/chip/STM32F4xx_StdPeriph_Driver/src/stm32f4xx_sdio.c **** /**
 771:lib/chip/STM32F4xx_StdPeriph_Driver/src/stm32f4xx_sdio.c ****   * @}
 772:lib/chip/STM32F4xx_StdPeriph_Driver/src/stm32f4xx_sdio.c ****   */
 773:lib/chip/STM32F4xx_StdPeriph_Driver/src/stm32f4xx_sdio.c **** 
 774:lib/chip/STM32F4xx_StdPeriph_Driver/src/stm32f4xx_sdio.c **** /** @defgroup SDIO_Group7 Interrupts and flags management functions
 775:lib/chip/STM32F4xx_StdPeriph_Driver/src/stm32f4xx_sdio.c ****  *  @brief   Interrupts and flags management functions  
 776:lib/chip/STM32F4xx_StdPeriph_Driver/src/stm32f4xx_sdio.c ****  *
 777:lib/chip/STM32F4xx_StdPeriph_Driver/src/stm32f4xx_sdio.c **** @verbatim   
 778:lib/chip/STM32F4xx_StdPeriph_Driver/src/stm32f4xx_sdio.c ****  ===============================================================================
 779:lib/chip/STM32F4xx_StdPeriph_Driver/src/stm32f4xx_sdio.c ****                        Interrupts and flags management functions
 780:lib/chip/STM32F4xx_StdPeriph_Driver/src/stm32f4xx_sdio.c ****  ===============================================================================  
 781:lib/chip/STM32F4xx_StdPeriph_Driver/src/stm32f4xx_sdio.c **** 
 782:lib/chip/STM32F4xx_StdPeriph_Driver/src/stm32f4xx_sdio.c **** 
 783:lib/chip/STM32F4xx_StdPeriph_Driver/src/stm32f4xx_sdio.c **** @endverbatim
 784:lib/chip/STM32F4xx_StdPeriph_Driver/src/stm32f4xx_sdio.c ****   * @{
 785:lib/chip/STM32F4xx_StdPeriph_Driver/src/stm32f4xx_sdio.c ****   */
 786:lib/chip/STM32F4xx_StdPeriph_Driver/src/stm32f4xx_sdio.c **** 
 787:lib/chip/STM32F4xx_StdPeriph_Driver/src/stm32f4xx_sdio.c **** /**
 788:lib/chip/STM32F4xx_StdPeriph_Driver/src/stm32f4xx_sdio.c ****   * @brief  Enables or disables the SDIO interrupts.
 789:lib/chip/STM32F4xx_StdPeriph_Driver/src/stm32f4xx_sdio.c ****   * @param  SDIO_IT: specifies the SDIO interrupt sources to be enabled or disabled.
 790:lib/chip/STM32F4xx_StdPeriph_Driver/src/stm32f4xx_sdio.c ****   *          This parameter can be one or a combination of the following values:
 791:lib/chip/STM32F4xx_StdPeriph_Driver/src/stm32f4xx_sdio.c ****   *            @arg SDIO_IT_CCRCFAIL: Command response received (CRC check failed) interrupt
 792:lib/chip/STM32F4xx_StdPeriph_Driver/src/stm32f4xx_sdio.c ****   *            @arg SDIO_IT_DCRCFAIL: Data block sent/received (CRC check failed) interrupt
 793:lib/chip/STM32F4xx_StdPeriph_Driver/src/stm32f4xx_sdio.c ****   *            @arg SDIO_IT_CTIMEOUT: Command response timeout interrupt
 794:lib/chip/STM32F4xx_StdPeriph_Driver/src/stm32f4xx_sdio.c ****   *            @arg SDIO_IT_DTIMEOUT: Data timeout interrupt
 795:lib/chip/STM32F4xx_StdPeriph_Driver/src/stm32f4xx_sdio.c ****   *            @arg SDIO_IT_TXUNDERR: Transmit FIFO underrun error interrupt
 796:lib/chip/STM32F4xx_StdPeriph_Driver/src/stm32f4xx_sdio.c ****   *            @arg SDIO_IT_RXOVERR:  Received FIFO overrun error interrupt
 797:lib/chip/STM32F4xx_StdPeriph_Driver/src/stm32f4xx_sdio.c ****   *            @arg SDIO_IT_CMDREND:  Command response received (CRC check passed) interrupt
 798:lib/chip/STM32F4xx_StdPeriph_Driver/src/stm32f4xx_sdio.c ****   *            @arg SDIO_IT_CMDSENT:  Command sent (no response required) interrupt
 799:lib/chip/STM32F4xx_StdPeriph_Driver/src/stm32f4xx_sdio.c ****   *            @arg SDIO_IT_DATAEND:  Data end (data counter, SDIDCOUNT, is zero) interrupt
 800:lib/chip/STM32F4xx_StdPeriph_Driver/src/stm32f4xx_sdio.c ****   *            @arg SDIO_IT_STBITERR: Start bit not detected on all data signals in wide 
 801:lib/chip/STM32F4xx_StdPeriph_Driver/src/stm32f4xx_sdio.c ****   *                                   bus mode interrupt
 802:lib/chip/STM32F4xx_StdPeriph_Driver/src/stm32f4xx_sdio.c ****   *            @arg SDIO_IT_DBCKEND:  Data block sent/received (CRC check passed) interrupt
 803:lib/chip/STM32F4xx_StdPeriph_Driver/src/stm32f4xx_sdio.c ****   *            @arg SDIO_IT_CMDACT:   Command transfer in progress interrupt
 804:lib/chip/STM32F4xx_StdPeriph_Driver/src/stm32f4xx_sdio.c ****   *            @arg SDIO_IT_TXACT:    Data transmit in progress interrupt
 805:lib/chip/STM32F4xx_StdPeriph_Driver/src/stm32f4xx_sdio.c ****   *            @arg SDIO_IT_RXACT:    Data receive in progress interrupt
 806:lib/chip/STM32F4xx_StdPeriph_Driver/src/stm32f4xx_sdio.c ****   *            @arg SDIO_IT_TXFIFOHE: Transmit FIFO Half Empty interrupt
 807:lib/chip/STM32F4xx_StdPeriph_Driver/src/stm32f4xx_sdio.c ****   *            @arg SDIO_IT_RXFIFOHF: Receive FIFO Half Full interrupt
 808:lib/chip/STM32F4xx_StdPeriph_Driver/src/stm32f4xx_sdio.c ****   *            @arg SDIO_IT_TXFIFOF:  Transmit FIFO full interrupt
 809:lib/chip/STM32F4xx_StdPeriph_Driver/src/stm32f4xx_sdio.c ****   *            @arg SDIO_IT_RXFIFOF:  Receive FIFO full interrupt
 810:lib/chip/STM32F4xx_StdPeriph_Driver/src/stm32f4xx_sdio.c ****   *            @arg SDIO_IT_TXFIFOE:  Transmit FIFO empty interrupt
 811:lib/chip/STM32F4xx_StdPeriph_Driver/src/stm32f4xx_sdio.c ****   *            @arg SDIO_IT_RXFIFOE:  Receive FIFO empty interrupt
 812:lib/chip/STM32F4xx_StdPeriph_Driver/src/stm32f4xx_sdio.c ****   *            @arg SDIO_IT_TXDAVL:   Data available in transmit FIFO interrupt
 813:lib/chip/STM32F4xx_StdPeriph_Driver/src/stm32f4xx_sdio.c ****   *            @arg SDIO_IT_RXDAVL:   Data available in receive FIFO interrupt
 814:lib/chip/STM32F4xx_StdPeriph_Driver/src/stm32f4xx_sdio.c ****   *            @arg SDIO_IT_SDIOIT:   SD I/O interrupt received interrupt
 815:lib/chip/STM32F4xx_StdPeriph_Driver/src/stm32f4xx_sdio.c ****   *            @arg SDIO_IT_CEATAEND: CE-ATA command completion signal received for CMD61 interrupt
 816:lib/chip/STM32F4xx_StdPeriph_Driver/src/stm32f4xx_sdio.c ****   * @param  NewState: new state of the specified SDIO interrupts.
 817:lib/chip/STM32F4xx_StdPeriph_Driver/src/stm32f4xx_sdio.c ****   *          This parameter can be: ENABLE or DISABLE.
 818:lib/chip/STM32F4xx_StdPeriph_Driver/src/stm32f4xx_sdio.c ****   * @retval None 
 819:lib/chip/STM32F4xx_StdPeriph_Driver/src/stm32f4xx_sdio.c ****   */
 820:lib/chip/STM32F4xx_StdPeriph_Driver/src/stm32f4xx_sdio.c **** void SDIO_ITConfig(uint32_t SDIO_IT, FunctionalState NewState)
 821:lib/chip/STM32F4xx_StdPeriph_Driver/src/stm32f4xx_sdio.c **** {
 1563              		.loc 1 821 0
 1564              		.cfi_startproc
 1565              		@ args = 0, pretend = 0, frame = 8
 1566              		@ frame_needed = 1, uses_anonymous_args = 0
 1567 0000 80B5     		push	{r7, lr}
 1568              	.LCFI69:
 1569              		.cfi_def_cfa_offset 8
 1570              		.cfi_offset 7, -8
 1571              		.cfi_offset 14, -4
 1572 0002 82B0     		sub	sp, sp, #8
 1573              	.LCFI70:
 1574              		.cfi_def_cfa_offset 16
 1575 0004 00AF     		add	r7, sp, #0
 1576              	.LCFI71:
 1577              		.cfi_def_cfa_register 7
 1578 0006 7860     		str	r0, [r7, #4]
 1579 0008 0B46     		mov	r3, r1
 1580 000a FB70     		strb	r3, [r7, #3]
 822:lib/chip/STM32F4xx_StdPeriph_Driver/src/stm32f4xx_sdio.c ****   /* Check the parameters */
 823:lib/chip/STM32F4xx_StdPeriph_Driver/src/stm32f4xx_sdio.c ****   assert_param(IS_SDIO_IT(SDIO_IT));
 1581              		.loc 1 823 0
 1582 000c 7B68     		ldr	r3, [r7, #4]
 1583 000e 03F07F43 		and	r3, r3, #-16777216
 1584 0012 002B     		cmp	r3, #0
 1585 0014 02D1     		bne	.L59
 1586              		.loc 1 823 0 is_stmt 0 discriminator 2
 1587 0016 7B68     		ldr	r3, [r7, #4]
 1588 0018 002B     		cmp	r3, #0
 1589 001a 07D1     		bne	.L60
 1590              	.L59:
 1591              		.loc 1 823 0 discriminator 1
 1592 001c 40F20000 		movw	r0, #:lower16:.LC0
 1593 0020 C0F20000 		movt	r0, #:upper16:.LC0
 1594 0024 40F23731 		movw	r1, #823
 1595 0028 FFF7FEFF 		bl	assert_failed
 1596              	.L60:
 824:lib/chip/STM32F4xx_StdPeriph_Driver/src/stm32f4xx_sdio.c ****   assert_param(IS_FUNCTIONAL_STATE(NewState));
 1597              		.loc 1 824 0 is_stmt 1
 1598 002c FB78     		ldrb	r3, [r7, #3]	@ zero_extendqisi2
 1599 002e 002B     		cmp	r3, #0
 1600 0030 0AD0     		beq	.L61
 1601              		.loc 1 824 0 is_stmt 0 discriminator 1
 1602 0032 FB78     		ldrb	r3, [r7, #3]	@ zero_extendqisi2
 1603 0034 012B     		cmp	r3, #1
 1604 0036 07D0     		beq	.L61
 1605 0038 40F20000 		movw	r0, #:lower16:.LC0
 1606 003c C0F20000 		movt	r0, #:upper16:.LC0
 1607 0040 4FF44E71 		mov	r1, #824
 1608 0044 FFF7FEFF 		bl	assert_failed
 1609              	.L61:
 825:lib/chip/STM32F4xx_StdPeriph_Driver/src/stm32f4xx_sdio.c ****   
 826:lib/chip/STM32F4xx_StdPeriph_Driver/src/stm32f4xx_sdio.c ****   if (NewState != DISABLE)
 1610              		.loc 1 826 0 is_stmt 1
 1611 0048 FB78     		ldrb	r3, [r7, #3]	@ zero_extendqisi2
 1612 004a 002B     		cmp	r3, #0
 1613 004c 0CD0     		beq	.L62
 827:lib/chip/STM32F4xx_StdPeriph_Driver/src/stm32f4xx_sdio.c ****   {
 828:lib/chip/STM32F4xx_StdPeriph_Driver/src/stm32f4xx_sdio.c ****     /* Enable the SDIO interrupts */
 829:lib/chip/STM32F4xx_StdPeriph_Driver/src/stm32f4xx_sdio.c ****     SDIO->MASK |= SDIO_IT;
 1614              		.loc 1 829 0
 1615 004e 4FF43053 		mov	r3, #11264
 1616 0052 C4F20103 		movt	r3, 16385
 1617 0056 4FF43052 		mov	r2, #11264
 1618 005a C4F20102 		movt	r2, 16385
 1619 005e D16B     		ldr	r1, [r2, #60]
 1620 0060 7A68     		ldr	r2, [r7, #4]
 1621 0062 0A43     		orrs	r2, r2, r1
 1622 0064 DA63     		str	r2, [r3, #60]
 1623 0066 0CE0     		b	.L58
 1624              	.L62:
 830:lib/chip/STM32F4xx_StdPeriph_Driver/src/stm32f4xx_sdio.c ****   }
 831:lib/chip/STM32F4xx_StdPeriph_Driver/src/stm32f4xx_sdio.c ****   else
 832:lib/chip/STM32F4xx_StdPeriph_Driver/src/stm32f4xx_sdio.c ****   {
 833:lib/chip/STM32F4xx_StdPeriph_Driver/src/stm32f4xx_sdio.c ****     /* Disable the SDIO interrupts */
 834:lib/chip/STM32F4xx_StdPeriph_Driver/src/stm32f4xx_sdio.c ****     SDIO->MASK &= ~SDIO_IT;
 1625              		.loc 1 834 0
 1626 0068 4FF43053 		mov	r3, #11264
 1627 006c C4F20103 		movt	r3, 16385
 1628 0070 4FF43052 		mov	r2, #11264
 1629 0074 C4F20102 		movt	r2, 16385
 1630 0078 D16B     		ldr	r1, [r2, #60]
 1631 007a 7A68     		ldr	r2, [r7, #4]
 1632 007c D243     		mvns	r2, r2
 1633 007e 0A40     		ands	r2, r2, r1
 1634 0080 DA63     		str	r2, [r3, #60]
 1635              	.L58:
 835:lib/chip/STM32F4xx_StdPeriph_Driver/src/stm32f4xx_sdio.c ****   } 
 836:lib/chip/STM32F4xx_StdPeriph_Driver/src/stm32f4xx_sdio.c **** }
 1636              		.loc 1 836 0
 1637 0082 0837     		adds	r7, r7, #8
 1638 0084 BD46     		mov	sp, r7
 1639              		@ sp needed
 1640 0086 80BD     		pop	{r7, pc}
 1641              		.cfi_endproc
 1642              	.LFE135:
 1644              		.section	.text.SDIO_GetFlagStatus,"ax",%progbits
 1645              		.align	2
 1646              		.global	SDIO_GetFlagStatus
 1647              		.thumb
 1648              		.thumb_func
 1650              	SDIO_GetFlagStatus:
 1651              	.LFB136:
 837:lib/chip/STM32F4xx_StdPeriph_Driver/src/stm32f4xx_sdio.c **** 
 838:lib/chip/STM32F4xx_StdPeriph_Driver/src/stm32f4xx_sdio.c **** /**
 839:lib/chip/STM32F4xx_StdPeriph_Driver/src/stm32f4xx_sdio.c ****   * @brief  Checks whether the specified SDIO flag is set or not.
 840:lib/chip/STM32F4xx_StdPeriph_Driver/src/stm32f4xx_sdio.c ****   * @param  SDIO_FLAG: specifies the flag to check. 
 841:lib/chip/STM32F4xx_StdPeriph_Driver/src/stm32f4xx_sdio.c ****   *          This parameter can be one of the following values:
 842:lib/chip/STM32F4xx_StdPeriph_Driver/src/stm32f4xx_sdio.c ****   *            @arg SDIO_FLAG_CCRCFAIL: Command response received (CRC check failed)
 843:lib/chip/STM32F4xx_StdPeriph_Driver/src/stm32f4xx_sdio.c ****   *            @arg SDIO_FLAG_DCRCFAIL: Data block sent/received (CRC check failed)
 844:lib/chip/STM32F4xx_StdPeriph_Driver/src/stm32f4xx_sdio.c ****   *            @arg SDIO_FLAG_CTIMEOUT: Command response timeout
 845:lib/chip/STM32F4xx_StdPeriph_Driver/src/stm32f4xx_sdio.c ****   *            @arg SDIO_FLAG_DTIMEOUT: Data timeout
 846:lib/chip/STM32F4xx_StdPeriph_Driver/src/stm32f4xx_sdio.c ****   *            @arg SDIO_FLAG_TXUNDERR: Transmit FIFO underrun error
 847:lib/chip/STM32F4xx_StdPeriph_Driver/src/stm32f4xx_sdio.c ****   *            @arg SDIO_FLAG_RXOVERR:  Received FIFO overrun error
 848:lib/chip/STM32F4xx_StdPeriph_Driver/src/stm32f4xx_sdio.c ****   *            @arg SDIO_FLAG_CMDREND:  Command response received (CRC check passed)
 849:lib/chip/STM32F4xx_StdPeriph_Driver/src/stm32f4xx_sdio.c ****   *            @arg SDIO_FLAG_CMDSENT:  Command sent (no response required)
 850:lib/chip/STM32F4xx_StdPeriph_Driver/src/stm32f4xx_sdio.c ****   *            @arg SDIO_FLAG_DATAEND:  Data end (data counter, SDIDCOUNT, is zero)
 851:lib/chip/STM32F4xx_StdPeriph_Driver/src/stm32f4xx_sdio.c ****   *            @arg SDIO_FLAG_STBITERR: Start bit not detected on all data signals in wide bus mode
 852:lib/chip/STM32F4xx_StdPeriph_Driver/src/stm32f4xx_sdio.c ****   *            @arg SDIO_FLAG_DBCKEND:  Data block sent/received (CRC check passed)
 853:lib/chip/STM32F4xx_StdPeriph_Driver/src/stm32f4xx_sdio.c ****   *            @arg SDIO_FLAG_CMDACT:   Command transfer in progress
 854:lib/chip/STM32F4xx_StdPeriph_Driver/src/stm32f4xx_sdio.c ****   *            @arg SDIO_FLAG_TXACT:    Data transmit in progress
 855:lib/chip/STM32F4xx_StdPeriph_Driver/src/stm32f4xx_sdio.c ****   *            @arg SDIO_FLAG_RXACT:    Data receive in progress
 856:lib/chip/STM32F4xx_StdPeriph_Driver/src/stm32f4xx_sdio.c ****   *            @arg SDIO_FLAG_TXFIFOHE: Transmit FIFO Half Empty
 857:lib/chip/STM32F4xx_StdPeriph_Driver/src/stm32f4xx_sdio.c ****   *            @arg SDIO_FLAG_RXFIFOHF: Receive FIFO Half Full
 858:lib/chip/STM32F4xx_StdPeriph_Driver/src/stm32f4xx_sdio.c ****   *            @arg SDIO_FLAG_TXFIFOF:  Transmit FIFO full
 859:lib/chip/STM32F4xx_StdPeriph_Driver/src/stm32f4xx_sdio.c ****   *            @arg SDIO_FLAG_RXFIFOF:  Receive FIFO full
 860:lib/chip/STM32F4xx_StdPeriph_Driver/src/stm32f4xx_sdio.c ****   *            @arg SDIO_FLAG_TXFIFOE:  Transmit FIFO empty
 861:lib/chip/STM32F4xx_StdPeriph_Driver/src/stm32f4xx_sdio.c ****   *            @arg SDIO_FLAG_RXFIFOE:  Receive FIFO empty
 862:lib/chip/STM32F4xx_StdPeriph_Driver/src/stm32f4xx_sdio.c ****   *            @arg SDIO_FLAG_TXDAVL:   Data available in transmit FIFO
 863:lib/chip/STM32F4xx_StdPeriph_Driver/src/stm32f4xx_sdio.c ****   *            @arg SDIO_FLAG_RXDAVL:   Data available in receive FIFO
 864:lib/chip/STM32F4xx_StdPeriph_Driver/src/stm32f4xx_sdio.c ****   *            @arg SDIO_FLAG_SDIOIT:   SD I/O interrupt received
 865:lib/chip/STM32F4xx_StdPeriph_Driver/src/stm32f4xx_sdio.c ****   *            @arg SDIO_FLAG_CEATAEND: CE-ATA command completion signal received for CMD61
 866:lib/chip/STM32F4xx_StdPeriph_Driver/src/stm32f4xx_sdio.c ****   * @retval The new state of SDIO_FLAG (SET or RESET).
 867:lib/chip/STM32F4xx_StdPeriph_Driver/src/stm32f4xx_sdio.c ****   */
 868:lib/chip/STM32F4xx_StdPeriph_Driver/src/stm32f4xx_sdio.c **** FlagStatus SDIO_GetFlagStatus(uint32_t SDIO_FLAG)
 869:lib/chip/STM32F4xx_StdPeriph_Driver/src/stm32f4xx_sdio.c **** { 
 1652              		.loc 1 869 0
 1653              		.cfi_startproc
 1654              		@ args = 0, pretend = 0, frame = 16
 1655              		@ frame_needed = 1, uses_anonymous_args = 0
 1656 0000 80B5     		push	{r7, lr}
 1657              	.LCFI72:
 1658              		.cfi_def_cfa_offset 8
 1659              		.cfi_offset 7, -8
 1660              		.cfi_offset 14, -4
 1661 0002 84B0     		sub	sp, sp, #16
 1662              	.LCFI73:
 1663              		.cfi_def_cfa_offset 24
 1664 0004 00AF     		add	r7, sp, #0
 1665              	.LCFI74:
 1666              		.cfi_def_cfa_register 7
 1667 0006 7860     		str	r0, [r7, #4]
 870:lib/chip/STM32F4xx_StdPeriph_Driver/src/stm32f4xx_sdio.c ****   FlagStatus bitstatus = RESET;
 1668              		.loc 1 870 0
 1669 0008 0023     		movs	r3, #0
 1670 000a FB73     		strb	r3, [r7, #15]
 871:lib/chip/STM32F4xx_StdPeriph_Driver/src/stm32f4xx_sdio.c ****   
 872:lib/chip/STM32F4xx_StdPeriph_Driver/src/stm32f4xx_sdio.c ****   /* Check the parameters */
 873:lib/chip/STM32F4xx_StdPeriph_Driver/src/stm32f4xx_sdio.c ****   assert_param(IS_SDIO_FLAG(SDIO_FLAG));
 1671              		.loc 1 873 0
 1672 000c 7B68     		ldr	r3, [r7, #4]
 1673 000e 012B     		cmp	r3, #1
 1674 0010 5CD0     		beq	.L65
 1675              		.loc 1 873 0 is_stmt 0 discriminator 1
 1676 0012 7B68     		ldr	r3, [r7, #4]
 1677 0014 022B     		cmp	r3, #2
 1678 0016 59D0     		beq	.L65
 1679 0018 7B68     		ldr	r3, [r7, #4]
 1680 001a 042B     		cmp	r3, #4
 1681 001c 56D0     		beq	.L65
 1682 001e 7B68     		ldr	r3, [r7, #4]
 1683 0020 082B     		cmp	r3, #8
 1684 0022 53D0     		beq	.L65
 1685 0024 7B68     		ldr	r3, [r7, #4]
 1686 0026 102B     		cmp	r3, #16
 1687 0028 50D0     		beq	.L65
 1688 002a 7B68     		ldr	r3, [r7, #4]
 1689 002c 202B     		cmp	r3, #32
 1690 002e 4DD0     		beq	.L65
 1691 0030 7B68     		ldr	r3, [r7, #4]
 1692 0032 402B     		cmp	r3, #64
 1693 0034 4AD0     		beq	.L65
 1694 0036 7B68     		ldr	r3, [r7, #4]
 1695 0038 802B     		cmp	r3, #128
 1696 003a 47D0     		beq	.L65
 1697 003c 7B68     		ldr	r3, [r7, #4]
 1698 003e B3F5807F 		cmp	r3, #256
 1699 0042 43D0     		beq	.L65
 1700 0044 7B68     		ldr	r3, [r7, #4]
 1701 0046 B3F5007F 		cmp	r3, #512
 1702 004a 3FD0     		beq	.L65
 1703 004c 7B68     		ldr	r3, [r7, #4]
 1704 004e B3F5806F 		cmp	r3, #1024
 1705 0052 3BD0     		beq	.L65
 1706 0054 7B68     		ldr	r3, [r7, #4]
 1707 0056 B3F5006F 		cmp	r3, #2048
 1708 005a 37D0     		beq	.L65
 1709 005c 7B68     		ldr	r3, [r7, #4]
 1710 005e B3F5805F 		cmp	r3, #4096
 1711 0062 33D0     		beq	.L65
 1712 0064 7B68     		ldr	r3, [r7, #4]
 1713 0066 B3F5005F 		cmp	r3, #8192
 1714 006a 2FD0     		beq	.L65
 1715 006c 7B68     		ldr	r3, [r7, #4]
 1716 006e B3F5804F 		cmp	r3, #16384
 1717 0072 2BD0     		beq	.L65
 1718 0074 7B68     		ldr	r3, [r7, #4]
 1719 0076 B3F5004F 		cmp	r3, #32768
 1720 007a 27D0     		beq	.L65
 1721 007c 7B68     		ldr	r3, [r7, #4]
 1722 007e B3F5803F 		cmp	r3, #65536
 1723 0082 23D0     		beq	.L65
 1724 0084 7B68     		ldr	r3, [r7, #4]
 1725 0086 B3F5003F 		cmp	r3, #131072
 1726 008a 1FD0     		beq	.L65
 1727 008c 7B68     		ldr	r3, [r7, #4]
 1728 008e B3F5802F 		cmp	r3, #262144
 1729 0092 1BD0     		beq	.L65
 1730 0094 7B68     		ldr	r3, [r7, #4]
 1731 0096 B3F5002F 		cmp	r3, #524288
 1732 009a 17D0     		beq	.L65
 1733 009c 7B68     		ldr	r3, [r7, #4]
 1734 009e B3F5801F 		cmp	r3, #1048576
 1735 00a2 13D0     		beq	.L65
 1736 00a4 7B68     		ldr	r3, [r7, #4]
 1737 00a6 B3F5001F 		cmp	r3, #2097152
 1738 00aa 0FD0     		beq	.L65
 1739 00ac 7B68     		ldr	r3, [r7, #4]
 1740 00ae B3F5800F 		cmp	r3, #4194304
 1741 00b2 0BD0     		beq	.L65
 1742 00b4 7B68     		ldr	r3, [r7, #4]
 1743 00b6 B3F5000F 		cmp	r3, #8388608
 1744 00ba 07D0     		beq	.L65
 1745 00bc 40F20000 		movw	r0, #:lower16:.LC0
 1746 00c0 C0F20000 		movt	r0, #:upper16:.LC0
 1747 00c4 40F26931 		movw	r1, #873
 1748 00c8 FFF7FEFF 		bl	assert_failed
 1749              	.L65:
 874:lib/chip/STM32F4xx_StdPeriph_Driver/src/stm32f4xx_sdio.c ****   
 875:lib/chip/STM32F4xx_StdPeriph_Driver/src/stm32f4xx_sdio.c ****   if ((SDIO->STA & SDIO_FLAG) != (uint32_t)RESET)
 1750              		.loc 1 875 0 is_stmt 1
 1751 00cc 4FF43053 		mov	r3, #11264
 1752 00d0 C4F20103 		movt	r3, 16385
 1753 00d4 5A6B     		ldr	r2, [r3, #52]
 1754 00d6 7B68     		ldr	r3, [r7, #4]
 1755 00d8 1340     		ands	r3, r3, r2
 1756 00da 002B     		cmp	r3, #0
 1757 00dc 02D0     		beq	.L66
 876:lib/chip/STM32F4xx_StdPeriph_Driver/src/stm32f4xx_sdio.c ****   {
 877:lib/chip/STM32F4xx_StdPeriph_Driver/src/stm32f4xx_sdio.c ****     bitstatus = SET;
 1758              		.loc 1 877 0
 1759 00de 0123     		movs	r3, #1
 1760 00e0 FB73     		strb	r3, [r7, #15]
 1761 00e2 01E0     		b	.L67
 1762              	.L66:
 878:lib/chip/STM32F4xx_StdPeriph_Driver/src/stm32f4xx_sdio.c ****   }
 879:lib/chip/STM32F4xx_StdPeriph_Driver/src/stm32f4xx_sdio.c ****   else
 880:lib/chip/STM32F4xx_StdPeriph_Driver/src/stm32f4xx_sdio.c ****   {
 881:lib/chip/STM32F4xx_StdPeriph_Driver/src/stm32f4xx_sdio.c ****     bitstatus = RESET;
 1763              		.loc 1 881 0
 1764 00e4 0023     		movs	r3, #0
 1765 00e6 FB73     		strb	r3, [r7, #15]
 1766              	.L67:
 882:lib/chip/STM32F4xx_StdPeriph_Driver/src/stm32f4xx_sdio.c ****   }
 883:lib/chip/STM32F4xx_StdPeriph_Driver/src/stm32f4xx_sdio.c ****   return bitstatus;
 1767              		.loc 1 883 0
 1768 00e8 FB7B     		ldrb	r3, [r7, #15]	@ zero_extendqisi2
 884:lib/chip/STM32F4xx_StdPeriph_Driver/src/stm32f4xx_sdio.c **** }
 1769              		.loc 1 884 0
 1770 00ea 1846     		mov	r0, r3
 1771 00ec 1037     		adds	r7, r7, #16
 1772 00ee BD46     		mov	sp, r7
 1773              		@ sp needed
 1774 00f0 80BD     		pop	{r7, pc}
 1775              		.cfi_endproc
 1776              	.LFE136:
 1778 00f2 00BF     		.section	.text.SDIO_ClearFlag,"ax",%progbits
 1779              		.align	2
 1780              		.global	SDIO_ClearFlag
 1781              		.thumb
 1782              		.thumb_func
 1784              	SDIO_ClearFlag:
 1785              	.LFB137:
 885:lib/chip/STM32F4xx_StdPeriph_Driver/src/stm32f4xx_sdio.c **** 
 886:lib/chip/STM32F4xx_StdPeriph_Driver/src/stm32f4xx_sdio.c **** /**
 887:lib/chip/STM32F4xx_StdPeriph_Driver/src/stm32f4xx_sdio.c ****   * @brief  Clears the SDIO's pending flags.
 888:lib/chip/STM32F4xx_StdPeriph_Driver/src/stm32f4xx_sdio.c ****   * @param  SDIO_FLAG: specifies the flag to clear.  
 889:lib/chip/STM32F4xx_StdPeriph_Driver/src/stm32f4xx_sdio.c ****   *          This parameter can be one or a combination of the following values:
 890:lib/chip/STM32F4xx_StdPeriph_Driver/src/stm32f4xx_sdio.c ****   *            @arg SDIO_FLAG_CCRCFAIL: Command response received (CRC check failed)
 891:lib/chip/STM32F4xx_StdPeriph_Driver/src/stm32f4xx_sdio.c ****   *            @arg SDIO_FLAG_DCRCFAIL: Data block sent/received (CRC check failed)
 892:lib/chip/STM32F4xx_StdPeriph_Driver/src/stm32f4xx_sdio.c ****   *            @arg SDIO_FLAG_CTIMEOUT: Command response timeout
 893:lib/chip/STM32F4xx_StdPeriph_Driver/src/stm32f4xx_sdio.c ****   *            @arg SDIO_FLAG_DTIMEOUT: Data timeout
 894:lib/chip/STM32F4xx_StdPeriph_Driver/src/stm32f4xx_sdio.c ****   *            @arg SDIO_FLAG_TXUNDERR: Transmit FIFO underrun error
 895:lib/chip/STM32F4xx_StdPeriph_Driver/src/stm32f4xx_sdio.c ****   *            @arg SDIO_FLAG_RXOVERR:  Received FIFO overrun error
 896:lib/chip/STM32F4xx_StdPeriph_Driver/src/stm32f4xx_sdio.c ****   *            @arg SDIO_FLAG_CMDREND:  Command response received (CRC check passed)
 897:lib/chip/STM32F4xx_StdPeriph_Driver/src/stm32f4xx_sdio.c ****   *            @arg SDIO_FLAG_CMDSENT:  Command sent (no response required)
 898:lib/chip/STM32F4xx_StdPeriph_Driver/src/stm32f4xx_sdio.c ****   *            @arg SDIO_FLAG_DATAEND:  Data end (data counter, SDIDCOUNT, is zero)
 899:lib/chip/STM32F4xx_StdPeriph_Driver/src/stm32f4xx_sdio.c ****   *            @arg SDIO_FLAG_STBITERR: Start bit not detected on all data signals in wide bus mode
 900:lib/chip/STM32F4xx_StdPeriph_Driver/src/stm32f4xx_sdio.c ****   *            @arg SDIO_FLAG_DBCKEND:  Data block sent/received (CRC check passed)
 901:lib/chip/STM32F4xx_StdPeriph_Driver/src/stm32f4xx_sdio.c ****   *            @arg SDIO_FLAG_SDIOIT:   SD I/O interrupt received
 902:lib/chip/STM32F4xx_StdPeriph_Driver/src/stm32f4xx_sdio.c ****   *            @arg SDIO_FLAG_CEATAEND: CE-ATA command completion signal received for CMD61
 903:lib/chip/STM32F4xx_StdPeriph_Driver/src/stm32f4xx_sdio.c ****   * @retval None
 904:lib/chip/STM32F4xx_StdPeriph_Driver/src/stm32f4xx_sdio.c ****   */
 905:lib/chip/STM32F4xx_StdPeriph_Driver/src/stm32f4xx_sdio.c **** void SDIO_ClearFlag(uint32_t SDIO_FLAG)
 906:lib/chip/STM32F4xx_StdPeriph_Driver/src/stm32f4xx_sdio.c **** { 
 1786              		.loc 1 906 0
 1787              		.cfi_startproc
 1788              		@ args = 0, pretend = 0, frame = 8
 1789              		@ frame_needed = 1, uses_anonymous_args = 0
 1790 0000 80B5     		push	{r7, lr}
 1791              	.LCFI75:
 1792              		.cfi_def_cfa_offset 8
 1793              		.cfi_offset 7, -8
 1794              		.cfi_offset 14, -4
 1795 0002 82B0     		sub	sp, sp, #8
 1796              	.LCFI76:
 1797              		.cfi_def_cfa_offset 16
 1798 0004 00AF     		add	r7, sp, #0
 1799              	.LCFI77:
 1800              		.cfi_def_cfa_register 7
 1801 0006 7860     		str	r0, [r7, #4]
 907:lib/chip/STM32F4xx_StdPeriph_Driver/src/stm32f4xx_sdio.c ****   /* Check the parameters */
 908:lib/chip/STM32F4xx_StdPeriph_Driver/src/stm32f4xx_sdio.c ****   assert_param(IS_SDIO_CLEAR_FLAG(SDIO_FLAG));
 1802              		.loc 1 908 0
 1803 0008 7A68     		ldr	r2, [r7, #4]
 1804 000a 4FF47843 		mov	r3, #63488
 1805 000e CFF63F73 		movt	r3, 65343
 1806 0012 1340     		ands	r3, r3, r2
 1807 0014 002B     		cmp	r3, #0
 1808 0016 02D1     		bne	.L70
 1809              		.loc 1 908 0 is_stmt 0 discriminator 2
 1810 0018 7B68     		ldr	r3, [r7, #4]
 1811 001a 002B     		cmp	r3, #0
 1812 001c 07D1     		bne	.L71
 1813              	.L70:
 1814              		.loc 1 908 0 discriminator 1
 1815 001e 40F20000 		movw	r0, #:lower16:.LC0
 1816 0022 C0F20000 		movt	r0, #:upper16:.LC0
 1817 0026 4FF46371 		mov	r1, #908
 1818 002a FFF7FEFF 		bl	assert_failed
 1819              	.L71:
 909:lib/chip/STM32F4xx_StdPeriph_Driver/src/stm32f4xx_sdio.c ****    
 910:lib/chip/STM32F4xx_StdPeriph_Driver/src/stm32f4xx_sdio.c ****   SDIO->ICR = SDIO_FLAG;
 1820              		.loc 1 910 0 is_stmt 1
 1821 002e 4FF43053 		mov	r3, #11264
 1822 0032 C4F20103 		movt	r3, 16385
 1823 0036 7A68     		ldr	r2, [r7, #4]
 1824 0038 9A63     		str	r2, [r3, #56]
 911:lib/chip/STM32F4xx_StdPeriph_Driver/src/stm32f4xx_sdio.c **** }
 1825              		.loc 1 911 0
 1826 003a 0837     		adds	r7, r7, #8
 1827 003c BD46     		mov	sp, r7
 1828              		@ sp needed
 1829 003e 80BD     		pop	{r7, pc}
 1830              		.cfi_endproc
 1831              	.LFE137:
 1833              		.section	.text.SDIO_GetITStatus,"ax",%progbits
 1834              		.align	2
 1835              		.global	SDIO_GetITStatus
 1836              		.thumb
 1837              		.thumb_func
 1839              	SDIO_GetITStatus:
 1840              	.LFB138:
 912:lib/chip/STM32F4xx_StdPeriph_Driver/src/stm32f4xx_sdio.c **** 
 913:lib/chip/STM32F4xx_StdPeriph_Driver/src/stm32f4xx_sdio.c **** /**
 914:lib/chip/STM32F4xx_StdPeriph_Driver/src/stm32f4xx_sdio.c ****   * @brief  Checks whether the specified SDIO interrupt has occurred or not.
 915:lib/chip/STM32F4xx_StdPeriph_Driver/src/stm32f4xx_sdio.c ****   * @param  SDIO_IT: specifies the SDIO interrupt source to check. 
 916:lib/chip/STM32F4xx_StdPeriph_Driver/src/stm32f4xx_sdio.c ****   *          This parameter can be one of the following values:
 917:lib/chip/STM32F4xx_StdPeriph_Driver/src/stm32f4xx_sdio.c ****   *            @arg SDIO_IT_CCRCFAIL: Command response received (CRC check failed) interrupt
 918:lib/chip/STM32F4xx_StdPeriph_Driver/src/stm32f4xx_sdio.c ****   *            @arg SDIO_IT_DCRCFAIL: Data block sent/received (CRC check failed) interrupt
 919:lib/chip/STM32F4xx_StdPeriph_Driver/src/stm32f4xx_sdio.c ****   *            @arg SDIO_IT_CTIMEOUT: Command response timeout interrupt
 920:lib/chip/STM32F4xx_StdPeriph_Driver/src/stm32f4xx_sdio.c ****   *            @arg SDIO_IT_DTIMEOUT: Data timeout interrupt
 921:lib/chip/STM32F4xx_StdPeriph_Driver/src/stm32f4xx_sdio.c ****   *            @arg SDIO_IT_TXUNDERR: Transmit FIFO underrun error interrupt
 922:lib/chip/STM32F4xx_StdPeriph_Driver/src/stm32f4xx_sdio.c ****   *            @arg SDIO_IT_RXOVERR:  Received FIFO overrun error interrupt
 923:lib/chip/STM32F4xx_StdPeriph_Driver/src/stm32f4xx_sdio.c ****   *            @arg SDIO_IT_CMDREND:  Command response received (CRC check passed) interrupt
 924:lib/chip/STM32F4xx_StdPeriph_Driver/src/stm32f4xx_sdio.c ****   *            @arg SDIO_IT_CMDSENT:  Command sent (no response required) interrupt
 925:lib/chip/STM32F4xx_StdPeriph_Driver/src/stm32f4xx_sdio.c ****   *            @arg SDIO_IT_DATAEND:  Data end (data counter, SDIDCOUNT, is zero) interrupt
 926:lib/chip/STM32F4xx_StdPeriph_Driver/src/stm32f4xx_sdio.c ****   *            @arg SDIO_IT_STBITERR: Start bit not detected on all data signals in wide 
 927:lib/chip/STM32F4xx_StdPeriph_Driver/src/stm32f4xx_sdio.c ****   *                                   bus mode interrupt
 928:lib/chip/STM32F4xx_StdPeriph_Driver/src/stm32f4xx_sdio.c ****   *            @arg SDIO_IT_DBCKEND:  Data block sent/received (CRC check passed) interrupt
 929:lib/chip/STM32F4xx_StdPeriph_Driver/src/stm32f4xx_sdio.c ****   *            @arg SDIO_IT_CMDACT:   Command transfer in progress interrupt
 930:lib/chip/STM32F4xx_StdPeriph_Driver/src/stm32f4xx_sdio.c ****   *            @arg SDIO_IT_TXACT:    Data transmit in progress interrupt
 931:lib/chip/STM32F4xx_StdPeriph_Driver/src/stm32f4xx_sdio.c ****   *            @arg SDIO_IT_RXACT:    Data receive in progress interrupt
 932:lib/chip/STM32F4xx_StdPeriph_Driver/src/stm32f4xx_sdio.c ****   *            @arg SDIO_IT_TXFIFOHE: Transmit FIFO Half Empty interrupt
 933:lib/chip/STM32F4xx_StdPeriph_Driver/src/stm32f4xx_sdio.c ****   *            @arg SDIO_IT_RXFIFOHF: Receive FIFO Half Full interrupt
 934:lib/chip/STM32F4xx_StdPeriph_Driver/src/stm32f4xx_sdio.c ****   *            @arg SDIO_IT_TXFIFOF:  Transmit FIFO full interrupt
 935:lib/chip/STM32F4xx_StdPeriph_Driver/src/stm32f4xx_sdio.c ****   *            @arg SDIO_IT_RXFIFOF:  Receive FIFO full interrupt
 936:lib/chip/STM32F4xx_StdPeriph_Driver/src/stm32f4xx_sdio.c ****   *            @arg SDIO_IT_TXFIFOE:  Transmit FIFO empty interrupt
 937:lib/chip/STM32F4xx_StdPeriph_Driver/src/stm32f4xx_sdio.c ****   *            @arg SDIO_IT_RXFIFOE:  Receive FIFO empty interrupt
 938:lib/chip/STM32F4xx_StdPeriph_Driver/src/stm32f4xx_sdio.c ****   *            @arg SDIO_IT_TXDAVL:   Data available in transmit FIFO interrupt
 939:lib/chip/STM32F4xx_StdPeriph_Driver/src/stm32f4xx_sdio.c ****   *            @arg SDIO_IT_RXDAVL:   Data available in receive FIFO interrupt
 940:lib/chip/STM32F4xx_StdPeriph_Driver/src/stm32f4xx_sdio.c ****   *            @arg SDIO_IT_SDIOIT:   SD I/O interrupt received interrupt
 941:lib/chip/STM32F4xx_StdPeriph_Driver/src/stm32f4xx_sdio.c ****   *            @arg SDIO_IT_CEATAEND: CE-ATA command completion signal received for CMD61 interrupt
 942:lib/chip/STM32F4xx_StdPeriph_Driver/src/stm32f4xx_sdio.c ****   * @retval The new state of SDIO_IT (SET or RESET).
 943:lib/chip/STM32F4xx_StdPeriph_Driver/src/stm32f4xx_sdio.c ****   */
 944:lib/chip/STM32F4xx_StdPeriph_Driver/src/stm32f4xx_sdio.c **** ITStatus SDIO_GetITStatus(uint32_t SDIO_IT)
 945:lib/chip/STM32F4xx_StdPeriph_Driver/src/stm32f4xx_sdio.c **** { 
 1841              		.loc 1 945 0
 1842              		.cfi_startproc
 1843              		@ args = 0, pretend = 0, frame = 16
 1844              		@ frame_needed = 1, uses_anonymous_args = 0
 1845 0000 80B5     		push	{r7, lr}
 1846              	.LCFI78:
 1847              		.cfi_def_cfa_offset 8
 1848              		.cfi_offset 7, -8
 1849              		.cfi_offset 14, -4
 1850 0002 84B0     		sub	sp, sp, #16
 1851              	.LCFI79:
 1852              		.cfi_def_cfa_offset 24
 1853 0004 00AF     		add	r7, sp, #0
 1854              	.LCFI80:
 1855              		.cfi_def_cfa_register 7
 1856 0006 7860     		str	r0, [r7, #4]
 946:lib/chip/STM32F4xx_StdPeriph_Driver/src/stm32f4xx_sdio.c ****   ITStatus bitstatus = RESET;
 1857              		.loc 1 946 0
 1858 0008 0023     		movs	r3, #0
 1859 000a FB73     		strb	r3, [r7, #15]
 947:lib/chip/STM32F4xx_StdPeriph_Driver/src/stm32f4xx_sdio.c ****   
 948:lib/chip/STM32F4xx_StdPeriph_Driver/src/stm32f4xx_sdio.c ****   /* Check the parameters */
 949:lib/chip/STM32F4xx_StdPeriph_Driver/src/stm32f4xx_sdio.c ****   assert_param(IS_SDIO_GET_IT(SDIO_IT));
 1860              		.loc 1 949 0
 1861 000c 7B68     		ldr	r3, [r7, #4]
 1862 000e 012B     		cmp	r3, #1
 1863 0010 5CD0     		beq	.L73
 1864              		.loc 1 949 0 is_stmt 0 discriminator 1
 1865 0012 7B68     		ldr	r3, [r7, #4]
 1866 0014 022B     		cmp	r3, #2
 1867 0016 59D0     		beq	.L73
 1868 0018 7B68     		ldr	r3, [r7, #4]
 1869 001a 042B     		cmp	r3, #4
 1870 001c 56D0     		beq	.L73
 1871 001e 7B68     		ldr	r3, [r7, #4]
 1872 0020 082B     		cmp	r3, #8
 1873 0022 53D0     		beq	.L73
 1874 0024 7B68     		ldr	r3, [r7, #4]
 1875 0026 102B     		cmp	r3, #16
 1876 0028 50D0     		beq	.L73
 1877 002a 7B68     		ldr	r3, [r7, #4]
 1878 002c 202B     		cmp	r3, #32
 1879 002e 4DD0     		beq	.L73
 1880 0030 7B68     		ldr	r3, [r7, #4]
 1881 0032 402B     		cmp	r3, #64
 1882 0034 4AD0     		beq	.L73
 1883 0036 7B68     		ldr	r3, [r7, #4]
 1884 0038 802B     		cmp	r3, #128
 1885 003a 47D0     		beq	.L73
 1886 003c 7B68     		ldr	r3, [r7, #4]
 1887 003e B3F5807F 		cmp	r3, #256
 1888 0042 43D0     		beq	.L73
 1889 0044 7B68     		ldr	r3, [r7, #4]
 1890 0046 B3F5007F 		cmp	r3, #512
 1891 004a 3FD0     		beq	.L73
 1892 004c 7B68     		ldr	r3, [r7, #4]
 1893 004e B3F5806F 		cmp	r3, #1024
 1894 0052 3BD0     		beq	.L73
 1895 0054 7B68     		ldr	r3, [r7, #4]
 1896 0056 B3F5006F 		cmp	r3, #2048
 1897 005a 37D0     		beq	.L73
 1898 005c 7B68     		ldr	r3, [r7, #4]
 1899 005e B3F5805F 		cmp	r3, #4096
 1900 0062 33D0     		beq	.L73
 1901 0064 7B68     		ldr	r3, [r7, #4]
 1902 0066 B3F5005F 		cmp	r3, #8192
 1903 006a 2FD0     		beq	.L73
 1904 006c 7B68     		ldr	r3, [r7, #4]
 1905 006e B3F5804F 		cmp	r3, #16384
 1906 0072 2BD0     		beq	.L73
 1907 0074 7B68     		ldr	r3, [r7, #4]
 1908 0076 B3F5004F 		cmp	r3, #32768
 1909 007a 27D0     		beq	.L73
 1910 007c 7B68     		ldr	r3, [r7, #4]
 1911 007e B3F5803F 		cmp	r3, #65536
 1912 0082 23D0     		beq	.L73
 1913 0084 7B68     		ldr	r3, [r7, #4]
 1914 0086 B3F5003F 		cmp	r3, #131072
 1915 008a 1FD0     		beq	.L73
 1916 008c 7B68     		ldr	r3, [r7, #4]
 1917 008e B3F5802F 		cmp	r3, #262144
 1918 0092 1BD0     		beq	.L73
 1919 0094 7B68     		ldr	r3, [r7, #4]
 1920 0096 B3F5002F 		cmp	r3, #524288
 1921 009a 17D0     		beq	.L73
 1922 009c 7B68     		ldr	r3, [r7, #4]
 1923 009e B3F5801F 		cmp	r3, #1048576
 1924 00a2 13D0     		beq	.L73
 1925 00a4 7B68     		ldr	r3, [r7, #4]
 1926 00a6 B3F5001F 		cmp	r3, #2097152
 1927 00aa 0FD0     		beq	.L73
 1928 00ac 7B68     		ldr	r3, [r7, #4]
 1929 00ae B3F5800F 		cmp	r3, #4194304
 1930 00b2 0BD0     		beq	.L73
 1931 00b4 7B68     		ldr	r3, [r7, #4]
 1932 00b6 B3F5000F 		cmp	r3, #8388608
 1933 00ba 07D0     		beq	.L73
 1934 00bc 40F20000 		movw	r0, #:lower16:.LC0
 1935 00c0 C0F20000 		movt	r0, #:upper16:.LC0
 1936 00c4 40F2B531 		movw	r1, #949
 1937 00c8 FFF7FEFF 		bl	assert_failed
 1938              	.L73:
 950:lib/chip/STM32F4xx_StdPeriph_Driver/src/stm32f4xx_sdio.c ****   if ((SDIO->STA & SDIO_IT) != (uint32_t)RESET)  
 1939              		.loc 1 950 0 is_stmt 1
 1940 00cc 4FF43053 		mov	r3, #11264
 1941 00d0 C4F20103 		movt	r3, 16385
 1942 00d4 5A6B     		ldr	r2, [r3, #52]
 1943 00d6 7B68     		ldr	r3, [r7, #4]
 1944 00d8 1340     		ands	r3, r3, r2
 1945 00da 002B     		cmp	r3, #0
 1946 00dc 02D0     		beq	.L74
 951:lib/chip/STM32F4xx_StdPeriph_Driver/src/stm32f4xx_sdio.c ****   {
 952:lib/chip/STM32F4xx_StdPeriph_Driver/src/stm32f4xx_sdio.c ****     bitstatus = SET;
 1947              		.loc 1 952 0
 1948 00de 0123     		movs	r3, #1
 1949 00e0 FB73     		strb	r3, [r7, #15]
 1950 00e2 01E0     		b	.L75
 1951              	.L74:
 953:lib/chip/STM32F4xx_StdPeriph_Driver/src/stm32f4xx_sdio.c ****   }
 954:lib/chip/STM32F4xx_StdPeriph_Driver/src/stm32f4xx_sdio.c ****   else
 955:lib/chip/STM32F4xx_StdPeriph_Driver/src/stm32f4xx_sdio.c ****   {
 956:lib/chip/STM32F4xx_StdPeriph_Driver/src/stm32f4xx_sdio.c ****     bitstatus = RESET;
 1952              		.loc 1 956 0
 1953 00e4 0023     		movs	r3, #0
 1954 00e6 FB73     		strb	r3, [r7, #15]
 1955              	.L75:
 957:lib/chip/STM32F4xx_StdPeriph_Driver/src/stm32f4xx_sdio.c ****   }
 958:lib/chip/STM32F4xx_StdPeriph_Driver/src/stm32f4xx_sdio.c ****   return bitstatus;
 1956              		.loc 1 958 0
 1957 00e8 FB7B     		ldrb	r3, [r7, #15]	@ zero_extendqisi2
 959:lib/chip/STM32F4xx_StdPeriph_Driver/src/stm32f4xx_sdio.c **** }
 1958              		.loc 1 959 0
 1959 00ea 1846     		mov	r0, r3
 1960 00ec 1037     		adds	r7, r7, #16
 1961 00ee BD46     		mov	sp, r7
 1962              		@ sp needed
 1963 00f0 80BD     		pop	{r7, pc}
 1964              		.cfi_endproc
 1965              	.LFE138:
 1967 00f2 00BF     		.section	.text.SDIO_ClearITPendingBit,"ax",%progbits
 1968              		.align	2
 1969              		.global	SDIO_ClearITPendingBit
 1970              		.thumb
 1971              		.thumb_func
 1973              	SDIO_ClearITPendingBit:
 1974              	.LFB139:
 960:lib/chip/STM32F4xx_StdPeriph_Driver/src/stm32f4xx_sdio.c **** 
 961:lib/chip/STM32F4xx_StdPeriph_Driver/src/stm32f4xx_sdio.c **** /**
 962:lib/chip/STM32F4xx_StdPeriph_Driver/src/stm32f4xx_sdio.c ****   * @brief  Clears the SDIO's interrupt pending bits.
 963:lib/chip/STM32F4xx_StdPeriph_Driver/src/stm32f4xx_sdio.c ****   * @param  SDIO_IT: specifies the interrupt pending bit to clear. 
 964:lib/chip/STM32F4xx_StdPeriph_Driver/src/stm32f4xx_sdio.c ****   *          This parameter can be one or a combination of the following values:
 965:lib/chip/STM32F4xx_StdPeriph_Driver/src/stm32f4xx_sdio.c ****   *            @arg SDIO_IT_CCRCFAIL: Command response received (CRC check failed) interrupt
 966:lib/chip/STM32F4xx_StdPeriph_Driver/src/stm32f4xx_sdio.c ****   *            @arg SDIO_IT_DCRCFAIL: Data block sent/received (CRC check failed) interrupt
 967:lib/chip/STM32F4xx_StdPeriph_Driver/src/stm32f4xx_sdio.c ****   *            @arg SDIO_IT_CTIMEOUT: Command response timeout interrupt
 968:lib/chip/STM32F4xx_StdPeriph_Driver/src/stm32f4xx_sdio.c ****   *            @arg SDIO_IT_DTIMEOUT: Data timeout interrupt
 969:lib/chip/STM32F4xx_StdPeriph_Driver/src/stm32f4xx_sdio.c ****   *            @arg SDIO_IT_TXUNDERR: Transmit FIFO underrun error interrupt
 970:lib/chip/STM32F4xx_StdPeriph_Driver/src/stm32f4xx_sdio.c ****   *            @arg SDIO_IT_RXOVERR:  Received FIFO overrun error interrupt
 971:lib/chip/STM32F4xx_StdPeriph_Driver/src/stm32f4xx_sdio.c ****   *            @arg SDIO_IT_CMDREND:  Command response received (CRC check passed) interrupt
 972:lib/chip/STM32F4xx_StdPeriph_Driver/src/stm32f4xx_sdio.c ****   *            @arg SDIO_IT_CMDSENT:  Command sent (no response required) interrupt
 973:lib/chip/STM32F4xx_StdPeriph_Driver/src/stm32f4xx_sdio.c ****   *            @arg SDIO_IT_DATAEND:  Data end (data counter, SDIO_DCOUNT, is zero) interrupt
 974:lib/chip/STM32F4xx_StdPeriph_Driver/src/stm32f4xx_sdio.c ****   *            @arg SDIO_IT_STBITERR: Start bit not detected on all data signals in wide 
 975:lib/chip/STM32F4xx_StdPeriph_Driver/src/stm32f4xx_sdio.c ****   *                                   bus mode interrupt
 976:lib/chip/STM32F4xx_StdPeriph_Driver/src/stm32f4xx_sdio.c ****   *            @arg SDIO_IT_SDIOIT:   SD I/O interrupt received interrupt
 977:lib/chip/STM32F4xx_StdPeriph_Driver/src/stm32f4xx_sdio.c ****   *            @arg SDIO_IT_CEATAEND: CE-ATA command completion signal received for CMD61
 978:lib/chip/STM32F4xx_StdPeriph_Driver/src/stm32f4xx_sdio.c ****   * @retval None
 979:lib/chip/STM32F4xx_StdPeriph_Driver/src/stm32f4xx_sdio.c ****   */
 980:lib/chip/STM32F4xx_StdPeriph_Driver/src/stm32f4xx_sdio.c **** void SDIO_ClearITPendingBit(uint32_t SDIO_IT)
 981:lib/chip/STM32F4xx_StdPeriph_Driver/src/stm32f4xx_sdio.c **** { 
 1975              		.loc 1 981 0
 1976              		.cfi_startproc
 1977              		@ args = 0, pretend = 0, frame = 8
 1978              		@ frame_needed = 1, uses_anonymous_args = 0
 1979 0000 80B5     		push	{r7, lr}
 1980              	.LCFI81:
 1981              		.cfi_def_cfa_offset 8
 1982              		.cfi_offset 7, -8
 1983              		.cfi_offset 14, -4
 1984 0002 82B0     		sub	sp, sp, #8
 1985              	.LCFI82:
 1986              		.cfi_def_cfa_offset 16
 1987 0004 00AF     		add	r7, sp, #0
 1988              	.LCFI83:
 1989              		.cfi_def_cfa_register 7
 1990 0006 7860     		str	r0, [r7, #4]
 982:lib/chip/STM32F4xx_StdPeriph_Driver/src/stm32f4xx_sdio.c ****   /* Check the parameters */
 983:lib/chip/STM32F4xx_StdPeriph_Driver/src/stm32f4xx_sdio.c ****   assert_param(IS_SDIO_CLEAR_IT(SDIO_IT));
 1991              		.loc 1 983 0
 1992 0008 7A68     		ldr	r2, [r7, #4]
 1993 000a 4FF47843 		mov	r3, #63488
 1994 000e CFF63F73 		movt	r3, 65343
 1995 0012 1340     		ands	r3, r3, r2
 1996 0014 002B     		cmp	r3, #0
 1997 0016 02D1     		bne	.L78
 1998              		.loc 1 983 0 is_stmt 0 discriminator 2
 1999 0018 7B68     		ldr	r3, [r7, #4]
 2000 001a 002B     		cmp	r3, #0
 2001 001c 07D1     		bne	.L79
 2002              	.L78:
 2003              		.loc 1 983 0 discriminator 1
 2004 001e 40F20000 		movw	r0, #:lower16:.LC0
 2005 0022 C0F20000 		movt	r0, #:upper16:.LC0
 2006 0026 40F2D731 		movw	r1, #983
 2007 002a FFF7FEFF 		bl	assert_failed
 2008              	.L79:
 984:lib/chip/STM32F4xx_StdPeriph_Driver/src/stm32f4xx_sdio.c ****    
 985:lib/chip/STM32F4xx_StdPeriph_Driver/src/stm32f4xx_sdio.c ****   SDIO->ICR = SDIO_IT;
 2009              		.loc 1 985 0 is_stmt 1
 2010 002e 4FF43053 		mov	r3, #11264
 2011 0032 C4F20103 		movt	r3, 16385
 2012 0036 7A68     		ldr	r2, [r7, #4]
 2013 0038 9A63     		str	r2, [r3, #56]
 986:lib/chip/STM32F4xx_StdPeriph_Driver/src/stm32f4xx_sdio.c **** }
 2014              		.loc 1 986 0
 2015 003a 0837     		adds	r7, r7, #8
 2016 003c BD46     		mov	sp, r7
 2017              		@ sp needed
 2018 003e 80BD     		pop	{r7, pc}
 2019              		.cfi_endproc
 2020              	.LFE139:
 2022              		.text
 2023              	.Letext0:
 2024              		.file 2 "/usr/include/newlib/machine/_default_types.h"
 2025              		.file 3 "/usr/include/newlib/stdint.h"
 2026              		.file 4 "lib/chip/CMSIS/ST/STM32F4xx/Include/stm32f4xx.h"
 2027              		.file 5 "lib/chip/STM32F4xx_StdPeriph_Driver/inc/stm32f4xx_sdio.h"
 2028              		.file 6 "lib/chip/CMSIS/Include/core_cm4.h"