   1              		.syntax unified
   2              		.cpu cortex-m4
   3              		.eabi_attribute 27, 3
   4              		.fpu fpv4-sp-d16
   5              		.eabi_attribute 20, 1
   6              		.eabi_attribute 21, 1
   7              		.eabi_attribute 23, 3
   8              		.eabi_attribute 24, 1
   9              		.eabi_attribute 25, 1
  10              		.eabi_attribute 26, 1
  11              		.eabi_attribute 30, 6
  12              		.eabi_attribute 34, 1
  13              		.eabi_attribute 18, 4
  14              		.thumb
  15              		.file	"stm32f4xx_flash.c"
  16              		.text
  17              	.Ltext0:
  18              		.cfi_sections	.debug_frame
  19              		.section	.rodata
  20              		.align	2
  21              	.LC0:
  22 0000 6C69622F 		.ascii	"lib/chip/STM32F4xx_StdPeriph_Driver/src/stm32f4xx_f"
  22      63686970 
  22      2F53544D 
  22      33324634 
  22      78785F53 
  23 0033 6C617368 		.ascii	"lash.c\000"
  23      2E6300
  24 003a 0000     		.section	.text.FLASH_SetLatency,"ax",%progbits
  25              		.align	2
  26              		.global	FLASH_SetLatency
  27              		.thumb
  28              		.thumb_func
  30              	FLASH_SetLatency:
  31              	.LFB110:
  32              		.file 1 "lib/chip/STM32F4xx_StdPeriph_Driver/src/stm32f4xx_flash.c"
   1:lib/chip/STM32F4xx_StdPeriph_Driver/src/stm32f4xx_flash.c **** /**
   2:lib/chip/STM32F4xx_StdPeriph_Driver/src/stm32f4xx_flash.c ****   ******************************************************************************
   3:lib/chip/STM32F4xx_StdPeriph_Driver/src/stm32f4xx_flash.c ****   * @file    stm32f4xx_flash.c
   4:lib/chip/STM32F4xx_StdPeriph_Driver/src/stm32f4xx_flash.c ****   * @author  MCD Application Team
   5:lib/chip/STM32F4xx_StdPeriph_Driver/src/stm32f4xx_flash.c ****   * @version V1.0.0
   6:lib/chip/STM32F4xx_StdPeriph_Driver/src/stm32f4xx_flash.c ****   * @date    30-September-2011
   7:lib/chip/STM32F4xx_StdPeriph_Driver/src/stm32f4xx_flash.c ****   * @brief   This file provides firmware functions to manage the following 
   8:lib/chip/STM32F4xx_StdPeriph_Driver/src/stm32f4xx_flash.c ****   *          functionalities of the FLASH peripheral:
   9:lib/chip/STM32F4xx_StdPeriph_Driver/src/stm32f4xx_flash.c ****   *            - FLASH Interface configuration
  10:lib/chip/STM32F4xx_StdPeriph_Driver/src/stm32f4xx_flash.c ****   *            - FLASH Memory Programming
  11:lib/chip/STM32F4xx_StdPeriph_Driver/src/stm32f4xx_flash.c ****   *            - Option Bytes Programming
  12:lib/chip/STM32F4xx_StdPeriph_Driver/src/stm32f4xx_flash.c ****   *            - Interrupts and flags management
  13:lib/chip/STM32F4xx_StdPeriph_Driver/src/stm32f4xx_flash.c ****   *  
  14:lib/chip/STM32F4xx_StdPeriph_Driver/src/stm32f4xx_flash.c ****   *  @verbatim
  15:lib/chip/STM32F4xx_StdPeriph_Driver/src/stm32f4xx_flash.c ****   *  
  16:lib/chip/STM32F4xx_StdPeriph_Driver/src/stm32f4xx_flash.c ****   *          ===================================================================
  17:lib/chip/STM32F4xx_StdPeriph_Driver/src/stm32f4xx_flash.c ****   *                                 How to use this driver
  18:lib/chip/STM32F4xx_StdPeriph_Driver/src/stm32f4xx_flash.c ****   *          ===================================================================
  19:lib/chip/STM32F4xx_StdPeriph_Driver/src/stm32f4xx_flash.c ****   *                           
  20:lib/chip/STM32F4xx_StdPeriph_Driver/src/stm32f4xx_flash.c ****   *          This driver provides functions to configure and program the FLASH 
  21:lib/chip/STM32F4xx_StdPeriph_Driver/src/stm32f4xx_flash.c ****   *          memory of all STM32F4xx devices.
  22:lib/chip/STM32F4xx_StdPeriph_Driver/src/stm32f4xx_flash.c ****   *          These functions are split in 4 groups:
  23:lib/chip/STM32F4xx_StdPeriph_Driver/src/stm32f4xx_flash.c ****   * 
  24:lib/chip/STM32F4xx_StdPeriph_Driver/src/stm32f4xx_flash.c ****   *           1. FLASH Interface configuration functions: this group includes the
  25:lib/chip/STM32F4xx_StdPeriph_Driver/src/stm32f4xx_flash.c ****   *              management of the following features:
  26:lib/chip/STM32F4xx_StdPeriph_Driver/src/stm32f4xx_flash.c ****   *                    - Set the latency
  27:lib/chip/STM32F4xx_StdPeriph_Driver/src/stm32f4xx_flash.c ****   *                    - Enable/Disable the prefetch buffer
  28:lib/chip/STM32F4xx_StdPeriph_Driver/src/stm32f4xx_flash.c ****   *                    - Enable/Disable the Instruction cache and the Data cache
  29:lib/chip/STM32F4xx_StdPeriph_Driver/src/stm32f4xx_flash.c ****   *                    - Reset the Instruction cache and the Data cache
  30:lib/chip/STM32F4xx_StdPeriph_Driver/src/stm32f4xx_flash.c ****   *  
  31:lib/chip/STM32F4xx_StdPeriph_Driver/src/stm32f4xx_flash.c ****   *           2. FLASH Memory Programming functions: this group includes all needed
  32:lib/chip/STM32F4xx_StdPeriph_Driver/src/stm32f4xx_flash.c ****   *              functions to erase and program the main memory:
  33:lib/chip/STM32F4xx_StdPeriph_Driver/src/stm32f4xx_flash.c ****   *                    - Lock and Unlock the FLASH interface
  34:lib/chip/STM32F4xx_StdPeriph_Driver/src/stm32f4xx_flash.c ****   *                    - Erase function: Erase sector, erase all sectors
  35:lib/chip/STM32F4xx_StdPeriph_Driver/src/stm32f4xx_flash.c ****   *                    - Program functions: byte, half word, word and double word
  36:lib/chip/STM32F4xx_StdPeriph_Driver/src/stm32f4xx_flash.c ****   *  
  37:lib/chip/STM32F4xx_StdPeriph_Driver/src/stm32f4xx_flash.c ****   *           3. Option Bytes Programming functions: this group includes all needed
  38:lib/chip/STM32F4xx_StdPeriph_Driver/src/stm32f4xx_flash.c ****   *              functions to manage the Option Bytes:
  39:lib/chip/STM32F4xx_StdPeriph_Driver/src/stm32f4xx_flash.c ****   *                    - Set/Reset the write protection
  40:lib/chip/STM32F4xx_StdPeriph_Driver/src/stm32f4xx_flash.c ****   *                    - Set the Read protection Level
  41:lib/chip/STM32F4xx_StdPeriph_Driver/src/stm32f4xx_flash.c ****   *                    - Set the BOR level
  42:lib/chip/STM32F4xx_StdPeriph_Driver/src/stm32f4xx_flash.c ****   *                    - Program the user Option Bytes
  43:lib/chip/STM32F4xx_StdPeriph_Driver/src/stm32f4xx_flash.c ****   *                    - Launch the Option Bytes loader
  44:lib/chip/STM32F4xx_StdPeriph_Driver/src/stm32f4xx_flash.c ****   *  
  45:lib/chip/STM32F4xx_StdPeriph_Driver/src/stm32f4xx_flash.c ****   *           4. Interrupts and flags management functions: this group 
  46:lib/chip/STM32F4xx_StdPeriph_Driver/src/stm32f4xx_flash.c ****   *              includes all needed functions to:
  47:lib/chip/STM32F4xx_StdPeriph_Driver/src/stm32f4xx_flash.c ****   *                    - Enable/Disable the FLASH interrupt sources
  48:lib/chip/STM32F4xx_StdPeriph_Driver/src/stm32f4xx_flash.c ****   *                    - Get flags status
  49:lib/chip/STM32F4xx_StdPeriph_Driver/src/stm32f4xx_flash.c ****   *                    - Clear flags
  50:lib/chip/STM32F4xx_StdPeriph_Driver/src/stm32f4xx_flash.c ****   *                    - Get FLASH operation status
  51:lib/chip/STM32F4xx_StdPeriph_Driver/src/stm32f4xx_flash.c ****   *                    - Wait for last FLASH operation
  52:lib/chip/STM32F4xx_StdPeriph_Driver/src/stm32f4xx_flash.c ****   * 
  53:lib/chip/STM32F4xx_StdPeriph_Driver/src/stm32f4xx_flash.c ****   *  @endverbatim
  54:lib/chip/STM32F4xx_StdPeriph_Driver/src/stm32f4xx_flash.c ****   *                      
  55:lib/chip/STM32F4xx_StdPeriph_Driver/src/stm32f4xx_flash.c ****   ******************************************************************************
  56:lib/chip/STM32F4xx_StdPeriph_Driver/src/stm32f4xx_flash.c ****   * @attention
  57:lib/chip/STM32F4xx_StdPeriph_Driver/src/stm32f4xx_flash.c ****   *
  58:lib/chip/STM32F4xx_StdPeriph_Driver/src/stm32f4xx_flash.c ****   * THE PRESENT FIRMWARE WHICH IS FOR GUIDANCE ONLY AIMS AT PROVIDING CUSTOMERS
  59:lib/chip/STM32F4xx_StdPeriph_Driver/src/stm32f4xx_flash.c ****   * WITH CODING INFORMATION REGARDING THEIR PRODUCTS IN ORDER FOR THEM TO SAVE
  60:lib/chip/STM32F4xx_StdPeriph_Driver/src/stm32f4xx_flash.c ****   * TIME. AS A RESULT, STMICROELECTRONICS SHALL NOT BE HELD LIABLE FOR ANY
  61:lib/chip/STM32F4xx_StdPeriph_Driver/src/stm32f4xx_flash.c ****   * DIRECT, INDIRECT OR CONSEQUENTIAL DAMAGES WITH RESPECT TO ANY CLAIMS ARISING
  62:lib/chip/STM32F4xx_StdPeriph_Driver/src/stm32f4xx_flash.c ****   * FROM THE CONTENT OF SUCH FIRMWARE AND/OR THE USE MADE BY CUSTOMERS OF THE
  63:lib/chip/STM32F4xx_StdPeriph_Driver/src/stm32f4xx_flash.c ****   * CODING INFORMATION CONTAINED HEREIN IN CONNECTION WITH THEIR PRODUCTS.
  64:lib/chip/STM32F4xx_StdPeriph_Driver/src/stm32f4xx_flash.c ****   *
  65:lib/chip/STM32F4xx_StdPeriph_Driver/src/stm32f4xx_flash.c ****   * <h2><center>&copy; COPYRIGHT 2011 STMicroelectronics</center></h2>
  66:lib/chip/STM32F4xx_StdPeriph_Driver/src/stm32f4xx_flash.c ****   ******************************************************************************
  67:lib/chip/STM32F4xx_StdPeriph_Driver/src/stm32f4xx_flash.c ****   */
  68:lib/chip/STM32F4xx_StdPeriph_Driver/src/stm32f4xx_flash.c **** 
  69:lib/chip/STM32F4xx_StdPeriph_Driver/src/stm32f4xx_flash.c **** /* Includes ------------------------------------------------------------------*/
  70:lib/chip/STM32F4xx_StdPeriph_Driver/src/stm32f4xx_flash.c **** #include "stm32f4xx_flash.h"
  71:lib/chip/STM32F4xx_StdPeriph_Driver/src/stm32f4xx_flash.c **** 
  72:lib/chip/STM32F4xx_StdPeriph_Driver/src/stm32f4xx_flash.c **** /** @addtogroup STM32F4xx_StdPeriph_Driver
  73:lib/chip/STM32F4xx_StdPeriph_Driver/src/stm32f4xx_flash.c ****   * @{
  74:lib/chip/STM32F4xx_StdPeriph_Driver/src/stm32f4xx_flash.c ****   */
  75:lib/chip/STM32F4xx_StdPeriph_Driver/src/stm32f4xx_flash.c **** 
  76:lib/chip/STM32F4xx_StdPeriph_Driver/src/stm32f4xx_flash.c **** /** @defgroup FLASH 
  77:lib/chip/STM32F4xx_StdPeriph_Driver/src/stm32f4xx_flash.c ****   * @brief FLASH driver modules
  78:lib/chip/STM32F4xx_StdPeriph_Driver/src/stm32f4xx_flash.c ****   * @{
  79:lib/chip/STM32F4xx_StdPeriph_Driver/src/stm32f4xx_flash.c ****   */ 
  80:lib/chip/STM32F4xx_StdPeriph_Driver/src/stm32f4xx_flash.c **** 
  81:lib/chip/STM32F4xx_StdPeriph_Driver/src/stm32f4xx_flash.c **** /* Private typedef -----------------------------------------------------------*/
  82:lib/chip/STM32F4xx_StdPeriph_Driver/src/stm32f4xx_flash.c **** /* Private define ------------------------------------------------------------*/ 
  83:lib/chip/STM32F4xx_StdPeriph_Driver/src/stm32f4xx_flash.c **** #define SECTOR_MASK               ((uint32_t)0xFFFFFF07)
  84:lib/chip/STM32F4xx_StdPeriph_Driver/src/stm32f4xx_flash.c **** 
  85:lib/chip/STM32F4xx_StdPeriph_Driver/src/stm32f4xx_flash.c **** /* Private macro -------------------------------------------------------------*/
  86:lib/chip/STM32F4xx_StdPeriph_Driver/src/stm32f4xx_flash.c **** /* Private variables ---------------------------------------------------------*/
  87:lib/chip/STM32F4xx_StdPeriph_Driver/src/stm32f4xx_flash.c **** /* Private function prototypes -----------------------------------------------*/
  88:lib/chip/STM32F4xx_StdPeriph_Driver/src/stm32f4xx_flash.c **** /* Private functions ---------------------------------------------------------*/
  89:lib/chip/STM32F4xx_StdPeriph_Driver/src/stm32f4xx_flash.c **** 
  90:lib/chip/STM32F4xx_StdPeriph_Driver/src/stm32f4xx_flash.c **** /** @defgroup FLASH_Private_Functions
  91:lib/chip/STM32F4xx_StdPeriph_Driver/src/stm32f4xx_flash.c ****   * @{
  92:lib/chip/STM32F4xx_StdPeriph_Driver/src/stm32f4xx_flash.c ****   */ 
  93:lib/chip/STM32F4xx_StdPeriph_Driver/src/stm32f4xx_flash.c **** 
  94:lib/chip/STM32F4xx_StdPeriph_Driver/src/stm32f4xx_flash.c **** /** @defgroup FLASH_Group1 FLASH Interface configuration functions
  95:lib/chip/STM32F4xx_StdPeriph_Driver/src/stm32f4xx_flash.c ****   *  @brief   FLASH Interface configuration functions 
  96:lib/chip/STM32F4xx_StdPeriph_Driver/src/stm32f4xx_flash.c ****  *
  97:lib/chip/STM32F4xx_StdPeriph_Driver/src/stm32f4xx_flash.c **** 
  98:lib/chip/STM32F4xx_StdPeriph_Driver/src/stm32f4xx_flash.c **** @verbatim   
  99:lib/chip/STM32F4xx_StdPeriph_Driver/src/stm32f4xx_flash.c ****  ===============================================================================
 100:lib/chip/STM32F4xx_StdPeriph_Driver/src/stm32f4xx_flash.c ****                        FLASH Interface configuration functions
 101:lib/chip/STM32F4xx_StdPeriph_Driver/src/stm32f4xx_flash.c ****  ===============================================================================
 102:lib/chip/STM32F4xx_StdPeriph_Driver/src/stm32f4xx_flash.c **** 
 103:lib/chip/STM32F4xx_StdPeriph_Driver/src/stm32f4xx_flash.c ****    This group includes the following functions:
 104:lib/chip/STM32F4xx_StdPeriph_Driver/src/stm32f4xx_flash.c ****     - void FLASH_SetLatency(uint32_t FLASH_Latency)
 105:lib/chip/STM32F4xx_StdPeriph_Driver/src/stm32f4xx_flash.c ****        To correctly read data from FLASH memory, the number of wait states (LATENCY) 
 106:lib/chip/STM32F4xx_StdPeriph_Driver/src/stm32f4xx_flash.c ****        must be correctly programmed according to the frequency of the CPU clock 
 107:lib/chip/STM32F4xx_StdPeriph_Driver/src/stm32f4xx_flash.c ****       (HCLK) and the supply voltage of the device.
 108:lib/chip/STM32F4xx_StdPeriph_Driver/src/stm32f4xx_flash.c ****  +-------------------------------------------------------------------------------------+     
 109:lib/chip/STM32F4xx_StdPeriph_Driver/src/stm32f4xx_flash.c ****  | Latency       |                HCLK clock frequency (MHz)                           |
 110:lib/chip/STM32F4xx_StdPeriph_Driver/src/stm32f4xx_flash.c ****  |               |---------------------------------------------------------------------|     
 111:lib/chip/STM32F4xx_StdPeriph_Driver/src/stm32f4xx_flash.c ****  |               | voltage range  | voltage range  | voltage range   | voltage range   |
 112:lib/chip/STM32F4xx_StdPeriph_Driver/src/stm32f4xx_flash.c ****  |               | 2.7 V - 3.6 V  | 2.4 V - 2.7 V  | 2.1 V - 2.4 V   | 1.8 V - 2.1 V   |
 113:lib/chip/STM32F4xx_StdPeriph_Driver/src/stm32f4xx_flash.c ****  |---------------|----------------|----------------|-----------------|-----------------|           
 114:lib/chip/STM32F4xx_StdPeriph_Driver/src/stm32f4xx_flash.c ****  |0WS(1CPU cycle)|0 < HCLK <= 30  |0 < HCLK <= 24  |0 < HCLK <= 18   |0 < HCLK <= 16   |
 115:lib/chip/STM32F4xx_StdPeriph_Driver/src/stm32f4xx_flash.c ****  |---------------|----------------|----------------|-----------------|-----------------|   
 116:lib/chip/STM32F4xx_StdPeriph_Driver/src/stm32f4xx_flash.c ****  |1WS(2CPU cycle)|30 < HCLK <= 60 |24 < HCLK <= 48 |18 < HCLK <= 36  |16 < HCLK <= 32  | 
 117:lib/chip/STM32F4xx_StdPeriph_Driver/src/stm32f4xx_flash.c ****  |---------------|----------------|----------------|-----------------|-----------------|   
 118:lib/chip/STM32F4xx_StdPeriph_Driver/src/stm32f4xx_flash.c ****  |2WS(3CPU cycle)|60 < HCLK <= 90 |48 < HCLK <= 72 |36 < HCLK <= 54  |32 < HCLK <= 48  |
 119:lib/chip/STM32F4xx_StdPeriph_Driver/src/stm32f4xx_flash.c ****  |---------------|----------------|----------------|-----------------|-----------------| 
 120:lib/chip/STM32F4xx_StdPeriph_Driver/src/stm32f4xx_flash.c ****  |3WS(4CPU cycle)|90 < HCLK <= 120|72 < HCLK <= 96 |54 < HCLK <= 72  |48 < HCLK <= 64  |
 121:lib/chip/STM32F4xx_StdPeriph_Driver/src/stm32f4xx_flash.c ****  |---------------|----------------|----------------|-----------------|-----------------| 
 122:lib/chip/STM32F4xx_StdPeriph_Driver/src/stm32f4xx_flash.c ****  |4WS(5CPU cycle)|120< HCLK <= 150|96 < HCLK <= 120|72 < HCLK <= 90  |64 < HCLK <= 80  |
 123:lib/chip/STM32F4xx_StdPeriph_Driver/src/stm32f4xx_flash.c ****  |---------------|----------------|----------------|-----------------|-----------------| 
 124:lib/chip/STM32F4xx_StdPeriph_Driver/src/stm32f4xx_flash.c ****  |5WS(6CPU cycle)|120< HCLK <= 168|120< HCLK <= 144|90 < HCLK <= 108 |80 < HCLK <= 96  | 
 125:lib/chip/STM32F4xx_StdPeriph_Driver/src/stm32f4xx_flash.c ****  |---------------|----------------|----------------|-----------------|-----------------| 
 126:lib/chip/STM32F4xx_StdPeriph_Driver/src/stm32f4xx_flash.c ****  |6WS(7CPU cycle)|      NA        |144< HCLK <= 168|108 < HCLK <= 120|96 < HCLK <= 112 | 
 127:lib/chip/STM32F4xx_StdPeriph_Driver/src/stm32f4xx_flash.c ****  |---------------|----------------|----------------|-----------------|-----------------| 
 128:lib/chip/STM32F4xx_StdPeriph_Driver/src/stm32f4xx_flash.c ****  |7WS(8CPU cycle)|      NA        |      NA        |120 < HCLK <= 138|112 < HCLK <= 120| 
 129:lib/chip/STM32F4xx_StdPeriph_Driver/src/stm32f4xx_flash.c ****  |***************|****************|****************|*****************|*****************|***********
 130:lib/chip/STM32F4xx_StdPeriph_Driver/src/stm32f4xx_flash.c ****  |               | voltage range  | voltage range  | voltage range   | voltage range   | voltage ra
 131:lib/chip/STM32F4xx_StdPeriph_Driver/src/stm32f4xx_flash.c ****  |               | 2.7 V - 3.6 V  | 2.4 V - 2.7 V  | 2.1 V - 2.4 V   | 1.8 V - 2.1 V   | with Exter
 132:lib/chip/STM32F4xx_StdPeriph_Driver/src/stm32f4xx_flash.c ****  |---------------|----------------|----------------|-----------------|-----------------|-----------
 133:lib/chip/STM32F4xx_StdPeriph_Driver/src/stm32f4xx_flash.c ****  |Max Parallelism|      x32       |               x16                |       x8        |          x
 134:lib/chip/STM32F4xx_StdPeriph_Driver/src/stm32f4xx_flash.c ****  |---------------|----------------|----------------|-----------------|-----------------|-----------
 135:lib/chip/STM32F4xx_StdPeriph_Driver/src/stm32f4xx_flash.c ****  |PSIZE[1:0]     |      10        |               01                 |       00        |           
 136:lib/chip/STM32F4xx_StdPeriph_Driver/src/stm32f4xx_flash.c ****  +-------------------------------------------------------------------------------------------------
 137:lib/chip/STM32F4xx_StdPeriph_Driver/src/stm32f4xx_flash.c ****    @note When VOS bit (in PWR_CR register) is reset to '0’, the maximum value of HCLK is 144 MHz.
 138:lib/chip/STM32F4xx_StdPeriph_Driver/src/stm32f4xx_flash.c ****          You can use PWR_MainRegulatorModeConfig() function to set or reset this bit.
 139:lib/chip/STM32F4xx_StdPeriph_Driver/src/stm32f4xx_flash.c ****              
 140:lib/chip/STM32F4xx_StdPeriph_Driver/src/stm32f4xx_flash.c ****     - void FLASH_PrefetchBufferCmd(FunctionalState NewState)
 141:lib/chip/STM32F4xx_StdPeriph_Driver/src/stm32f4xx_flash.c ****     - void FLASH_InstructionCacheCmd(FunctionalState NewState)
 142:lib/chip/STM32F4xx_StdPeriph_Driver/src/stm32f4xx_flash.c ****     - void FLASH_DataCacheCmd(FunctionalState NewState)
 143:lib/chip/STM32F4xx_StdPeriph_Driver/src/stm32f4xx_flash.c ****     - void FLASH_InstructionCacheReset(void)
 144:lib/chip/STM32F4xx_StdPeriph_Driver/src/stm32f4xx_flash.c ****     - void FLASH_DataCacheReset(void)
 145:lib/chip/STM32F4xx_StdPeriph_Driver/src/stm32f4xx_flash.c ****    
 146:lib/chip/STM32F4xx_StdPeriph_Driver/src/stm32f4xx_flash.c ****    The unlock sequence is not needed for these functions.
 147:lib/chip/STM32F4xx_StdPeriph_Driver/src/stm32f4xx_flash.c ****  
 148:lib/chip/STM32F4xx_StdPeriph_Driver/src/stm32f4xx_flash.c **** @endverbatim
 149:lib/chip/STM32F4xx_StdPeriph_Driver/src/stm32f4xx_flash.c ****   * @{
 150:lib/chip/STM32F4xx_StdPeriph_Driver/src/stm32f4xx_flash.c ****   */
 151:lib/chip/STM32F4xx_StdPeriph_Driver/src/stm32f4xx_flash.c ****  
 152:lib/chip/STM32F4xx_StdPeriph_Driver/src/stm32f4xx_flash.c **** /**
 153:lib/chip/STM32F4xx_StdPeriph_Driver/src/stm32f4xx_flash.c ****   * @brief  Sets the code latency value.
 154:lib/chip/STM32F4xx_StdPeriph_Driver/src/stm32f4xx_flash.c ****   * @param  FLASH_Latency: specifies the FLASH Latency value.
 155:lib/chip/STM32F4xx_StdPeriph_Driver/src/stm32f4xx_flash.c ****   *          This parameter can be one of the following values:
 156:lib/chip/STM32F4xx_StdPeriph_Driver/src/stm32f4xx_flash.c ****   *            @arg FLASH_Latency_0: FLASH Zero Latency cycle
 157:lib/chip/STM32F4xx_StdPeriph_Driver/src/stm32f4xx_flash.c ****   *            @arg FLASH_Latency_1: FLASH One Latency cycle
 158:lib/chip/STM32F4xx_StdPeriph_Driver/src/stm32f4xx_flash.c ****   *            @arg FLASH_Latency_2: FLASH Two Latency cycles
 159:lib/chip/STM32F4xx_StdPeriph_Driver/src/stm32f4xx_flash.c ****   *            @arg FLASH_Latency_3: FLASH Three Latency cycles
 160:lib/chip/STM32F4xx_StdPeriph_Driver/src/stm32f4xx_flash.c ****   *            @arg FLASH_Latency_4: FLASH Four Latency cycles 
 161:lib/chip/STM32F4xx_StdPeriph_Driver/src/stm32f4xx_flash.c ****   *            @arg FLASH_Latency_5: FLASH Five Latency cycles 
 162:lib/chip/STM32F4xx_StdPeriph_Driver/src/stm32f4xx_flash.c ****   *            @arg FLASH_Latency_6: FLASH Six Latency cycles
 163:lib/chip/STM32F4xx_StdPeriph_Driver/src/stm32f4xx_flash.c ****   *            @arg FLASH_Latency_7: FLASH Seven Latency cycles      
 164:lib/chip/STM32F4xx_StdPeriph_Driver/src/stm32f4xx_flash.c ****   * @retval None
 165:lib/chip/STM32F4xx_StdPeriph_Driver/src/stm32f4xx_flash.c ****   */
 166:lib/chip/STM32F4xx_StdPeriph_Driver/src/stm32f4xx_flash.c **** void FLASH_SetLatency(uint32_t FLASH_Latency)
 167:lib/chip/STM32F4xx_StdPeriph_Driver/src/stm32f4xx_flash.c **** {
  33              		.loc 1 167 0
  34              		.cfi_startproc
  35              		@ args = 0, pretend = 0, frame = 8
  36              		@ frame_needed = 1, uses_anonymous_args = 0
  37 0000 80B5     		push	{r7, lr}
  38              	.LCFI0:
  39              		.cfi_def_cfa_offset 8
  40              		.cfi_offset 7, -8
  41              		.cfi_offset 14, -4
  42 0002 82B0     		sub	sp, sp, #8
  43              	.LCFI1:
  44              		.cfi_def_cfa_offset 16
  45 0004 00AF     		add	r7, sp, #0
  46              	.LCFI2:
  47              		.cfi_def_cfa_register 7
  48 0006 7860     		str	r0, [r7, #4]
 168:lib/chip/STM32F4xx_StdPeriph_Driver/src/stm32f4xx_flash.c ****   /* Check the parameters */
 169:lib/chip/STM32F4xx_StdPeriph_Driver/src/stm32f4xx_flash.c ****   assert_param(IS_FLASH_LATENCY(FLASH_Latency));
  49              		.loc 1 169 0
  50 0008 7B68     		ldr	r3, [r7, #4]
  51 000a 002B     		cmp	r3, #0
  52 000c 1BD0     		beq	.L2
  53              		.loc 1 169 0 is_stmt 0 discriminator 1
  54 000e 7B68     		ldr	r3, [r7, #4]
  55 0010 012B     		cmp	r3, #1
  56 0012 18D0     		beq	.L2
  57 0014 7B68     		ldr	r3, [r7, #4]
  58 0016 022B     		cmp	r3, #2
  59 0018 15D0     		beq	.L2
  60 001a 7B68     		ldr	r3, [r7, #4]
  61 001c 032B     		cmp	r3, #3
  62 001e 12D0     		beq	.L2
  63 0020 7B68     		ldr	r3, [r7, #4]
  64 0022 042B     		cmp	r3, #4
  65 0024 0FD0     		beq	.L2
  66 0026 7B68     		ldr	r3, [r7, #4]
  67 0028 052B     		cmp	r3, #5
  68 002a 0CD0     		beq	.L2
  69 002c 7B68     		ldr	r3, [r7, #4]
  70 002e 062B     		cmp	r3, #6
  71 0030 09D0     		beq	.L2
  72 0032 7B68     		ldr	r3, [r7, #4]
  73 0034 072B     		cmp	r3, #7
  74 0036 06D0     		beq	.L2
  75 0038 40F20000 		movw	r0, #:lower16:.LC0
  76 003c C0F20000 		movt	r0, #:upper16:.LC0
  77 0040 A921     		movs	r1, #169
  78 0042 FFF7FEFF 		bl	assert_failed
  79              	.L2:
 170:lib/chip/STM32F4xx_StdPeriph_Driver/src/stm32f4xx_flash.c ****   
 171:lib/chip/STM32F4xx_StdPeriph_Driver/src/stm32f4xx_flash.c ****   /* Perform Byte access to FLASH_ACR[8:0] to set the Latency value */
 172:lib/chip/STM32F4xx_StdPeriph_Driver/src/stm32f4xx_flash.c ****   *(__IO uint8_t *)ACR_BYTE0_ADDRESS = (uint8_t)FLASH_Latency;
  80              		.loc 1 172 0 is_stmt 1
  81 0046 4FF47053 		mov	r3, #15360
  82 004a C4F20203 		movt	r3, 16386
  83 004e 7A68     		ldr	r2, [r7, #4]
  84 0050 D2B2     		uxtb	r2, r2
  85 0052 1A70     		strb	r2, [r3]
 173:lib/chip/STM32F4xx_StdPeriph_Driver/src/stm32f4xx_flash.c **** }
  86              		.loc 1 173 0
  87 0054 0837     		adds	r7, r7, #8
  88 0056 BD46     		mov	sp, r7
  89              		@ sp needed
  90 0058 80BD     		pop	{r7, pc}
  91              		.cfi_endproc
  92              	.LFE110:
  94 005a 00BF     		.section	.text.FLASH_PrefetchBufferCmd,"ax",%progbits
  95              		.align	2
  96              		.global	FLASH_PrefetchBufferCmd
  97              		.thumb
  98              		.thumb_func
 100              	FLASH_PrefetchBufferCmd:
 101              	.LFB111:
 174:lib/chip/STM32F4xx_StdPeriph_Driver/src/stm32f4xx_flash.c **** 
 175:lib/chip/STM32F4xx_StdPeriph_Driver/src/stm32f4xx_flash.c **** /**
 176:lib/chip/STM32F4xx_StdPeriph_Driver/src/stm32f4xx_flash.c ****   * @brief  Enables or disables the Prefetch Buffer.
 177:lib/chip/STM32F4xx_StdPeriph_Driver/src/stm32f4xx_flash.c ****   * @param  NewState: new state of the Prefetch Buffer.
 178:lib/chip/STM32F4xx_StdPeriph_Driver/src/stm32f4xx_flash.c ****   *          This parameter  can be: ENABLE or DISABLE.
 179:lib/chip/STM32F4xx_StdPeriph_Driver/src/stm32f4xx_flash.c ****   * @retval None
 180:lib/chip/STM32F4xx_StdPeriph_Driver/src/stm32f4xx_flash.c ****   */
 181:lib/chip/STM32F4xx_StdPeriph_Driver/src/stm32f4xx_flash.c **** void FLASH_PrefetchBufferCmd(FunctionalState NewState)
 182:lib/chip/STM32F4xx_StdPeriph_Driver/src/stm32f4xx_flash.c **** {
 102              		.loc 1 182 0
 103              		.cfi_startproc
 104              		@ args = 0, pretend = 0, frame = 8
 105              		@ frame_needed = 1, uses_anonymous_args = 0
 106 0000 80B5     		push	{r7, lr}
 107              	.LCFI3:
 108              		.cfi_def_cfa_offset 8
 109              		.cfi_offset 7, -8
 110              		.cfi_offset 14, -4
 111 0002 82B0     		sub	sp, sp, #8
 112              	.LCFI4:
 113              		.cfi_def_cfa_offset 16
 114 0004 00AF     		add	r7, sp, #0
 115              	.LCFI5:
 116              		.cfi_def_cfa_register 7
 117 0006 0346     		mov	r3, r0
 118 0008 FB71     		strb	r3, [r7, #7]
 183:lib/chip/STM32F4xx_StdPeriph_Driver/src/stm32f4xx_flash.c ****   /* Check the parameters */
 184:lib/chip/STM32F4xx_StdPeriph_Driver/src/stm32f4xx_flash.c ****   assert_param(IS_FUNCTIONAL_STATE(NewState));
 119              		.loc 1 184 0
 120 000a FB79     		ldrb	r3, [r7, #7]	@ zero_extendqisi2
 121 000c 002B     		cmp	r3, #0
 122 000e 09D0     		beq	.L4
 123              		.loc 1 184 0 is_stmt 0 discriminator 1
 124 0010 FB79     		ldrb	r3, [r7, #7]	@ zero_extendqisi2
 125 0012 012B     		cmp	r3, #1
 126 0014 06D0     		beq	.L4
 127 0016 40F20000 		movw	r0, #:lower16:.LC0
 128 001a C0F20000 		movt	r0, #:upper16:.LC0
 129 001e B821     		movs	r1, #184
 130 0020 FFF7FEFF 		bl	assert_failed
 131              	.L4:
 185:lib/chip/STM32F4xx_StdPeriph_Driver/src/stm32f4xx_flash.c ****   
 186:lib/chip/STM32F4xx_StdPeriph_Driver/src/stm32f4xx_flash.c ****   /* Enable or disable the Prefetch Buffer */
 187:lib/chip/STM32F4xx_StdPeriph_Driver/src/stm32f4xx_flash.c ****   if(NewState != DISABLE)
 132              		.loc 1 187 0 is_stmt 1
 133 0024 FB79     		ldrb	r3, [r7, #7]	@ zero_extendqisi2
 134 0026 002B     		cmp	r3, #0
 135 0028 0CD0     		beq	.L5
 188:lib/chip/STM32F4xx_StdPeriph_Driver/src/stm32f4xx_flash.c ****   {
 189:lib/chip/STM32F4xx_StdPeriph_Driver/src/stm32f4xx_flash.c ****     FLASH->ACR |= FLASH_ACR_PRFTEN;
 136              		.loc 1 189 0
 137 002a 4FF47053 		mov	r3, #15360
 138 002e C4F20203 		movt	r3, 16386
 139 0032 4FF47052 		mov	r2, #15360
 140 0036 C4F20202 		movt	r2, 16386
 141 003a 1268     		ldr	r2, [r2]
 142 003c 42F48072 		orr	r2, r2, #256
 143 0040 1A60     		str	r2, [r3]
 144 0042 0BE0     		b	.L3
 145              	.L5:
 190:lib/chip/STM32F4xx_StdPeriph_Driver/src/stm32f4xx_flash.c ****   }
 191:lib/chip/STM32F4xx_StdPeriph_Driver/src/stm32f4xx_flash.c ****   else
 192:lib/chip/STM32F4xx_StdPeriph_Driver/src/stm32f4xx_flash.c ****   {
 193:lib/chip/STM32F4xx_StdPeriph_Driver/src/stm32f4xx_flash.c ****     FLASH->ACR &= (~FLASH_ACR_PRFTEN);
 146              		.loc 1 193 0
 147 0044 4FF47053 		mov	r3, #15360
 148 0048 C4F20203 		movt	r3, 16386
 149 004c 4FF47052 		mov	r2, #15360
 150 0050 C4F20202 		movt	r2, 16386
 151 0054 1268     		ldr	r2, [r2]
 152 0056 22F48072 		bic	r2, r2, #256
 153 005a 1A60     		str	r2, [r3]
 154              	.L3:
 194:lib/chip/STM32F4xx_StdPeriph_Driver/src/stm32f4xx_flash.c ****   }
 195:lib/chip/STM32F4xx_StdPeriph_Driver/src/stm32f4xx_flash.c **** }
 155              		.loc 1 195 0
 156 005c 0837     		adds	r7, r7, #8
 157 005e BD46     		mov	sp, r7
 158              		@ sp needed
 159 0060 80BD     		pop	{r7, pc}
 160              		.cfi_endproc
 161              	.LFE111:
 163 0062 00BF     		.section	.text.FLASH_InstructionCacheCmd,"ax",%progbits
 164              		.align	2
 165              		.global	FLASH_InstructionCacheCmd
 166              		.thumb
 167              		.thumb_func
 169              	FLASH_InstructionCacheCmd:
 170              	.LFB112:
 196:lib/chip/STM32F4xx_StdPeriph_Driver/src/stm32f4xx_flash.c **** 
 197:lib/chip/STM32F4xx_StdPeriph_Driver/src/stm32f4xx_flash.c **** /**
 198:lib/chip/STM32F4xx_StdPeriph_Driver/src/stm32f4xx_flash.c ****   * @brief  Enables or disables the Instruction Cache feature.
 199:lib/chip/STM32F4xx_StdPeriph_Driver/src/stm32f4xx_flash.c ****   * @param  NewState: new state of the Instruction Cache.
 200:lib/chip/STM32F4xx_StdPeriph_Driver/src/stm32f4xx_flash.c ****   *          This parameter  can be: ENABLE or DISABLE.
 201:lib/chip/STM32F4xx_StdPeriph_Driver/src/stm32f4xx_flash.c ****   * @retval None
 202:lib/chip/STM32F4xx_StdPeriph_Driver/src/stm32f4xx_flash.c ****   */
 203:lib/chip/STM32F4xx_StdPeriph_Driver/src/stm32f4xx_flash.c **** void FLASH_InstructionCacheCmd(FunctionalState NewState)
 204:lib/chip/STM32F4xx_StdPeriph_Driver/src/stm32f4xx_flash.c **** {
 171              		.loc 1 204 0
 172              		.cfi_startproc
 173              		@ args = 0, pretend = 0, frame = 8
 174              		@ frame_needed = 1, uses_anonymous_args = 0
 175 0000 80B5     		push	{r7, lr}
 176              	.LCFI6:
 177              		.cfi_def_cfa_offset 8
 178              		.cfi_offset 7, -8
 179              		.cfi_offset 14, -4
 180 0002 82B0     		sub	sp, sp, #8
 181              	.LCFI7:
 182              		.cfi_def_cfa_offset 16
 183 0004 00AF     		add	r7, sp, #0
 184              	.LCFI8:
 185              		.cfi_def_cfa_register 7
 186 0006 0346     		mov	r3, r0
 187 0008 FB71     		strb	r3, [r7, #7]
 205:lib/chip/STM32F4xx_StdPeriph_Driver/src/stm32f4xx_flash.c ****   /* Check the parameters */
 206:lib/chip/STM32F4xx_StdPeriph_Driver/src/stm32f4xx_flash.c ****   assert_param(IS_FUNCTIONAL_STATE(NewState));
 188              		.loc 1 206 0
 189 000a FB79     		ldrb	r3, [r7, #7]	@ zero_extendqisi2
 190 000c 002B     		cmp	r3, #0
 191 000e 09D0     		beq	.L8
 192              		.loc 1 206 0 is_stmt 0 discriminator 1
 193 0010 FB79     		ldrb	r3, [r7, #7]	@ zero_extendqisi2
 194 0012 012B     		cmp	r3, #1
 195 0014 06D0     		beq	.L8
 196 0016 40F20000 		movw	r0, #:lower16:.LC0
 197 001a C0F20000 		movt	r0, #:upper16:.LC0
 198 001e CE21     		movs	r1, #206
 199 0020 FFF7FEFF 		bl	assert_failed
 200              	.L8:
 207:lib/chip/STM32F4xx_StdPeriph_Driver/src/stm32f4xx_flash.c ****   
 208:lib/chip/STM32F4xx_StdPeriph_Driver/src/stm32f4xx_flash.c ****   if(NewState != DISABLE)
 201              		.loc 1 208 0 is_stmt 1
 202 0024 FB79     		ldrb	r3, [r7, #7]	@ zero_extendqisi2
 203 0026 002B     		cmp	r3, #0
 204 0028 0CD0     		beq	.L9
 209:lib/chip/STM32F4xx_StdPeriph_Driver/src/stm32f4xx_flash.c ****   {
 210:lib/chip/STM32F4xx_StdPeriph_Driver/src/stm32f4xx_flash.c ****     FLASH->ACR |= FLASH_ACR_ICEN;
 205              		.loc 1 210 0
 206 002a 4FF47053 		mov	r3, #15360
 207 002e C4F20203 		movt	r3, 16386
 208 0032 4FF47052 		mov	r2, #15360
 209 0036 C4F20202 		movt	r2, 16386
 210 003a 1268     		ldr	r2, [r2]
 211 003c 42F40072 		orr	r2, r2, #512
 212 0040 1A60     		str	r2, [r3]
 213 0042 0BE0     		b	.L7
 214              	.L9:
 211:lib/chip/STM32F4xx_StdPeriph_Driver/src/stm32f4xx_flash.c ****   }
 212:lib/chip/STM32F4xx_StdPeriph_Driver/src/stm32f4xx_flash.c ****   else
 213:lib/chip/STM32F4xx_StdPeriph_Driver/src/stm32f4xx_flash.c ****   {
 214:lib/chip/STM32F4xx_StdPeriph_Driver/src/stm32f4xx_flash.c ****     FLASH->ACR &= (~FLASH_ACR_ICEN);
 215              		.loc 1 214 0
 216 0044 4FF47053 		mov	r3, #15360
 217 0048 C4F20203 		movt	r3, 16386
 218 004c 4FF47052 		mov	r2, #15360
 219 0050 C4F20202 		movt	r2, 16386
 220 0054 1268     		ldr	r2, [r2]
 221 0056 22F40072 		bic	r2, r2, #512
 222 005a 1A60     		str	r2, [r3]
 223              	.L7:
 215:lib/chip/STM32F4xx_StdPeriph_Driver/src/stm32f4xx_flash.c ****   }
 216:lib/chip/STM32F4xx_StdPeriph_Driver/src/stm32f4xx_flash.c **** }
 224              		.loc 1 216 0
 225 005c 0837     		adds	r7, r7, #8
 226 005e BD46     		mov	sp, r7
 227              		@ sp needed
 228 0060 80BD     		pop	{r7, pc}
 229              		.cfi_endproc
 230              	.LFE112:
 232 0062 00BF     		.section	.text.FLASH_DataCacheCmd,"ax",%progbits
 233              		.align	2
 234              		.global	FLASH_DataCacheCmd
 235              		.thumb
 236              		.thumb_func
 238              	FLASH_DataCacheCmd:
 239              	.LFB113:
 217:lib/chip/STM32F4xx_StdPeriph_Driver/src/stm32f4xx_flash.c **** 
 218:lib/chip/STM32F4xx_StdPeriph_Driver/src/stm32f4xx_flash.c **** /**
 219:lib/chip/STM32F4xx_StdPeriph_Driver/src/stm32f4xx_flash.c ****   * @brief  Enables or disables the Data Cache feature.
 220:lib/chip/STM32F4xx_StdPeriph_Driver/src/stm32f4xx_flash.c ****   * @param  NewState: new state of the Data Cache.
 221:lib/chip/STM32F4xx_StdPeriph_Driver/src/stm32f4xx_flash.c ****   *          This parameter  can be: ENABLE or DISABLE.
 222:lib/chip/STM32F4xx_StdPeriph_Driver/src/stm32f4xx_flash.c ****   * @retval None
 223:lib/chip/STM32F4xx_StdPeriph_Driver/src/stm32f4xx_flash.c ****   */
 224:lib/chip/STM32F4xx_StdPeriph_Driver/src/stm32f4xx_flash.c **** void FLASH_DataCacheCmd(FunctionalState NewState)
 225:lib/chip/STM32F4xx_StdPeriph_Driver/src/stm32f4xx_flash.c **** {
 240              		.loc 1 225 0
 241              		.cfi_startproc
 242              		@ args = 0, pretend = 0, frame = 8
 243              		@ frame_needed = 1, uses_anonymous_args = 0
 244 0000 80B5     		push	{r7, lr}
 245              	.LCFI9:
 246              		.cfi_def_cfa_offset 8
 247              		.cfi_offset 7, -8
 248              		.cfi_offset 14, -4
 249 0002 82B0     		sub	sp, sp, #8
 250              	.LCFI10:
 251              		.cfi_def_cfa_offset 16
 252 0004 00AF     		add	r7, sp, #0
 253              	.LCFI11:
 254              		.cfi_def_cfa_register 7
 255 0006 0346     		mov	r3, r0
 256 0008 FB71     		strb	r3, [r7, #7]
 226:lib/chip/STM32F4xx_StdPeriph_Driver/src/stm32f4xx_flash.c ****   /* Check the parameters */
 227:lib/chip/STM32F4xx_StdPeriph_Driver/src/stm32f4xx_flash.c ****   assert_param(IS_FUNCTIONAL_STATE(NewState));
 257              		.loc 1 227 0
 258 000a FB79     		ldrb	r3, [r7, #7]	@ zero_extendqisi2
 259 000c 002B     		cmp	r3, #0
 260 000e 09D0     		beq	.L12
 261              		.loc 1 227 0 is_stmt 0 discriminator 1
 262 0010 FB79     		ldrb	r3, [r7, #7]	@ zero_extendqisi2
 263 0012 012B     		cmp	r3, #1
 264 0014 06D0     		beq	.L12
 265 0016 40F20000 		movw	r0, #:lower16:.LC0
 266 001a C0F20000 		movt	r0, #:upper16:.LC0
 267 001e E321     		movs	r1, #227
 268 0020 FFF7FEFF 		bl	assert_failed
 269              	.L12:
 228:lib/chip/STM32F4xx_StdPeriph_Driver/src/stm32f4xx_flash.c ****   
 229:lib/chip/STM32F4xx_StdPeriph_Driver/src/stm32f4xx_flash.c ****   if(NewState != DISABLE)
 270              		.loc 1 229 0 is_stmt 1
 271 0024 FB79     		ldrb	r3, [r7, #7]	@ zero_extendqisi2
 272 0026 002B     		cmp	r3, #0
 273 0028 0CD0     		beq	.L13
 230:lib/chip/STM32F4xx_StdPeriph_Driver/src/stm32f4xx_flash.c ****   {
 231:lib/chip/STM32F4xx_StdPeriph_Driver/src/stm32f4xx_flash.c ****     FLASH->ACR |= FLASH_ACR_DCEN;
 274              		.loc 1 231 0
 275 002a 4FF47053 		mov	r3, #15360
 276 002e C4F20203 		movt	r3, 16386
 277 0032 4FF47052 		mov	r2, #15360
 278 0036 C4F20202 		movt	r2, 16386
 279 003a 1268     		ldr	r2, [r2]
 280 003c 42F48062 		orr	r2, r2, #1024
 281 0040 1A60     		str	r2, [r3]
 282 0042 0BE0     		b	.L11
 283              	.L13:
 232:lib/chip/STM32F4xx_StdPeriph_Driver/src/stm32f4xx_flash.c ****   }
 233:lib/chip/STM32F4xx_StdPeriph_Driver/src/stm32f4xx_flash.c ****   else
 234:lib/chip/STM32F4xx_StdPeriph_Driver/src/stm32f4xx_flash.c ****   {
 235:lib/chip/STM32F4xx_StdPeriph_Driver/src/stm32f4xx_flash.c ****     FLASH->ACR &= (~FLASH_ACR_DCEN);
 284              		.loc 1 235 0
 285 0044 4FF47053 		mov	r3, #15360
 286 0048 C4F20203 		movt	r3, 16386
 287 004c 4FF47052 		mov	r2, #15360
 288 0050 C4F20202 		movt	r2, 16386
 289 0054 1268     		ldr	r2, [r2]
 290 0056 22F48062 		bic	r2, r2, #1024
 291 005a 1A60     		str	r2, [r3]
 292              	.L11:
 236:lib/chip/STM32F4xx_StdPeriph_Driver/src/stm32f4xx_flash.c ****   }
 237:lib/chip/STM32F4xx_StdPeriph_Driver/src/stm32f4xx_flash.c **** }
 293              		.loc 1 237 0
 294 005c 0837     		adds	r7, r7, #8
 295 005e BD46     		mov	sp, r7
 296              		@ sp needed
 297 0060 80BD     		pop	{r7, pc}
 298              		.cfi_endproc
 299              	.LFE113:
 301 0062 00BF     		.section	.text.FLASH_InstructionCacheReset,"ax",%progbits
 302              		.align	2
 303              		.global	FLASH_InstructionCacheReset
 304              		.thumb
 305              		.thumb_func
 307              	FLASH_InstructionCacheReset:
 308              	.LFB114:
 238:lib/chip/STM32F4xx_StdPeriph_Driver/src/stm32f4xx_flash.c **** 
 239:lib/chip/STM32F4xx_StdPeriph_Driver/src/stm32f4xx_flash.c **** /**
 240:lib/chip/STM32F4xx_StdPeriph_Driver/src/stm32f4xx_flash.c ****   * @brief  Resets the Instruction Cache.
 241:lib/chip/STM32F4xx_StdPeriph_Driver/src/stm32f4xx_flash.c ****   * @note   This function must be used only when the Instruction Cache is disabled.  
 242:lib/chip/STM32F4xx_StdPeriph_Driver/src/stm32f4xx_flash.c ****   * @param  None
 243:lib/chip/STM32F4xx_StdPeriph_Driver/src/stm32f4xx_flash.c ****   * @retval None
 244:lib/chip/STM32F4xx_StdPeriph_Driver/src/stm32f4xx_flash.c ****   */
 245:lib/chip/STM32F4xx_StdPeriph_Driver/src/stm32f4xx_flash.c **** void FLASH_InstructionCacheReset(void)
 246:lib/chip/STM32F4xx_StdPeriph_Driver/src/stm32f4xx_flash.c **** {
 309              		.loc 1 246 0
 310              		.cfi_startproc
 311              		@ args = 0, pretend = 0, frame = 0
 312              		@ frame_needed = 1, uses_anonymous_args = 0
 313              		@ link register save eliminated.
 314 0000 80B4     		push	{r7}
 315              	.LCFI12:
 316              		.cfi_def_cfa_offset 4
 317              		.cfi_offset 7, -4
 318 0002 00AF     		add	r7, sp, #0
 319              	.LCFI13:
 320              		.cfi_def_cfa_register 7
 247:lib/chip/STM32F4xx_StdPeriph_Driver/src/stm32f4xx_flash.c ****   FLASH->ACR |= FLASH_ACR_ICRST;
 321              		.loc 1 247 0
 322 0004 4FF47053 		mov	r3, #15360
 323 0008 C4F20203 		movt	r3, 16386
 324 000c 4FF47052 		mov	r2, #15360
 325 0010 C4F20202 		movt	r2, 16386
 326 0014 1268     		ldr	r2, [r2]
 327 0016 42F40062 		orr	r2, r2, #2048
 328 001a 1A60     		str	r2, [r3]
 248:lib/chip/STM32F4xx_StdPeriph_Driver/src/stm32f4xx_flash.c **** }
 329              		.loc 1 248 0
 330 001c BD46     		mov	sp, r7
 331              		@ sp needed
 332 001e 5DF8047B 		ldr	r7, [sp], #4
 333 0022 7047     		bx	lr
 334              		.cfi_endproc
 335              	.LFE114:
 337              		.section	.text.FLASH_DataCacheReset,"ax",%progbits
 338              		.align	2
 339              		.global	FLASH_DataCacheReset
 340              		.thumb
 341              		.thumb_func
 343              	FLASH_DataCacheReset:
 344              	.LFB115:
 249:lib/chip/STM32F4xx_StdPeriph_Driver/src/stm32f4xx_flash.c **** 
 250:lib/chip/STM32F4xx_StdPeriph_Driver/src/stm32f4xx_flash.c **** /**
 251:lib/chip/STM32F4xx_StdPeriph_Driver/src/stm32f4xx_flash.c ****   * @brief  Resets the Data Cache.
 252:lib/chip/STM32F4xx_StdPeriph_Driver/src/stm32f4xx_flash.c ****   * @note   This function must be used only when the Data Cache is disabled.  
 253:lib/chip/STM32F4xx_StdPeriph_Driver/src/stm32f4xx_flash.c ****   * @param  None
 254:lib/chip/STM32F4xx_StdPeriph_Driver/src/stm32f4xx_flash.c ****   * @retval None
 255:lib/chip/STM32F4xx_StdPeriph_Driver/src/stm32f4xx_flash.c ****   */
 256:lib/chip/STM32F4xx_StdPeriph_Driver/src/stm32f4xx_flash.c **** void FLASH_DataCacheReset(void)
 257:lib/chip/STM32F4xx_StdPeriph_Driver/src/stm32f4xx_flash.c **** {
 345              		.loc 1 257 0
 346              		.cfi_startproc
 347              		@ args = 0, pretend = 0, frame = 0
 348              		@ frame_needed = 1, uses_anonymous_args = 0
 349              		@ link register save eliminated.
 350 0000 80B4     		push	{r7}
 351              	.LCFI14:
 352              		.cfi_def_cfa_offset 4
 353              		.cfi_offset 7, -4
 354 0002 00AF     		add	r7, sp, #0
 355              	.LCFI15:
 356              		.cfi_def_cfa_register 7
 258:lib/chip/STM32F4xx_StdPeriph_Driver/src/stm32f4xx_flash.c ****   FLASH->ACR |= FLASH_ACR_DCRST;
 357              		.loc 1 258 0
 358 0004 4FF47053 		mov	r3, #15360
 359 0008 C4F20203 		movt	r3, 16386
 360 000c 4FF47052 		mov	r2, #15360
 361 0010 C4F20202 		movt	r2, 16386
 362 0014 1268     		ldr	r2, [r2]
 363 0016 42F48052 		orr	r2, r2, #4096
 364 001a 1A60     		str	r2, [r3]
 259:lib/chip/STM32F4xx_StdPeriph_Driver/src/stm32f4xx_flash.c **** }
 365              		.loc 1 259 0
 366 001c BD46     		mov	sp, r7
 367              		@ sp needed
 368 001e 5DF8047B 		ldr	r7, [sp], #4
 369 0022 7047     		bx	lr
 370              		.cfi_endproc
 371              	.LFE115:
 373              		.section	.text.FLASH_Unlock,"ax",%progbits
 374              		.align	2
 375              		.global	FLASH_Unlock
 376              		.thumb
 377              		.thumb_func
 379              	FLASH_Unlock:
 380              	.LFB116:
 260:lib/chip/STM32F4xx_StdPeriph_Driver/src/stm32f4xx_flash.c **** 
 261:lib/chip/STM32F4xx_StdPeriph_Driver/src/stm32f4xx_flash.c **** /**
 262:lib/chip/STM32F4xx_StdPeriph_Driver/src/stm32f4xx_flash.c ****   * @}
 263:lib/chip/STM32F4xx_StdPeriph_Driver/src/stm32f4xx_flash.c ****   */
 264:lib/chip/STM32F4xx_StdPeriph_Driver/src/stm32f4xx_flash.c **** 
 265:lib/chip/STM32F4xx_StdPeriph_Driver/src/stm32f4xx_flash.c **** /** @defgroup FLASH_Group2 FLASH Memory Programming functions
 266:lib/chip/STM32F4xx_StdPeriph_Driver/src/stm32f4xx_flash.c ****  *  @brief   FLASH Memory Programming functions
 267:lib/chip/STM32F4xx_StdPeriph_Driver/src/stm32f4xx_flash.c ****  *
 268:lib/chip/STM32F4xx_StdPeriph_Driver/src/stm32f4xx_flash.c **** @verbatim   
 269:lib/chip/STM32F4xx_StdPeriph_Driver/src/stm32f4xx_flash.c ****  ===============================================================================
 270:lib/chip/STM32F4xx_StdPeriph_Driver/src/stm32f4xx_flash.c ****                       FLASH Memory Programming functions
 271:lib/chip/STM32F4xx_StdPeriph_Driver/src/stm32f4xx_flash.c ****  ===============================================================================   
 272:lib/chip/STM32F4xx_StdPeriph_Driver/src/stm32f4xx_flash.c **** 
 273:lib/chip/STM32F4xx_StdPeriph_Driver/src/stm32f4xx_flash.c ****    This group includes the following functions:
 274:lib/chip/STM32F4xx_StdPeriph_Driver/src/stm32f4xx_flash.c ****     - void FLASH_Unlock(void)
 275:lib/chip/STM32F4xx_StdPeriph_Driver/src/stm32f4xx_flash.c ****     - void FLASH_Lock(void)
 276:lib/chip/STM32F4xx_StdPeriph_Driver/src/stm32f4xx_flash.c ****     - FLASH_Status FLASH_EraseSector(uint32_t FLASH_Sector, uint8_t VoltageRange)
 277:lib/chip/STM32F4xx_StdPeriph_Driver/src/stm32f4xx_flash.c ****     - FLASH_Status FLASH_EraseAllSectors(uint8_t VoltageRange)
 278:lib/chip/STM32F4xx_StdPeriph_Driver/src/stm32f4xx_flash.c ****     - FLASH_Status FLASH_ProgramDoubleWord(uint32_t Address, uint64_t Data)
 279:lib/chip/STM32F4xx_StdPeriph_Driver/src/stm32f4xx_flash.c ****     - FLASH_Status FLASH_ProgramWord(uint32_t Address, uint32_t Data)
 280:lib/chip/STM32F4xx_StdPeriph_Driver/src/stm32f4xx_flash.c ****     - FLASH_Status FLASH_ProgramHalfWord(uint32_t Address, uint16_t Data)
 281:lib/chip/STM32F4xx_StdPeriph_Driver/src/stm32f4xx_flash.c ****     - FLASH_Status FLASH_ProgramByte(uint32_t Address, uint8_t Data)
 282:lib/chip/STM32F4xx_StdPeriph_Driver/src/stm32f4xx_flash.c ****    
 283:lib/chip/STM32F4xx_StdPeriph_Driver/src/stm32f4xx_flash.c ****    Any operation of erase or program should follow these steps:
 284:lib/chip/STM32F4xx_StdPeriph_Driver/src/stm32f4xx_flash.c ****    1. Call the FLASH_Unlock() function to enable the FLASH control register access
 285:lib/chip/STM32F4xx_StdPeriph_Driver/src/stm32f4xx_flash.c **** 
 286:lib/chip/STM32F4xx_StdPeriph_Driver/src/stm32f4xx_flash.c ****    2. Call the desired function to erase sector(s) or program data
 287:lib/chip/STM32F4xx_StdPeriph_Driver/src/stm32f4xx_flash.c **** 
 288:lib/chip/STM32F4xx_StdPeriph_Driver/src/stm32f4xx_flash.c ****    3. Call the FLASH_Lock() function to disable the FLASH control register access
 289:lib/chip/STM32F4xx_StdPeriph_Driver/src/stm32f4xx_flash.c ****       (recommended to protect the FLASH memory against possible unwanted operation)
 290:lib/chip/STM32F4xx_StdPeriph_Driver/src/stm32f4xx_flash.c ****     
 291:lib/chip/STM32F4xx_StdPeriph_Driver/src/stm32f4xx_flash.c **** @endverbatim
 292:lib/chip/STM32F4xx_StdPeriph_Driver/src/stm32f4xx_flash.c ****   * @{
 293:lib/chip/STM32F4xx_StdPeriph_Driver/src/stm32f4xx_flash.c ****   */
 294:lib/chip/STM32F4xx_StdPeriph_Driver/src/stm32f4xx_flash.c **** 
 295:lib/chip/STM32F4xx_StdPeriph_Driver/src/stm32f4xx_flash.c **** /**
 296:lib/chip/STM32F4xx_StdPeriph_Driver/src/stm32f4xx_flash.c ****   * @brief  Unlocks the FLASH control register access
 297:lib/chip/STM32F4xx_StdPeriph_Driver/src/stm32f4xx_flash.c ****   * @param  None
 298:lib/chip/STM32F4xx_StdPeriph_Driver/src/stm32f4xx_flash.c ****   * @retval None
 299:lib/chip/STM32F4xx_StdPeriph_Driver/src/stm32f4xx_flash.c ****   */
 300:lib/chip/STM32F4xx_StdPeriph_Driver/src/stm32f4xx_flash.c **** void FLASH_Unlock(void)
 301:lib/chip/STM32F4xx_StdPeriph_Driver/src/stm32f4xx_flash.c **** {
 381              		.loc 1 301 0
 382              		.cfi_startproc
 383              		@ args = 0, pretend = 0, frame = 0
 384              		@ frame_needed = 1, uses_anonymous_args = 0
 385              		@ link register save eliminated.
 386 0000 80B4     		push	{r7}
 387              	.LCFI16:
 388              		.cfi_def_cfa_offset 4
 389              		.cfi_offset 7, -4
 390 0002 00AF     		add	r7, sp, #0
 391              	.LCFI17:
 392              		.cfi_def_cfa_register 7
 302:lib/chip/STM32F4xx_StdPeriph_Driver/src/stm32f4xx_flash.c ****   if((FLASH->CR & FLASH_CR_LOCK) != RESET)
 393              		.loc 1 302 0
 394 0004 4FF47053 		mov	r3, #15360
 395 0008 C4F20203 		movt	r3, 16386
 396 000c 1B69     		ldr	r3, [r3, #16]
 397 000e 002B     		cmp	r3, #0
 398 0010 11DA     		bge	.L17
 303:lib/chip/STM32F4xx_StdPeriph_Driver/src/stm32f4xx_flash.c ****   {
 304:lib/chip/STM32F4xx_StdPeriph_Driver/src/stm32f4xx_flash.c ****     /* Authorize the FLASH Registers access */
 305:lib/chip/STM32F4xx_StdPeriph_Driver/src/stm32f4xx_flash.c ****     FLASH->KEYR = FLASH_KEY1;
 399              		.loc 1 305 0
 400 0012 4FF47053 		mov	r3, #15360
 401 0016 C4F20203 		movt	r3, 16386
 402 001a 40F22312 		movw	r2, #291
 403 001e C4F26752 		movt	r2, 17767
 404 0022 5A60     		str	r2, [r3, #4]
 306:lib/chip/STM32F4xx_StdPeriph_Driver/src/stm32f4xx_flash.c ****     FLASH->KEYR = FLASH_KEY2;
 405              		.loc 1 306 0
 406 0024 4FF47053 		mov	r3, #15360
 407 0028 C4F20203 		movt	r3, 16386
 408 002c 48F6AB12 		movw	r2, #35243
 409 0030 CCF6EF52 		movt	r2, 52719
 410 0034 5A60     		str	r2, [r3, #4]
 411              	.L17:
 307:lib/chip/STM32F4xx_StdPeriph_Driver/src/stm32f4xx_flash.c ****   }  
 308:lib/chip/STM32F4xx_StdPeriph_Driver/src/stm32f4xx_flash.c **** }
 412              		.loc 1 308 0
 413 0036 BD46     		mov	sp, r7
 414              		@ sp needed
 415 0038 5DF8047B 		ldr	r7, [sp], #4
 416 003c 7047     		bx	lr
 417              		.cfi_endproc
 418              	.LFE116:
 420 003e 00BF     		.section	.text.FLASH_Lock,"ax",%progbits
 421              		.align	2
 422              		.global	FLASH_Lock
 423              		.thumb
 424              		.thumb_func
 426              	FLASH_Lock:
 427              	.LFB117:
 309:lib/chip/STM32F4xx_StdPeriph_Driver/src/stm32f4xx_flash.c **** 
 310:lib/chip/STM32F4xx_StdPeriph_Driver/src/stm32f4xx_flash.c **** /**
 311:lib/chip/STM32F4xx_StdPeriph_Driver/src/stm32f4xx_flash.c ****   * @brief  Locks the FLASH control register access
 312:lib/chip/STM32F4xx_StdPeriph_Driver/src/stm32f4xx_flash.c ****   * @param  None
 313:lib/chip/STM32F4xx_StdPeriph_Driver/src/stm32f4xx_flash.c ****   * @retval None
 314:lib/chip/STM32F4xx_StdPeriph_Driver/src/stm32f4xx_flash.c ****   */
 315:lib/chip/STM32F4xx_StdPeriph_Driver/src/stm32f4xx_flash.c **** void FLASH_Lock(void)
 316:lib/chip/STM32F4xx_StdPeriph_Driver/src/stm32f4xx_flash.c **** {
 428              		.loc 1 316 0
 429              		.cfi_startproc
 430              		@ args = 0, pretend = 0, frame = 0
 431              		@ frame_needed = 1, uses_anonymous_args = 0
 432              		@ link register save eliminated.
 433 0000 80B4     		push	{r7}
 434              	.LCFI18:
 435              		.cfi_def_cfa_offset 4
 436              		.cfi_offset 7, -4
 437 0002 00AF     		add	r7, sp, #0
 438              	.LCFI19:
 439              		.cfi_def_cfa_register 7
 317:lib/chip/STM32F4xx_StdPeriph_Driver/src/stm32f4xx_flash.c ****   /* Set the LOCK Bit to lock the FLASH Registers access */
 318:lib/chip/STM32F4xx_StdPeriph_Driver/src/stm32f4xx_flash.c ****   FLASH->CR |= FLASH_CR_LOCK;
 440              		.loc 1 318 0
 441 0004 4FF47053 		mov	r3, #15360
 442 0008 C4F20203 		movt	r3, 16386
 443 000c 4FF47052 		mov	r2, #15360
 444 0010 C4F20202 		movt	r2, 16386
 445 0014 1269     		ldr	r2, [r2, #16]
 446 0016 42F00042 		orr	r2, r2, #-2147483648
 447 001a 1A61     		str	r2, [r3, #16]
 319:lib/chip/STM32F4xx_StdPeriph_Driver/src/stm32f4xx_flash.c **** }
 448              		.loc 1 319 0
 449 001c BD46     		mov	sp, r7
 450              		@ sp needed
 451 001e 5DF8047B 		ldr	r7, [sp], #4
 452 0022 7047     		bx	lr
 453              		.cfi_endproc
 454              	.LFE117:
 456              		.section	.text.FLASH_EraseSector,"ax",%progbits
 457              		.align	2
 458              		.global	FLASH_EraseSector
 459              		.thumb
 460              		.thumb_func
 462              	FLASH_EraseSector:
 463              	.LFB118:
 320:lib/chip/STM32F4xx_StdPeriph_Driver/src/stm32f4xx_flash.c **** 
 321:lib/chip/STM32F4xx_StdPeriph_Driver/src/stm32f4xx_flash.c **** /**
 322:lib/chip/STM32F4xx_StdPeriph_Driver/src/stm32f4xx_flash.c ****   * @brief  Erases a specified FLASH Sector.
 323:lib/chip/STM32F4xx_StdPeriph_Driver/src/stm32f4xx_flash.c ****   *   
 324:lib/chip/STM32F4xx_StdPeriph_Driver/src/stm32f4xx_flash.c ****   * @param  FLASH_Sector: The Sector number to be erased.
 325:lib/chip/STM32F4xx_StdPeriph_Driver/src/stm32f4xx_flash.c ****   *          This parameter can be a value between FLASH_Sector_0 and FLASH_Sector_11
 326:lib/chip/STM32F4xx_StdPeriph_Driver/src/stm32f4xx_flash.c ****   *    
 327:lib/chip/STM32F4xx_StdPeriph_Driver/src/stm32f4xx_flash.c ****   * @param  VoltageRange: The device voltage range which defines the erase parallelism.  
 328:lib/chip/STM32F4xx_StdPeriph_Driver/src/stm32f4xx_flash.c ****   *          This parameter can be one of the following values:
 329:lib/chip/STM32F4xx_StdPeriph_Driver/src/stm32f4xx_flash.c ****   *            @arg VoltageRange_1: when the device voltage range is 1.8V to 2.1V, 
 330:lib/chip/STM32F4xx_StdPeriph_Driver/src/stm32f4xx_flash.c ****   *                                  the operation will be done by byte (8-bit) 
 331:lib/chip/STM32F4xx_StdPeriph_Driver/src/stm32f4xx_flash.c ****   *            @arg VoltageRange_2: when the device voltage range is 2.1V to 2.7V,
 332:lib/chip/STM32F4xx_StdPeriph_Driver/src/stm32f4xx_flash.c ****   *                                  the operation will be done by half word (16-bit)
 333:lib/chip/STM32F4xx_StdPeriph_Driver/src/stm32f4xx_flash.c ****   *            @arg VoltageRange_3: when the device voltage range is 2.7V to 3.6V,
 334:lib/chip/STM32F4xx_StdPeriph_Driver/src/stm32f4xx_flash.c ****   *                                  the operation will be done by word (32-bit)
 335:lib/chip/STM32F4xx_StdPeriph_Driver/src/stm32f4xx_flash.c ****   *            @arg VoltageRange_4: when the device voltage range is 2.7V to 3.6V + External Vpp, 
 336:lib/chip/STM32F4xx_StdPeriph_Driver/src/stm32f4xx_flash.c ****   *                                  the operation will be done by double word (64-bit)
 337:lib/chip/STM32F4xx_StdPeriph_Driver/src/stm32f4xx_flash.c ****   *       
 338:lib/chip/STM32F4xx_StdPeriph_Driver/src/stm32f4xx_flash.c ****   * @retval FLASH Status: The returned value can be: FLASH_BUSY, FLASH_ERROR_PROGRAM,
 339:lib/chip/STM32F4xx_StdPeriph_Driver/src/stm32f4xx_flash.c ****   *                       FLASH_ERROR_WRP, FLASH_ERROR_OPERATION or FLASH_COMPLETE.
 340:lib/chip/STM32F4xx_StdPeriph_Driver/src/stm32f4xx_flash.c ****   */
 341:lib/chip/STM32F4xx_StdPeriph_Driver/src/stm32f4xx_flash.c **** FLASH_Status FLASH_EraseSector(uint32_t FLASH_Sector, uint8_t VoltageRange)
 342:lib/chip/STM32F4xx_StdPeriph_Driver/src/stm32f4xx_flash.c **** {
 464              		.loc 1 342 0
 465              		.cfi_startproc
 466              		@ args = 0, pretend = 0, frame = 16
 467              		@ frame_needed = 1, uses_anonymous_args = 0
 468 0000 80B5     		push	{r7, lr}
 469              	.LCFI20:
 470              		.cfi_def_cfa_offset 8
 471              		.cfi_offset 7, -8
 472              		.cfi_offset 14, -4
 473 0002 84B0     		sub	sp, sp, #16
 474              	.LCFI21:
 475              		.cfi_def_cfa_offset 24
 476 0004 00AF     		add	r7, sp, #0
 477              	.LCFI22:
 478              		.cfi_def_cfa_register 7
 479 0006 7860     		str	r0, [r7, #4]
 480 0008 0B46     		mov	r3, r1
 481 000a FB70     		strb	r3, [r7, #3]
 343:lib/chip/STM32F4xx_StdPeriph_Driver/src/stm32f4xx_flash.c ****   uint32_t tmp_psize = 0x0;
 482              		.loc 1 343 0
 483 000c 0023     		movs	r3, #0
 484 000e FB60     		str	r3, [r7, #12]
 344:lib/chip/STM32F4xx_StdPeriph_Driver/src/stm32f4xx_flash.c ****   FLASH_Status status = FLASH_COMPLETE;
 485              		.loc 1 344 0
 486 0010 0823     		movs	r3, #8
 487 0012 FB72     		strb	r3, [r7, #11]
 345:lib/chip/STM32F4xx_StdPeriph_Driver/src/stm32f4xx_flash.c **** 
 346:lib/chip/STM32F4xx_StdPeriph_Driver/src/stm32f4xx_flash.c ****   /* Check the parameters */
 347:lib/chip/STM32F4xx_StdPeriph_Driver/src/stm32f4xx_flash.c ****   assert_param(IS_FLASH_SECTOR(FLASH_Sector));
 488              		.loc 1 347 0
 489 0014 7B68     		ldr	r3, [r7, #4]
 490 0016 002B     		cmp	r3, #0
 491 0018 28D0     		beq	.L21
 492              		.loc 1 347 0 is_stmt 0 discriminator 1
 493 001a 7B68     		ldr	r3, [r7, #4]
 494 001c 082B     		cmp	r3, #8
 495 001e 25D0     		beq	.L21
 496 0020 7B68     		ldr	r3, [r7, #4]
 497 0022 102B     		cmp	r3, #16
 498 0024 22D0     		beq	.L21
 499 0026 7B68     		ldr	r3, [r7, #4]
 500 0028 182B     		cmp	r3, #24
 501 002a 1FD0     		beq	.L21
 502 002c 7B68     		ldr	r3, [r7, #4]
 503 002e 202B     		cmp	r3, #32
 504 0030 1CD0     		beq	.L21
 505 0032 7B68     		ldr	r3, [r7, #4]
 506 0034 282B     		cmp	r3, #40
 507 0036 19D0     		beq	.L21
 508 0038 7B68     		ldr	r3, [r7, #4]
 509 003a 302B     		cmp	r3, #48
 510 003c 16D0     		beq	.L21
 511 003e 7B68     		ldr	r3, [r7, #4]
 512 0040 382B     		cmp	r3, #56
 513 0042 13D0     		beq	.L21
 514 0044 7B68     		ldr	r3, [r7, #4]
 515 0046 402B     		cmp	r3, #64
 516 0048 10D0     		beq	.L21
 517 004a 7B68     		ldr	r3, [r7, #4]
 518 004c 482B     		cmp	r3, #72
 519 004e 0DD0     		beq	.L21
 520 0050 7B68     		ldr	r3, [r7, #4]
 521 0052 502B     		cmp	r3, #80
 522 0054 0AD0     		beq	.L21
 523 0056 7B68     		ldr	r3, [r7, #4]
 524 0058 582B     		cmp	r3, #88
 525 005a 07D0     		beq	.L21
 526 005c 40F20000 		movw	r0, #:lower16:.LC0
 527 0060 C0F20000 		movt	r0, #:upper16:.LC0
 528 0064 40F25B11 		movw	r1, #347
 529 0068 FFF7FEFF 		bl	assert_failed
 530              	.L21:
 348:lib/chip/STM32F4xx_StdPeriph_Driver/src/stm32f4xx_flash.c ****   assert_param(IS_VOLTAGERANGE(VoltageRange));
 531              		.loc 1 348 0 is_stmt 1
 532 006c FB78     		ldrb	r3, [r7, #3]	@ zero_extendqisi2
 533 006e 002B     		cmp	r3, #0
 534 0070 10D0     		beq	.L22
 535              		.loc 1 348 0 is_stmt 0 discriminator 1
 536 0072 FB78     		ldrb	r3, [r7, #3]	@ zero_extendqisi2
 537 0074 012B     		cmp	r3, #1
 538 0076 0DD0     		beq	.L22
 539 0078 FB78     		ldrb	r3, [r7, #3]	@ zero_extendqisi2
 540 007a 022B     		cmp	r3, #2
 541 007c 0AD0     		beq	.L22
 542 007e FB78     		ldrb	r3, [r7, #3]	@ zero_extendqisi2
 543 0080 032B     		cmp	r3, #3
 544 0082 07D0     		beq	.L22
 545 0084 40F20000 		movw	r0, #:lower16:.LC0
 546 0088 C0F20000 		movt	r0, #:upper16:.LC0
 547 008c 4FF4AE71 		mov	r1, #348
 548 0090 FFF7FEFF 		bl	assert_failed
 549              	.L22:
 349:lib/chip/STM32F4xx_StdPeriph_Driver/src/stm32f4xx_flash.c ****   
 350:lib/chip/STM32F4xx_StdPeriph_Driver/src/stm32f4xx_flash.c ****   if(VoltageRange == VoltageRange_1)
 550              		.loc 1 350 0 is_stmt 1
 551 0094 FB78     		ldrb	r3, [r7, #3]	@ zero_extendqisi2
 552 0096 002B     		cmp	r3, #0
 553 0098 02D1     		bne	.L23
 351:lib/chip/STM32F4xx_StdPeriph_Driver/src/stm32f4xx_flash.c ****   {
 352:lib/chip/STM32F4xx_StdPeriph_Driver/src/stm32f4xx_flash.c ****      tmp_psize = FLASH_PSIZE_BYTE;
 554              		.loc 1 352 0
 555 009a 0023     		movs	r3, #0
 556 009c FB60     		str	r3, [r7, #12]
 557 009e 10E0     		b	.L24
 558              	.L23:
 353:lib/chip/STM32F4xx_StdPeriph_Driver/src/stm32f4xx_flash.c ****   }
 354:lib/chip/STM32F4xx_StdPeriph_Driver/src/stm32f4xx_flash.c ****   else if(VoltageRange == VoltageRange_2)
 559              		.loc 1 354 0
 560 00a0 FB78     		ldrb	r3, [r7, #3]	@ zero_extendqisi2
 561 00a2 012B     		cmp	r3, #1
 562 00a4 03D1     		bne	.L25
 355:lib/chip/STM32F4xx_StdPeriph_Driver/src/stm32f4xx_flash.c ****   {
 356:lib/chip/STM32F4xx_StdPeriph_Driver/src/stm32f4xx_flash.c ****     tmp_psize = FLASH_PSIZE_HALF_WORD;
 563              		.loc 1 356 0
 564 00a6 4FF48073 		mov	r3, #256
 565 00aa FB60     		str	r3, [r7, #12]
 566 00ac 09E0     		b	.L24
 567              	.L25:
 357:lib/chip/STM32F4xx_StdPeriph_Driver/src/stm32f4xx_flash.c ****   }
 358:lib/chip/STM32F4xx_StdPeriph_Driver/src/stm32f4xx_flash.c ****   else if(VoltageRange == VoltageRange_3)
 568              		.loc 1 358 0
 569 00ae FB78     		ldrb	r3, [r7, #3]	@ zero_extendqisi2
 570 00b0 022B     		cmp	r3, #2
 571 00b2 03D1     		bne	.L26
 359:lib/chip/STM32F4xx_StdPeriph_Driver/src/stm32f4xx_flash.c ****   {
 360:lib/chip/STM32F4xx_StdPeriph_Driver/src/stm32f4xx_flash.c ****     tmp_psize = FLASH_PSIZE_WORD;
 572              		.loc 1 360 0
 573 00b4 4FF40073 		mov	r3, #512
 574 00b8 FB60     		str	r3, [r7, #12]
 575 00ba 02E0     		b	.L24
 576              	.L26:
 361:lib/chip/STM32F4xx_StdPeriph_Driver/src/stm32f4xx_flash.c ****   }
 362:lib/chip/STM32F4xx_StdPeriph_Driver/src/stm32f4xx_flash.c ****   else
 363:lib/chip/STM32F4xx_StdPeriph_Driver/src/stm32f4xx_flash.c ****   {
 364:lib/chip/STM32F4xx_StdPeriph_Driver/src/stm32f4xx_flash.c ****     tmp_psize = FLASH_PSIZE_DOUBLE_WORD;
 577              		.loc 1 364 0
 578 00bc 4FF44073 		mov	r3, #768
 579 00c0 FB60     		str	r3, [r7, #12]
 580              	.L24:
 365:lib/chip/STM32F4xx_StdPeriph_Driver/src/stm32f4xx_flash.c ****   }
 366:lib/chip/STM32F4xx_StdPeriph_Driver/src/stm32f4xx_flash.c ****   /* Wait for last operation to be completed */
 367:lib/chip/STM32F4xx_StdPeriph_Driver/src/stm32f4xx_flash.c ****   status = FLASH_WaitForLastOperation();
 581              		.loc 1 367 0
 582 00c2 FFF7FEFF 		bl	FLASH_WaitForLastOperation
 583 00c6 0346     		mov	r3, r0
 584 00c8 FB72     		strb	r3, [r7, #11]
 368:lib/chip/STM32F4xx_StdPeriph_Driver/src/stm32f4xx_flash.c ****   
 369:lib/chip/STM32F4xx_StdPeriph_Driver/src/stm32f4xx_flash.c ****   if(status == FLASH_COMPLETE)
 585              		.loc 1 369 0
 586 00ca FB7A     		ldrb	r3, [r7, #11]	@ zero_extendqisi2
 587 00cc 082B     		cmp	r3, #8
 588 00ce 59D1     		bne	.L27
 370:lib/chip/STM32F4xx_StdPeriph_Driver/src/stm32f4xx_flash.c ****   { 
 371:lib/chip/STM32F4xx_StdPeriph_Driver/src/stm32f4xx_flash.c ****     /* if the previous operation is completed, proceed to erase the sector */
 372:lib/chip/STM32F4xx_StdPeriph_Driver/src/stm32f4xx_flash.c ****     FLASH->CR &= CR_PSIZE_MASK;
 589              		.loc 1 372 0
 590 00d0 4FF47053 		mov	r3, #15360
 591 00d4 C4F20203 		movt	r3, 16386
 592 00d8 4FF47052 		mov	r2, #15360
 593 00dc C4F20202 		movt	r2, 16386
 594 00e0 1269     		ldr	r2, [r2, #16]
 595 00e2 22F44072 		bic	r2, r2, #768
 596 00e6 1A61     		str	r2, [r3, #16]
 373:lib/chip/STM32F4xx_StdPeriph_Driver/src/stm32f4xx_flash.c ****     FLASH->CR |= tmp_psize;
 597              		.loc 1 373 0
 598 00e8 4FF47053 		mov	r3, #15360
 599 00ec C4F20203 		movt	r3, 16386
 600 00f0 4FF47052 		mov	r2, #15360
 601 00f4 C4F20202 		movt	r2, 16386
 602 00f8 1169     		ldr	r1, [r2, #16]
 603 00fa FA68     		ldr	r2, [r7, #12]
 604 00fc 0A43     		orrs	r2, r2, r1
 605 00fe 1A61     		str	r2, [r3, #16]
 374:lib/chip/STM32F4xx_StdPeriph_Driver/src/stm32f4xx_flash.c ****     FLASH->CR &= SECTOR_MASK;
 606              		.loc 1 374 0
 607 0100 4FF47053 		mov	r3, #15360
 608 0104 C4F20203 		movt	r3, 16386
 609 0108 4FF47052 		mov	r2, #15360
 610 010c C4F20202 		movt	r2, 16386
 611 0110 1269     		ldr	r2, [r2, #16]
 612 0112 22F0F802 		bic	r2, r2, #248
 613 0116 1A61     		str	r2, [r3, #16]
 375:lib/chip/STM32F4xx_StdPeriph_Driver/src/stm32f4xx_flash.c ****     FLASH->CR |= FLASH_CR_SER | FLASH_Sector;
 614              		.loc 1 375 0
 615 0118 4FF47053 		mov	r3, #15360
 616 011c C4F20203 		movt	r3, 16386
 617 0120 4FF47052 		mov	r2, #15360
 618 0124 C4F20202 		movt	r2, 16386
 619 0128 1169     		ldr	r1, [r2, #16]
 620 012a 7A68     		ldr	r2, [r7, #4]
 621 012c 0A43     		orrs	r2, r2, r1
 622 012e 42F00202 		orr	r2, r2, #2
 623 0132 1A61     		str	r2, [r3, #16]
 376:lib/chip/STM32F4xx_StdPeriph_Driver/src/stm32f4xx_flash.c ****     FLASH->CR |= FLASH_CR_STRT;
 624              		.loc 1 376 0
 625 0134 4FF47053 		mov	r3, #15360
 626 0138 C4F20203 		movt	r3, 16386
 627 013c 4FF47052 		mov	r2, #15360
 628 0140 C4F20202 		movt	r2, 16386
 629 0144 1269     		ldr	r2, [r2, #16]
 630 0146 42F48032 		orr	r2, r2, #65536
 631 014a 1A61     		str	r2, [r3, #16]
 377:lib/chip/STM32F4xx_StdPeriph_Driver/src/stm32f4xx_flash.c ****     
 378:lib/chip/STM32F4xx_StdPeriph_Driver/src/stm32f4xx_flash.c ****     /* Wait for last operation to be completed */
 379:lib/chip/STM32F4xx_StdPeriph_Driver/src/stm32f4xx_flash.c ****     status = FLASH_WaitForLastOperation();
 632              		.loc 1 379 0
 633 014c FFF7FEFF 		bl	FLASH_WaitForLastOperation
 634 0150 0346     		mov	r3, r0
 635 0152 FB72     		strb	r3, [r7, #11]
 380:lib/chip/STM32F4xx_StdPeriph_Driver/src/stm32f4xx_flash.c ****     
 381:lib/chip/STM32F4xx_StdPeriph_Driver/src/stm32f4xx_flash.c ****     /* if the erase operation is completed, disable the SER Bit */
 382:lib/chip/STM32F4xx_StdPeriph_Driver/src/stm32f4xx_flash.c ****     FLASH->CR &= (~FLASH_CR_SER);
 636              		.loc 1 382 0
 637 0154 4FF47053 		mov	r3, #15360
 638 0158 C4F20203 		movt	r3, 16386
 639 015c 4FF47052 		mov	r2, #15360
 640 0160 C4F20202 		movt	r2, 16386
 641 0164 1269     		ldr	r2, [r2, #16]
 642 0166 22F00202 		bic	r2, r2, #2
 643 016a 1A61     		str	r2, [r3, #16]
 383:lib/chip/STM32F4xx_StdPeriph_Driver/src/stm32f4xx_flash.c ****     FLASH->CR &= SECTOR_MASK; 
 644              		.loc 1 383 0
 645 016c 4FF47053 		mov	r3, #15360
 646 0170 C4F20203 		movt	r3, 16386
 647 0174 4FF47052 		mov	r2, #15360
 648 0178 C4F20202 		movt	r2, 16386
 649 017c 1269     		ldr	r2, [r2, #16]
 650 017e 22F0F802 		bic	r2, r2, #248
 651 0182 1A61     		str	r2, [r3, #16]
 652              	.L27:
 384:lib/chip/STM32F4xx_StdPeriph_Driver/src/stm32f4xx_flash.c ****   }
 385:lib/chip/STM32F4xx_StdPeriph_Driver/src/stm32f4xx_flash.c ****   /* Return the Erase Status */
 386:lib/chip/STM32F4xx_StdPeriph_Driver/src/stm32f4xx_flash.c ****   return status;
 653              		.loc 1 386 0
 654 0184 FB7A     		ldrb	r3, [r7, #11]	@ zero_extendqisi2
 387:lib/chip/STM32F4xx_StdPeriph_Driver/src/stm32f4xx_flash.c **** }
 655              		.loc 1 387 0
 656 0186 1846     		mov	r0, r3
 657 0188 1037     		adds	r7, r7, #16
 658 018a BD46     		mov	sp, r7
 659              		@ sp needed
 660 018c 80BD     		pop	{r7, pc}
 661              		.cfi_endproc
 662              	.LFE118:
 664 018e 00BF     		.section	.text.FLASH_EraseAllSectors,"ax",%progbits
 665              		.align	2
 666              		.global	FLASH_EraseAllSectors
 667              		.thumb
 668              		.thumb_func
 670              	FLASH_EraseAllSectors:
 671              	.LFB119:
 388:lib/chip/STM32F4xx_StdPeriph_Driver/src/stm32f4xx_flash.c **** 
 389:lib/chip/STM32F4xx_StdPeriph_Driver/src/stm32f4xx_flash.c **** /**
 390:lib/chip/STM32F4xx_StdPeriph_Driver/src/stm32f4xx_flash.c ****   * @brief  Erases all FLASH Sectors.
 391:lib/chip/STM32F4xx_StdPeriph_Driver/src/stm32f4xx_flash.c ****   *    
 392:lib/chip/STM32F4xx_StdPeriph_Driver/src/stm32f4xx_flash.c ****   * @param  VoltageRange: The device voltage range which defines the erase parallelism.  
 393:lib/chip/STM32F4xx_StdPeriph_Driver/src/stm32f4xx_flash.c ****   *          This parameter can be one of the following values:
 394:lib/chip/STM32F4xx_StdPeriph_Driver/src/stm32f4xx_flash.c ****   *            @arg VoltageRange_1: when the device voltage range is 1.8V to 2.1V, 
 395:lib/chip/STM32F4xx_StdPeriph_Driver/src/stm32f4xx_flash.c ****   *                                  the operation will be done by byte (8-bit) 
 396:lib/chip/STM32F4xx_StdPeriph_Driver/src/stm32f4xx_flash.c ****   *            @arg VoltageRange_2: when the device voltage range is 2.1V to 2.7V,
 397:lib/chip/STM32F4xx_StdPeriph_Driver/src/stm32f4xx_flash.c ****   *                                  the operation will be done by half word (16-bit)
 398:lib/chip/STM32F4xx_StdPeriph_Driver/src/stm32f4xx_flash.c ****   *            @arg VoltageRange_3: when the device voltage range is 2.7V to 3.6V,
 399:lib/chip/STM32F4xx_StdPeriph_Driver/src/stm32f4xx_flash.c ****   *                                  the operation will be done by word (32-bit)
 400:lib/chip/STM32F4xx_StdPeriph_Driver/src/stm32f4xx_flash.c ****   *            @arg VoltageRange_4: when the device voltage range is 2.7V to 3.6V + External Vpp, 
 401:lib/chip/STM32F4xx_StdPeriph_Driver/src/stm32f4xx_flash.c ****   *                                  the operation will be done by double word (64-bit)
 402:lib/chip/STM32F4xx_StdPeriph_Driver/src/stm32f4xx_flash.c ****   *       
 403:lib/chip/STM32F4xx_StdPeriph_Driver/src/stm32f4xx_flash.c ****   * @retval FLASH Status: The returned value can be: FLASH_BUSY, FLASH_ERROR_PROGRAM,
 404:lib/chip/STM32F4xx_StdPeriph_Driver/src/stm32f4xx_flash.c ****   *                       FLASH_ERROR_WRP, FLASH_ERROR_OPERATION or FLASH_COMPLETE.
 405:lib/chip/STM32F4xx_StdPeriph_Driver/src/stm32f4xx_flash.c ****   */
 406:lib/chip/STM32F4xx_StdPeriph_Driver/src/stm32f4xx_flash.c **** FLASH_Status FLASH_EraseAllSectors(uint8_t VoltageRange)
 407:lib/chip/STM32F4xx_StdPeriph_Driver/src/stm32f4xx_flash.c **** {
 672              		.loc 1 407 0
 673              		.cfi_startproc
 674              		@ args = 0, pretend = 0, frame = 16
 675              		@ frame_needed = 1, uses_anonymous_args = 0
 676 0000 80B5     		push	{r7, lr}
 677              	.LCFI23:
 678              		.cfi_def_cfa_offset 8
 679              		.cfi_offset 7, -8
 680              		.cfi_offset 14, -4
 681 0002 84B0     		sub	sp, sp, #16
 682              	.LCFI24:
 683              		.cfi_def_cfa_offset 24
 684 0004 00AF     		add	r7, sp, #0
 685              	.LCFI25:
 686              		.cfi_def_cfa_register 7
 687 0006 0346     		mov	r3, r0
 688 0008 FB71     		strb	r3, [r7, #7]
 408:lib/chip/STM32F4xx_StdPeriph_Driver/src/stm32f4xx_flash.c ****   uint32_t tmp_psize = 0x0;
 689              		.loc 1 408 0
 690 000a 0023     		movs	r3, #0
 691 000c FB60     		str	r3, [r7, #12]
 409:lib/chip/STM32F4xx_StdPeriph_Driver/src/stm32f4xx_flash.c ****   FLASH_Status status = FLASH_COMPLETE;
 692              		.loc 1 409 0
 693 000e 0823     		movs	r3, #8
 694 0010 FB72     		strb	r3, [r7, #11]
 410:lib/chip/STM32F4xx_StdPeriph_Driver/src/stm32f4xx_flash.c ****   
 411:lib/chip/STM32F4xx_StdPeriph_Driver/src/stm32f4xx_flash.c ****   /* Wait for last operation to be completed */
 412:lib/chip/STM32F4xx_StdPeriph_Driver/src/stm32f4xx_flash.c ****   status = FLASH_WaitForLastOperation();
 695              		.loc 1 412 0
 696 0012 FFF7FEFF 		bl	FLASH_WaitForLastOperation
 697 0016 0346     		mov	r3, r0
 698 0018 FB72     		strb	r3, [r7, #11]
 413:lib/chip/STM32F4xx_StdPeriph_Driver/src/stm32f4xx_flash.c ****   assert_param(IS_VOLTAGERANGE(VoltageRange));
 699              		.loc 1 413 0
 700 001a FB79     		ldrb	r3, [r7, #7]	@ zero_extendqisi2
 701 001c 002B     		cmp	r3, #0
 702 001e 10D0     		beq	.L30
 703              		.loc 1 413 0 is_stmt 0 discriminator 1
 704 0020 FB79     		ldrb	r3, [r7, #7]	@ zero_extendqisi2
 705 0022 012B     		cmp	r3, #1
 706 0024 0DD0     		beq	.L30
 707 0026 FB79     		ldrb	r3, [r7, #7]	@ zero_extendqisi2
 708 0028 022B     		cmp	r3, #2
 709 002a 0AD0     		beq	.L30
 710 002c FB79     		ldrb	r3, [r7, #7]	@ zero_extendqisi2
 711 002e 032B     		cmp	r3, #3
 712 0030 07D0     		beq	.L30
 713 0032 40F20000 		movw	r0, #:lower16:.LC0
 714 0036 C0F20000 		movt	r0, #:upper16:.LC0
 715 003a 40F29D11 		movw	r1, #413
 716 003e FFF7FEFF 		bl	assert_failed
 717              	.L30:
 414:lib/chip/STM32F4xx_StdPeriph_Driver/src/stm32f4xx_flash.c ****   
 415:lib/chip/STM32F4xx_StdPeriph_Driver/src/stm32f4xx_flash.c ****   if(VoltageRange == VoltageRange_1)
 718              		.loc 1 415 0 is_stmt 1
 719 0042 FB79     		ldrb	r3, [r7, #7]	@ zero_extendqisi2
 720 0044 002B     		cmp	r3, #0
 721 0046 02D1     		bne	.L31
 416:lib/chip/STM32F4xx_StdPeriph_Driver/src/stm32f4xx_flash.c ****   {
 417:lib/chip/STM32F4xx_StdPeriph_Driver/src/stm32f4xx_flash.c ****      tmp_psize = FLASH_PSIZE_BYTE;
 722              		.loc 1 417 0
 723 0048 0023     		movs	r3, #0
 724 004a FB60     		str	r3, [r7, #12]
 725 004c 10E0     		b	.L32
 726              	.L31:
 418:lib/chip/STM32F4xx_StdPeriph_Driver/src/stm32f4xx_flash.c ****   }
 419:lib/chip/STM32F4xx_StdPeriph_Driver/src/stm32f4xx_flash.c ****   else if(VoltageRange == VoltageRange_2)
 727              		.loc 1 419 0
 728 004e FB79     		ldrb	r3, [r7, #7]	@ zero_extendqisi2
 729 0050 012B     		cmp	r3, #1
 730 0052 03D1     		bne	.L33
 420:lib/chip/STM32F4xx_StdPeriph_Driver/src/stm32f4xx_flash.c ****   {
 421:lib/chip/STM32F4xx_StdPeriph_Driver/src/stm32f4xx_flash.c ****     tmp_psize = FLASH_PSIZE_HALF_WORD;
 731              		.loc 1 421 0
 732 0054 4FF48073 		mov	r3, #256
 733 0058 FB60     		str	r3, [r7, #12]
 734 005a 09E0     		b	.L32
 735              	.L33:
 422:lib/chip/STM32F4xx_StdPeriph_Driver/src/stm32f4xx_flash.c ****   }
 423:lib/chip/STM32F4xx_StdPeriph_Driver/src/stm32f4xx_flash.c ****   else if(VoltageRange == VoltageRange_3)
 736              		.loc 1 423 0
 737 005c FB79     		ldrb	r3, [r7, #7]	@ zero_extendqisi2
 738 005e 022B     		cmp	r3, #2
 739 0060 03D1     		bne	.L34
 424:lib/chip/STM32F4xx_StdPeriph_Driver/src/stm32f4xx_flash.c ****   {
 425:lib/chip/STM32F4xx_StdPeriph_Driver/src/stm32f4xx_flash.c ****     tmp_psize = FLASH_PSIZE_WORD;
 740              		.loc 1 425 0
 741 0062 4FF40073 		mov	r3, #512
 742 0066 FB60     		str	r3, [r7, #12]
 743 0068 02E0     		b	.L32
 744              	.L34:
 426:lib/chip/STM32F4xx_StdPeriph_Driver/src/stm32f4xx_flash.c ****   }
 427:lib/chip/STM32F4xx_StdPeriph_Driver/src/stm32f4xx_flash.c ****   else
 428:lib/chip/STM32F4xx_StdPeriph_Driver/src/stm32f4xx_flash.c ****   {
 429:lib/chip/STM32F4xx_StdPeriph_Driver/src/stm32f4xx_flash.c ****     tmp_psize = FLASH_PSIZE_DOUBLE_WORD;
 745              		.loc 1 429 0
 746 006a 4FF44073 		mov	r3, #768
 747 006e FB60     		str	r3, [r7, #12]
 748              	.L32:
 430:lib/chip/STM32F4xx_StdPeriph_Driver/src/stm32f4xx_flash.c ****   }  
 431:lib/chip/STM32F4xx_StdPeriph_Driver/src/stm32f4xx_flash.c ****   if(status == FLASH_COMPLETE)
 749              		.loc 1 431 0
 750 0070 FB7A     		ldrb	r3, [r7, #11]	@ zero_extendqisi2
 751 0072 082B     		cmp	r3, #8
 752 0074 3FD1     		bne	.L35
 432:lib/chip/STM32F4xx_StdPeriph_Driver/src/stm32f4xx_flash.c ****   {
 433:lib/chip/STM32F4xx_StdPeriph_Driver/src/stm32f4xx_flash.c ****     /* if the previous operation is completed, proceed to erase all sectors */
 434:lib/chip/STM32F4xx_StdPeriph_Driver/src/stm32f4xx_flash.c ****      FLASH->CR &= CR_PSIZE_MASK;
 753              		.loc 1 434 0
 754 0076 4FF47053 		mov	r3, #15360
 755 007a C4F20203 		movt	r3, 16386
 756 007e 4FF47052 		mov	r2, #15360
 757 0082 C4F20202 		movt	r2, 16386
 758 0086 1269     		ldr	r2, [r2, #16]
 759 0088 22F44072 		bic	r2, r2, #768
 760 008c 1A61     		str	r2, [r3, #16]
 435:lib/chip/STM32F4xx_StdPeriph_Driver/src/stm32f4xx_flash.c ****      FLASH->CR |= tmp_psize;
 761              		.loc 1 435 0
 762 008e 4FF47053 		mov	r3, #15360
 763 0092 C4F20203 		movt	r3, 16386
 764 0096 4FF47052 		mov	r2, #15360
 765 009a C4F20202 		movt	r2, 16386
 766 009e 1169     		ldr	r1, [r2, #16]
 767 00a0 FA68     		ldr	r2, [r7, #12]
 768 00a2 0A43     		orrs	r2, r2, r1
 769 00a4 1A61     		str	r2, [r3, #16]
 436:lib/chip/STM32F4xx_StdPeriph_Driver/src/stm32f4xx_flash.c ****      FLASH->CR |= FLASH_CR_MER;
 770              		.loc 1 436 0
 771 00a6 4FF47053 		mov	r3, #15360
 772 00aa C4F20203 		movt	r3, 16386
 773 00ae 4FF47052 		mov	r2, #15360
 774 00b2 C4F20202 		movt	r2, 16386
 775 00b6 1269     		ldr	r2, [r2, #16]
 776 00b8 42F00402 		orr	r2, r2, #4
 777 00bc 1A61     		str	r2, [r3, #16]
 437:lib/chip/STM32F4xx_StdPeriph_Driver/src/stm32f4xx_flash.c ****      FLASH->CR |= FLASH_CR_STRT;
 778              		.loc 1 437 0
 779 00be 4FF47053 		mov	r3, #15360
 780 00c2 C4F20203 		movt	r3, 16386
 781 00c6 4FF47052 		mov	r2, #15360
 782 00ca C4F20202 		movt	r2, 16386
 783 00ce 1269     		ldr	r2, [r2, #16]
 784 00d0 42F48032 		orr	r2, r2, #65536
 785 00d4 1A61     		str	r2, [r3, #16]
 438:lib/chip/STM32F4xx_StdPeriph_Driver/src/stm32f4xx_flash.c ****     
 439:lib/chip/STM32F4xx_StdPeriph_Driver/src/stm32f4xx_flash.c ****     /* Wait for last operation to be completed */
 440:lib/chip/STM32F4xx_StdPeriph_Driver/src/stm32f4xx_flash.c ****     status = FLASH_WaitForLastOperation();
 786              		.loc 1 440 0
 787 00d6 FFF7FEFF 		bl	FLASH_WaitForLastOperation
 788 00da 0346     		mov	r3, r0
 789 00dc FB72     		strb	r3, [r7, #11]
 441:lib/chip/STM32F4xx_StdPeriph_Driver/src/stm32f4xx_flash.c **** 
 442:lib/chip/STM32F4xx_StdPeriph_Driver/src/stm32f4xx_flash.c ****     /* if the erase operation is completed, disable the MER Bit */
 443:lib/chip/STM32F4xx_StdPeriph_Driver/src/stm32f4xx_flash.c ****     FLASH->CR &= (~FLASH_CR_MER);
 790              		.loc 1 443 0
 791 00de 4FF47053 		mov	r3, #15360
 792 00e2 C4F20203 		movt	r3, 16386
 793 00e6 4FF47052 		mov	r2, #15360
 794 00ea C4F20202 		movt	r2, 16386
 795 00ee 1269     		ldr	r2, [r2, #16]
 796 00f0 22F00402 		bic	r2, r2, #4
 797 00f4 1A61     		str	r2, [r3, #16]
 798              	.L35:
 444:lib/chip/STM32F4xx_StdPeriph_Driver/src/stm32f4xx_flash.c **** 
 445:lib/chip/STM32F4xx_StdPeriph_Driver/src/stm32f4xx_flash.c ****   }   
 446:lib/chip/STM32F4xx_StdPeriph_Driver/src/stm32f4xx_flash.c ****   /* Return the Erase Status */
 447:lib/chip/STM32F4xx_StdPeriph_Driver/src/stm32f4xx_flash.c ****   return status;
 799              		.loc 1 447 0
 800 00f6 FB7A     		ldrb	r3, [r7, #11]	@ zero_extendqisi2
 448:lib/chip/STM32F4xx_StdPeriph_Driver/src/stm32f4xx_flash.c **** }
 801              		.loc 1 448 0
 802 00f8 1846     		mov	r0, r3
 803 00fa 1037     		adds	r7, r7, #16
 804 00fc BD46     		mov	sp, r7
 805              		@ sp needed
 806 00fe 80BD     		pop	{r7, pc}
 807              		.cfi_endproc
 808              	.LFE119:
 810              		.section	.text.FLASH_ProgramDoubleWord,"ax",%progbits
 811              		.align	2
 812              		.global	FLASH_ProgramDoubleWord
 813              		.thumb
 814              		.thumb_func
 816              	FLASH_ProgramDoubleWord:
 817              	.LFB120:
 449:lib/chip/STM32F4xx_StdPeriph_Driver/src/stm32f4xx_flash.c **** 
 450:lib/chip/STM32F4xx_StdPeriph_Driver/src/stm32f4xx_flash.c **** /**
 451:lib/chip/STM32F4xx_StdPeriph_Driver/src/stm32f4xx_flash.c ****   * @brief  Programs a double word (64-bit) at a specified address.
 452:lib/chip/STM32F4xx_StdPeriph_Driver/src/stm32f4xx_flash.c ****   * @note   This function must be used when the device voltage range is from
 453:lib/chip/STM32F4xx_StdPeriph_Driver/src/stm32f4xx_flash.c ****   *         2.7V to 3.6V and an External Vpp is present.           
 454:lib/chip/STM32F4xx_StdPeriph_Driver/src/stm32f4xx_flash.c ****   * @param  Address: specifies the address to be programmed.
 455:lib/chip/STM32F4xx_StdPeriph_Driver/src/stm32f4xx_flash.c ****   * @param  Data: specifies the data to be programmed.
 456:lib/chip/STM32F4xx_StdPeriph_Driver/src/stm32f4xx_flash.c ****   * @retval FLASH Status: The returned value can be: FLASH_BUSY, FLASH_ERROR_PROGRAM,
 457:lib/chip/STM32F4xx_StdPeriph_Driver/src/stm32f4xx_flash.c ****   *                       FLASH_ERROR_WRP, FLASH_ERROR_OPERATION or FLASH_COMPLETE.
 458:lib/chip/STM32F4xx_StdPeriph_Driver/src/stm32f4xx_flash.c ****   */
 459:lib/chip/STM32F4xx_StdPeriph_Driver/src/stm32f4xx_flash.c **** FLASH_Status FLASH_ProgramDoubleWord(uint32_t Address, uint64_t Data)
 460:lib/chip/STM32F4xx_StdPeriph_Driver/src/stm32f4xx_flash.c **** {
 818              		.loc 1 460 0
 819              		.cfi_startproc
 820              		@ args = 0, pretend = 0, frame = 24
 821              		@ frame_needed = 1, uses_anonymous_args = 0
 822 0000 80B5     		push	{r7, lr}
 823              	.LCFI26:
 824              		.cfi_def_cfa_offset 8
 825              		.cfi_offset 7, -8
 826              		.cfi_offset 14, -4
 827 0002 86B0     		sub	sp, sp, #24
 828              	.LCFI27:
 829              		.cfi_def_cfa_offset 32
 830 0004 00AF     		add	r7, sp, #0
 831              	.LCFI28:
 832              		.cfi_def_cfa_register 7
 833 0006 F860     		str	r0, [r7, #12]
 834 0008 C7E90023 		strd	r2, [r7]
 461:lib/chip/STM32F4xx_StdPeriph_Driver/src/stm32f4xx_flash.c ****   FLASH_Status status = FLASH_COMPLETE;
 835              		.loc 1 461 0
 836 000c 0823     		movs	r3, #8
 837 000e FB75     		strb	r3, [r7, #23]
 462:lib/chip/STM32F4xx_StdPeriph_Driver/src/stm32f4xx_flash.c **** 
 463:lib/chip/STM32F4xx_StdPeriph_Driver/src/stm32f4xx_flash.c ****   /* Check the parameters */
 464:lib/chip/STM32F4xx_StdPeriph_Driver/src/stm32f4xx_flash.c ****   assert_param(IS_FLASH_ADDRESS(Address));
 838              		.loc 1 464 0
 839 0010 FB68     		ldr	r3, [r7, #12]
 840 0012 B3F1006F 		cmp	r3, #134217728
 841 0016 06D3     		bcc	.L38
 842              		.loc 1 464 0 is_stmt 0 discriminator 2
 843 0018 FA68     		ldr	r2, [r7, #12]
 844 001a 4FF6FE73 		movw	r3, #65534
 845 001e C0F60F03 		movt	r3, 2063
 846 0022 9A42     		cmp	r2, r3
 847 0024 15D9     		bls	.L39
 848              	.L38:
 849              		.loc 1 464 0 discriminator 1
 850 0026 FA68     		ldr	r2, [r7, #12]
 851 0028 47F2FF73 		movw	r3, #30719
 852 002c C1F6FF73 		movt	r3, 8191
 853 0030 9A42     		cmp	r2, r3
 854 0032 06D9     		bls	.L40
 855              		.loc 1 464 0 discriminator 2
 856 0034 FA68     		ldr	r2, [r7, #12]
 857 0036 47F60E23 		movw	r3, #31246
 858 003a C1F6FF73 		movt	r3, 8191
 859 003e 9A42     		cmp	r2, r3
 860 0040 07D9     		bls	.L39
 861              	.L40:
 862              		.loc 1 464 0 discriminator 1
 863 0042 40F20000 		movw	r0, #:lower16:.LC0
 864 0046 C0F20000 		movt	r0, #:upper16:.LC0
 865 004a 4FF4E871 		mov	r1, #464
 866 004e FFF7FEFF 		bl	assert_failed
 867              	.L39:
 465:lib/chip/STM32F4xx_StdPeriph_Driver/src/stm32f4xx_flash.c **** 
 466:lib/chip/STM32F4xx_StdPeriph_Driver/src/stm32f4xx_flash.c ****   /* Wait for last operation to be completed */
 467:lib/chip/STM32F4xx_StdPeriph_Driver/src/stm32f4xx_flash.c ****   status = FLASH_WaitForLastOperation();
 868              		.loc 1 467 0 is_stmt 1
 869 0052 FFF7FEFF 		bl	FLASH_WaitForLastOperation
 870 0056 0346     		mov	r3, r0
 871 0058 FB75     		strb	r3, [r7, #23]
 468:lib/chip/STM32F4xx_StdPeriph_Driver/src/stm32f4xx_flash.c ****   
 469:lib/chip/STM32F4xx_StdPeriph_Driver/src/stm32f4xx_flash.c ****   if(status == FLASH_COMPLETE)
 872              		.loc 1 469 0
 873 005a FB7D     		ldrb	r3, [r7, #23]	@ zero_extendqisi2
 874 005c 082B     		cmp	r3, #8
 875 005e 38D1     		bne	.L41
 470:lib/chip/STM32F4xx_StdPeriph_Driver/src/stm32f4xx_flash.c ****   {
 471:lib/chip/STM32F4xx_StdPeriph_Driver/src/stm32f4xx_flash.c ****     /* if the previous operation is completed, proceed to program the new data */
 472:lib/chip/STM32F4xx_StdPeriph_Driver/src/stm32f4xx_flash.c ****     FLASH->CR &= CR_PSIZE_MASK;
 876              		.loc 1 472 0
 877 0060 4FF47053 		mov	r3, #15360
 878 0064 C4F20203 		movt	r3, 16386
 879 0068 4FF47052 		mov	r2, #15360
 880 006c C4F20202 		movt	r2, 16386
 881 0070 1269     		ldr	r2, [r2, #16]
 882 0072 22F44072 		bic	r2, r2, #768
 883 0076 1A61     		str	r2, [r3, #16]
 473:lib/chip/STM32F4xx_StdPeriph_Driver/src/stm32f4xx_flash.c ****     FLASH->CR |= FLASH_PSIZE_DOUBLE_WORD;
 884              		.loc 1 473 0
 885 0078 4FF47053 		mov	r3, #15360
 886 007c C4F20203 		movt	r3, 16386
 887 0080 4FF47052 		mov	r2, #15360
 888 0084 C4F20202 		movt	r2, 16386
 889 0088 1269     		ldr	r2, [r2, #16]
 890 008a 42F44072 		orr	r2, r2, #768
 891 008e 1A61     		str	r2, [r3, #16]
 474:lib/chip/STM32F4xx_StdPeriph_Driver/src/stm32f4xx_flash.c ****     FLASH->CR |= FLASH_CR_PG;
 892              		.loc 1 474 0
 893 0090 4FF47053 		mov	r3, #15360
 894 0094 C4F20203 		movt	r3, 16386
 895 0098 4FF47052 		mov	r2, #15360
 896 009c C4F20202 		movt	r2, 16386
 897 00a0 1269     		ldr	r2, [r2, #16]
 898 00a2 42F00102 		orr	r2, r2, #1
 899 00a6 1A61     		str	r2, [r3, #16]
 475:lib/chip/STM32F4xx_StdPeriph_Driver/src/stm32f4xx_flash.c ****   
 476:lib/chip/STM32F4xx_StdPeriph_Driver/src/stm32f4xx_flash.c ****     *(__IO uint64_t*)Address = Data;
 900              		.loc 1 476 0
 901 00a8 F968     		ldr	r1, [r7, #12]
 902 00aa D7E90023 		ldrd	r2, [r7]
 903 00ae C1E90023 		strd	r2, [r1]
 477:lib/chip/STM32F4xx_StdPeriph_Driver/src/stm32f4xx_flash.c ****         
 478:lib/chip/STM32F4xx_StdPeriph_Driver/src/stm32f4xx_flash.c ****     /* Wait for last operation to be completed */
 479:lib/chip/STM32F4xx_StdPeriph_Driver/src/stm32f4xx_flash.c ****     status = FLASH_WaitForLastOperation();
 904              		.loc 1 479 0
 905 00b2 FFF7FEFF 		bl	FLASH_WaitForLastOperation
 906 00b6 0346     		mov	r3, r0
 907 00b8 FB75     		strb	r3, [r7, #23]
 480:lib/chip/STM32F4xx_StdPeriph_Driver/src/stm32f4xx_flash.c **** 
 481:lib/chip/STM32F4xx_StdPeriph_Driver/src/stm32f4xx_flash.c ****     /* if the program operation is completed, disable the PG Bit */
 482:lib/chip/STM32F4xx_StdPeriph_Driver/src/stm32f4xx_flash.c ****     FLASH->CR &= (~FLASH_CR_PG);
 908              		.loc 1 482 0
 909 00ba 4FF47053 		mov	r3, #15360
 910 00be C4F20203 		movt	r3, 16386
 911 00c2 4FF47052 		mov	r2, #15360
 912 00c6 C4F20202 		movt	r2, 16386
 913 00ca 1269     		ldr	r2, [r2, #16]
 914 00cc 22F00102 		bic	r2, r2, #1
 915 00d0 1A61     		str	r2, [r3, #16]
 916              	.L41:
 483:lib/chip/STM32F4xx_StdPeriph_Driver/src/stm32f4xx_flash.c ****   } 
 484:lib/chip/STM32F4xx_StdPeriph_Driver/src/stm32f4xx_flash.c ****   /* Return the Program Status */
 485:lib/chip/STM32F4xx_StdPeriph_Driver/src/stm32f4xx_flash.c ****   return status;
 917              		.loc 1 485 0
 918 00d2 FB7D     		ldrb	r3, [r7, #23]	@ zero_extendqisi2
 486:lib/chip/STM32F4xx_StdPeriph_Driver/src/stm32f4xx_flash.c **** }
 919              		.loc 1 486 0
 920 00d4 1846     		mov	r0, r3
 921 00d6 1837     		adds	r7, r7, #24
 922 00d8 BD46     		mov	sp, r7
 923              		@ sp needed
 924 00da 80BD     		pop	{r7, pc}
 925              		.cfi_endproc
 926              	.LFE120:
 928              		.section	.text.FLASH_ProgramWord,"ax",%progbits
 929              		.align	2
 930              		.global	FLASH_ProgramWord
 931              		.thumb
 932              		.thumb_func
 934              	FLASH_ProgramWord:
 935              	.LFB121:
 487:lib/chip/STM32F4xx_StdPeriph_Driver/src/stm32f4xx_flash.c **** 
 488:lib/chip/STM32F4xx_StdPeriph_Driver/src/stm32f4xx_flash.c **** /**
 489:lib/chip/STM32F4xx_StdPeriph_Driver/src/stm32f4xx_flash.c ****   * @brief  Programs a word (32-bit) at a specified address.
 490:lib/chip/STM32F4xx_StdPeriph_Driver/src/stm32f4xx_flash.c ****   * @param  Address: specifies the address to be programmed.
 491:lib/chip/STM32F4xx_StdPeriph_Driver/src/stm32f4xx_flash.c ****   *         This parameter can be any address in Program memory zone or in OTP zone.  
 492:lib/chip/STM32F4xx_StdPeriph_Driver/src/stm32f4xx_flash.c ****   * @note   This function must be used when the device voltage range is from 2.7V to 3.6V. 
 493:lib/chip/STM32F4xx_StdPeriph_Driver/src/stm32f4xx_flash.c ****   * @param  Data: specifies the data to be programmed.
 494:lib/chip/STM32F4xx_StdPeriph_Driver/src/stm32f4xx_flash.c ****   * @retval FLASH Status: The returned value can be: FLASH_BUSY, FLASH_ERROR_PROGRAM,
 495:lib/chip/STM32F4xx_StdPeriph_Driver/src/stm32f4xx_flash.c ****   *                       FLASH_ERROR_WRP, FLASH_ERROR_OPERATION or FLASH_COMPLETE.
 496:lib/chip/STM32F4xx_StdPeriph_Driver/src/stm32f4xx_flash.c ****   */
 497:lib/chip/STM32F4xx_StdPeriph_Driver/src/stm32f4xx_flash.c **** FLASH_Status FLASH_ProgramWord(uint32_t Address, uint32_t Data)
 498:lib/chip/STM32F4xx_StdPeriph_Driver/src/stm32f4xx_flash.c **** {
 936              		.loc 1 498 0
 937              		.cfi_startproc
 938              		@ args = 0, pretend = 0, frame = 16
 939              		@ frame_needed = 1, uses_anonymous_args = 0
 940 0000 80B5     		push	{r7, lr}
 941              	.LCFI29:
 942              		.cfi_def_cfa_offset 8
 943              		.cfi_offset 7, -8
 944              		.cfi_offset 14, -4
 945 0002 84B0     		sub	sp, sp, #16
 946              	.LCFI30:
 947              		.cfi_def_cfa_offset 24
 948 0004 00AF     		add	r7, sp, #0
 949              	.LCFI31:
 950              		.cfi_def_cfa_register 7
 951 0006 7860     		str	r0, [r7, #4]
 952 0008 3960     		str	r1, [r7]
 499:lib/chip/STM32F4xx_StdPeriph_Driver/src/stm32f4xx_flash.c ****   FLASH_Status status = FLASH_COMPLETE;
 953              		.loc 1 499 0
 954 000a 0823     		movs	r3, #8
 955 000c FB73     		strb	r3, [r7, #15]
 500:lib/chip/STM32F4xx_StdPeriph_Driver/src/stm32f4xx_flash.c **** 
 501:lib/chip/STM32F4xx_StdPeriph_Driver/src/stm32f4xx_flash.c ****   /* Check the parameters */
 502:lib/chip/STM32F4xx_StdPeriph_Driver/src/stm32f4xx_flash.c ****   assert_param(IS_FLASH_ADDRESS(Address));
 956              		.loc 1 502 0
 957 000e 7B68     		ldr	r3, [r7, #4]
 958 0010 B3F1006F 		cmp	r3, #134217728
 959 0014 06D3     		bcc	.L44
 960              		.loc 1 502 0 is_stmt 0 discriminator 2
 961 0016 7A68     		ldr	r2, [r7, #4]
 962 0018 4FF6FE73 		movw	r3, #65534
 963 001c C0F60F03 		movt	r3, 2063
 964 0020 9A42     		cmp	r2, r3
 965 0022 15D9     		bls	.L45
 966              	.L44:
 967              		.loc 1 502 0 discriminator 1
 968 0024 7A68     		ldr	r2, [r7, #4]
 969 0026 47F2FF73 		movw	r3, #30719
 970 002a C1F6FF73 		movt	r3, 8191
 971 002e 9A42     		cmp	r2, r3
 972 0030 06D9     		bls	.L46
 973              		.loc 1 502 0 discriminator 2
 974 0032 7A68     		ldr	r2, [r7, #4]
 975 0034 47F60E23 		movw	r3, #31246
 976 0038 C1F6FF73 		movt	r3, 8191
 977 003c 9A42     		cmp	r2, r3
 978 003e 07D9     		bls	.L45
 979              	.L46:
 980              		.loc 1 502 0 discriminator 1
 981 0040 40F20000 		movw	r0, #:lower16:.LC0
 982 0044 C0F20000 		movt	r0, #:upper16:.LC0
 983 0048 4FF4FB71 		mov	r1, #502
 984 004c FFF7FEFF 		bl	assert_failed
 985              	.L45:
 503:lib/chip/STM32F4xx_StdPeriph_Driver/src/stm32f4xx_flash.c **** 
 504:lib/chip/STM32F4xx_StdPeriph_Driver/src/stm32f4xx_flash.c ****   /* Wait for last operation to be completed */
 505:lib/chip/STM32F4xx_StdPeriph_Driver/src/stm32f4xx_flash.c ****   status = FLASH_WaitForLastOperation();
 986              		.loc 1 505 0 is_stmt 1
 987 0050 FFF7FEFF 		bl	FLASH_WaitForLastOperation
 988 0054 0346     		mov	r3, r0
 989 0056 FB73     		strb	r3, [r7, #15]
 506:lib/chip/STM32F4xx_StdPeriph_Driver/src/stm32f4xx_flash.c ****   
 507:lib/chip/STM32F4xx_StdPeriph_Driver/src/stm32f4xx_flash.c ****   if(status == FLASH_COMPLETE)
 990              		.loc 1 507 0
 991 0058 FB7B     		ldrb	r3, [r7, #15]	@ zero_extendqisi2
 992 005a 082B     		cmp	r3, #8
 993 005c 36D1     		bne	.L47
 508:lib/chip/STM32F4xx_StdPeriph_Driver/src/stm32f4xx_flash.c ****   {
 509:lib/chip/STM32F4xx_StdPeriph_Driver/src/stm32f4xx_flash.c ****     /* if the previous operation is completed, proceed to program the new data */
 510:lib/chip/STM32F4xx_StdPeriph_Driver/src/stm32f4xx_flash.c ****     FLASH->CR &= CR_PSIZE_MASK;
 994              		.loc 1 510 0
 995 005e 4FF47053 		mov	r3, #15360
 996 0062 C4F20203 		movt	r3, 16386
 997 0066 4FF47052 		mov	r2, #15360
 998 006a C4F20202 		movt	r2, 16386
 999 006e 1269     		ldr	r2, [r2, #16]
 1000 0070 22F44072 		bic	r2, r2, #768
 1001 0074 1A61     		str	r2, [r3, #16]
 511:lib/chip/STM32F4xx_StdPeriph_Driver/src/stm32f4xx_flash.c ****     FLASH->CR |= FLASH_PSIZE_WORD;
 1002              		.loc 1 511 0
 1003 0076 4FF47053 		mov	r3, #15360
 1004 007a C4F20203 		movt	r3, 16386
 1005 007e 4FF47052 		mov	r2, #15360
 1006 0082 C4F20202 		movt	r2, 16386
 1007 0086 1269     		ldr	r2, [r2, #16]
 1008 0088 42F40072 		orr	r2, r2, #512
 1009 008c 1A61     		str	r2, [r3, #16]
 512:lib/chip/STM32F4xx_StdPeriph_Driver/src/stm32f4xx_flash.c ****     FLASH->CR |= FLASH_CR_PG;
 1010              		.loc 1 512 0
 1011 008e 4FF47053 		mov	r3, #15360
 1012 0092 C4F20203 		movt	r3, 16386
 1013 0096 4FF47052 		mov	r2, #15360
 1014 009a C4F20202 		movt	r2, 16386
 1015 009e 1269     		ldr	r2, [r2, #16]
 1016 00a0 42F00102 		orr	r2, r2, #1
 1017 00a4 1A61     		str	r2, [r3, #16]
 513:lib/chip/STM32F4xx_StdPeriph_Driver/src/stm32f4xx_flash.c ****   
 514:lib/chip/STM32F4xx_StdPeriph_Driver/src/stm32f4xx_flash.c ****     *(__IO uint32_t*)Address = Data;
 1018              		.loc 1 514 0
 1019 00a6 7B68     		ldr	r3, [r7, #4]
 1020 00a8 3A68     		ldr	r2, [r7]
 1021 00aa 1A60     		str	r2, [r3]
 515:lib/chip/STM32F4xx_StdPeriph_Driver/src/stm32f4xx_flash.c ****         
 516:lib/chip/STM32F4xx_StdPeriph_Driver/src/stm32f4xx_flash.c ****     /* Wait for last operation to be completed */
 517:lib/chip/STM32F4xx_StdPeriph_Driver/src/stm32f4xx_flash.c ****     status = FLASH_WaitForLastOperation();
 1022              		.loc 1 517 0
 1023 00ac FFF7FEFF 		bl	FLASH_WaitForLastOperation
 1024 00b0 0346     		mov	r3, r0
 1025 00b2 FB73     		strb	r3, [r7, #15]
 518:lib/chip/STM32F4xx_StdPeriph_Driver/src/stm32f4xx_flash.c **** 
 519:lib/chip/STM32F4xx_StdPeriph_Driver/src/stm32f4xx_flash.c ****     /* if the program operation is completed, disable the PG Bit */
 520:lib/chip/STM32F4xx_StdPeriph_Driver/src/stm32f4xx_flash.c ****     FLASH->CR &= (~FLASH_CR_PG);
 1026              		.loc 1 520 0
 1027 00b4 4FF47053 		mov	r3, #15360
 1028 00b8 C4F20203 		movt	r3, 16386
 1029 00bc 4FF47052 		mov	r2, #15360
 1030 00c0 C4F20202 		movt	r2, 16386
 1031 00c4 1269     		ldr	r2, [r2, #16]
 1032 00c6 22F00102 		bic	r2, r2, #1
 1033 00ca 1A61     		str	r2, [r3, #16]
 1034              	.L47:
 521:lib/chip/STM32F4xx_StdPeriph_Driver/src/stm32f4xx_flash.c ****   } 
 522:lib/chip/STM32F4xx_StdPeriph_Driver/src/stm32f4xx_flash.c ****   /* Return the Program Status */
 523:lib/chip/STM32F4xx_StdPeriph_Driver/src/stm32f4xx_flash.c ****   return status;
 1035              		.loc 1 523 0
 1036 00cc FB7B     		ldrb	r3, [r7, #15]	@ zero_extendqisi2
 524:lib/chip/STM32F4xx_StdPeriph_Driver/src/stm32f4xx_flash.c **** }
 1037              		.loc 1 524 0
 1038 00ce 1846     		mov	r0, r3
 1039 00d0 1037     		adds	r7, r7, #16
 1040 00d2 BD46     		mov	sp, r7
 1041              		@ sp needed
 1042 00d4 80BD     		pop	{r7, pc}
 1043              		.cfi_endproc
 1044              	.LFE121:
 1046 00d6 00BF     		.section	.text.FLASH_ProgramHalfWord,"ax",%progbits
 1047              		.align	2
 1048              		.global	FLASH_ProgramHalfWord
 1049              		.thumb
 1050              		.thumb_func
 1052              	FLASH_ProgramHalfWord:
 1053              	.LFB122:
 525:lib/chip/STM32F4xx_StdPeriph_Driver/src/stm32f4xx_flash.c **** 
 526:lib/chip/STM32F4xx_StdPeriph_Driver/src/stm32f4xx_flash.c **** /**
 527:lib/chip/STM32F4xx_StdPeriph_Driver/src/stm32f4xx_flash.c ****   * @brief  Programs a half word (16-bit) at a specified address. 
 528:lib/chip/STM32F4xx_StdPeriph_Driver/src/stm32f4xx_flash.c ****   * @note   This function must be used when the device voltage range is from 2.1V to 3.6V.         
 529:lib/chip/STM32F4xx_StdPeriph_Driver/src/stm32f4xx_flash.c ****   * @param  Address: specifies the address to be programmed.
 530:lib/chip/STM32F4xx_StdPeriph_Driver/src/stm32f4xx_flash.c ****   *         This parameter can be any address in Program memory zone or in OTP zone.  
 531:lib/chip/STM32F4xx_StdPeriph_Driver/src/stm32f4xx_flash.c ****   * @param  Data: specifies the data to be programmed.
 532:lib/chip/STM32F4xx_StdPeriph_Driver/src/stm32f4xx_flash.c ****   * @retval FLASH Status: The returned value can be: FLASH_BUSY, FLASH_ERROR_PROGRAM,
 533:lib/chip/STM32F4xx_StdPeriph_Driver/src/stm32f4xx_flash.c ****   *                       FLASH_ERROR_WRP, FLASH_ERROR_OPERATION or FLASH_COMPLETE.
 534:lib/chip/STM32F4xx_StdPeriph_Driver/src/stm32f4xx_flash.c ****   */
 535:lib/chip/STM32F4xx_StdPeriph_Driver/src/stm32f4xx_flash.c **** FLASH_Status FLASH_ProgramHalfWord(uint32_t Address, uint16_t Data)
 536:lib/chip/STM32F4xx_StdPeriph_Driver/src/stm32f4xx_flash.c **** {
 1054              		.loc 1 536 0
 1055              		.cfi_startproc
 1056              		@ args = 0, pretend = 0, frame = 16
 1057              		@ frame_needed = 1, uses_anonymous_args = 0
 1058 0000 80B5     		push	{r7, lr}
 1059              	.LCFI32:
 1060              		.cfi_def_cfa_offset 8
 1061              		.cfi_offset 7, -8
 1062              		.cfi_offset 14, -4
 1063 0002 84B0     		sub	sp, sp, #16
 1064              	.LCFI33:
 1065              		.cfi_def_cfa_offset 24
 1066 0004 00AF     		add	r7, sp, #0
 1067              	.LCFI34:
 1068              		.cfi_def_cfa_register 7
 1069 0006 7860     		str	r0, [r7, #4]
 1070 0008 0B46     		mov	r3, r1
 1071 000a 7B80     		strh	r3, [r7, #2]	@ movhi
 537:lib/chip/STM32F4xx_StdPeriph_Driver/src/stm32f4xx_flash.c ****   FLASH_Status status = FLASH_COMPLETE;
 1072              		.loc 1 537 0
 1073 000c 0823     		movs	r3, #8
 1074 000e FB73     		strb	r3, [r7, #15]
 538:lib/chip/STM32F4xx_StdPeriph_Driver/src/stm32f4xx_flash.c **** 
 539:lib/chip/STM32F4xx_StdPeriph_Driver/src/stm32f4xx_flash.c ****   /* Check the parameters */
 540:lib/chip/STM32F4xx_StdPeriph_Driver/src/stm32f4xx_flash.c ****   assert_param(IS_FLASH_ADDRESS(Address));
 1075              		.loc 1 540 0
 1076 0010 7B68     		ldr	r3, [r7, #4]
 1077 0012 B3F1006F 		cmp	r3, #134217728
 1078 0016 06D3     		bcc	.L50
 1079              		.loc 1 540 0 is_stmt 0 discriminator 2
 1080 0018 7A68     		ldr	r2, [r7, #4]
 1081 001a 4FF6FE73 		movw	r3, #65534
 1082 001e C0F60F03 		movt	r3, 2063
 1083 0022 9A42     		cmp	r2, r3
 1084 0024 15D9     		bls	.L51
 1085              	.L50:
 1086              		.loc 1 540 0 discriminator 1
 1087 0026 7A68     		ldr	r2, [r7, #4]
 1088 0028 47F2FF73 		movw	r3, #30719
 1089 002c C1F6FF73 		movt	r3, 8191
 1090 0030 9A42     		cmp	r2, r3
 1091 0032 06D9     		bls	.L52
 1092              		.loc 1 540 0 discriminator 2
 1093 0034 7A68     		ldr	r2, [r7, #4]
 1094 0036 47F60E23 		movw	r3, #31246
 1095 003a C1F6FF73 		movt	r3, 8191
 1096 003e 9A42     		cmp	r2, r3
 1097 0040 07D9     		bls	.L51
 1098              	.L52:
 1099              		.loc 1 540 0 discriminator 1
 1100 0042 40F20000 		movw	r0, #:lower16:.LC0
 1101 0046 C0F20000 		movt	r0, #:upper16:.LC0
 1102 004a 4FF40771 		mov	r1, #540
 1103 004e FFF7FEFF 		bl	assert_failed
 1104              	.L51:
 541:lib/chip/STM32F4xx_StdPeriph_Driver/src/stm32f4xx_flash.c **** 
 542:lib/chip/STM32F4xx_StdPeriph_Driver/src/stm32f4xx_flash.c ****   /* Wait for last operation to be completed */
 543:lib/chip/STM32F4xx_StdPeriph_Driver/src/stm32f4xx_flash.c ****   status = FLASH_WaitForLastOperation();
 1105              		.loc 1 543 0 is_stmt 1
 1106 0052 FFF7FEFF 		bl	FLASH_WaitForLastOperation
 1107 0056 0346     		mov	r3, r0
 1108 0058 FB73     		strb	r3, [r7, #15]
 544:lib/chip/STM32F4xx_StdPeriph_Driver/src/stm32f4xx_flash.c ****   
 545:lib/chip/STM32F4xx_StdPeriph_Driver/src/stm32f4xx_flash.c ****   if(status == FLASH_COMPLETE)
 1109              		.loc 1 545 0
 1110 005a FB7B     		ldrb	r3, [r7, #15]	@ zero_extendqisi2
 1111 005c 082B     		cmp	r3, #8
 1112 005e 36D1     		bne	.L53
 546:lib/chip/STM32F4xx_StdPeriph_Driver/src/stm32f4xx_flash.c ****   {
 547:lib/chip/STM32F4xx_StdPeriph_Driver/src/stm32f4xx_flash.c ****     /* if the previous operation is completed, proceed to program the new data */
 548:lib/chip/STM32F4xx_StdPeriph_Driver/src/stm32f4xx_flash.c ****     FLASH->CR &= CR_PSIZE_MASK;
 1113              		.loc 1 548 0
 1114 0060 4FF47053 		mov	r3, #15360
 1115 0064 C4F20203 		movt	r3, 16386
 1116 0068 4FF47052 		mov	r2, #15360
 1117 006c C4F20202 		movt	r2, 16386
 1118 0070 1269     		ldr	r2, [r2, #16]
 1119 0072 22F44072 		bic	r2, r2, #768
 1120 0076 1A61     		str	r2, [r3, #16]
 549:lib/chip/STM32F4xx_StdPeriph_Driver/src/stm32f4xx_flash.c ****     FLASH->CR |= FLASH_PSIZE_HALF_WORD;
 1121              		.loc 1 549 0
 1122 0078 4FF47053 		mov	r3, #15360
 1123 007c C4F20203 		movt	r3, 16386
 1124 0080 4FF47052 		mov	r2, #15360
 1125 0084 C4F20202 		movt	r2, 16386
 1126 0088 1269     		ldr	r2, [r2, #16]
 1127 008a 42F48072 		orr	r2, r2, #256
 1128 008e 1A61     		str	r2, [r3, #16]
 550:lib/chip/STM32F4xx_StdPeriph_Driver/src/stm32f4xx_flash.c ****     FLASH->CR |= FLASH_CR_PG;
 1129              		.loc 1 550 0
 1130 0090 4FF47053 		mov	r3, #15360
 1131 0094 C4F20203 		movt	r3, 16386
 1132 0098 4FF47052 		mov	r2, #15360
 1133 009c C4F20202 		movt	r2, 16386
 1134 00a0 1269     		ldr	r2, [r2, #16]
 1135 00a2 42F00102 		orr	r2, r2, #1
 1136 00a6 1A61     		str	r2, [r3, #16]
 551:lib/chip/STM32F4xx_StdPeriph_Driver/src/stm32f4xx_flash.c ****   
 552:lib/chip/STM32F4xx_StdPeriph_Driver/src/stm32f4xx_flash.c ****     *(__IO uint16_t*)Address = Data;
 1137              		.loc 1 552 0
 1138 00a8 7B68     		ldr	r3, [r7, #4]
 1139 00aa 7A88     		ldrh	r2, [r7, #2]	@ movhi
 1140 00ac 1A80     		strh	r2, [r3]	@ movhi
 553:lib/chip/STM32F4xx_StdPeriph_Driver/src/stm32f4xx_flash.c ****         
 554:lib/chip/STM32F4xx_StdPeriph_Driver/src/stm32f4xx_flash.c ****     /* Wait for last operation to be completed */
 555:lib/chip/STM32F4xx_StdPeriph_Driver/src/stm32f4xx_flash.c ****     status = FLASH_WaitForLastOperation();
 1141              		.loc 1 555 0
 1142 00ae FFF7FEFF 		bl	FLASH_WaitForLastOperation
 1143 00b2 0346     		mov	r3, r0
 1144 00b4 FB73     		strb	r3, [r7, #15]
 556:lib/chip/STM32F4xx_StdPeriph_Driver/src/stm32f4xx_flash.c **** 
 557:lib/chip/STM32F4xx_StdPeriph_Driver/src/stm32f4xx_flash.c ****     /* if the program operation is completed, disable the PG Bit */
 558:lib/chip/STM32F4xx_StdPeriph_Driver/src/stm32f4xx_flash.c ****     FLASH->CR &= (~FLASH_CR_PG);
 1145              		.loc 1 558 0
 1146 00b6 4FF47053 		mov	r3, #15360
 1147 00ba C4F20203 		movt	r3, 16386
 1148 00be 4FF47052 		mov	r2, #15360
 1149 00c2 C4F20202 		movt	r2, 16386
 1150 00c6 1269     		ldr	r2, [r2, #16]
 1151 00c8 22F00102 		bic	r2, r2, #1
 1152 00cc 1A61     		str	r2, [r3, #16]
 1153              	.L53:
 559:lib/chip/STM32F4xx_StdPeriph_Driver/src/stm32f4xx_flash.c ****   } 
 560:lib/chip/STM32F4xx_StdPeriph_Driver/src/stm32f4xx_flash.c ****   /* Return the Program Status */
 561:lib/chip/STM32F4xx_StdPeriph_Driver/src/stm32f4xx_flash.c ****   return status;
 1154              		.loc 1 561 0
 1155 00ce FB7B     		ldrb	r3, [r7, #15]	@ zero_extendqisi2
 562:lib/chip/STM32F4xx_StdPeriph_Driver/src/stm32f4xx_flash.c **** }
 1156              		.loc 1 562 0
 1157 00d0 1846     		mov	r0, r3
 1158 00d2 1037     		adds	r7, r7, #16
 1159 00d4 BD46     		mov	sp, r7
 1160              		@ sp needed
 1161 00d6 80BD     		pop	{r7, pc}
 1162              		.cfi_endproc
 1163              	.LFE122:
 1165              		.section	.text.FLASH_ProgramByte,"ax",%progbits
 1166              		.align	2
 1167              		.global	FLASH_ProgramByte
 1168              		.thumb
 1169              		.thumb_func
 1171              	FLASH_ProgramByte:
 1172              	.LFB123:
 563:lib/chip/STM32F4xx_StdPeriph_Driver/src/stm32f4xx_flash.c **** 
 564:lib/chip/STM32F4xx_StdPeriph_Driver/src/stm32f4xx_flash.c **** /**
 565:lib/chip/STM32F4xx_StdPeriph_Driver/src/stm32f4xx_flash.c ****   * @brief  Programs a byte (8-bit) at a specified address.
 566:lib/chip/STM32F4xx_StdPeriph_Driver/src/stm32f4xx_flash.c ****   * @note   This function can be used within all the device supply voltage ranges.               
 567:lib/chip/STM32F4xx_StdPeriph_Driver/src/stm32f4xx_flash.c ****   * @param  Address: specifies the address to be programmed.
 568:lib/chip/STM32F4xx_StdPeriph_Driver/src/stm32f4xx_flash.c ****   *         This parameter can be any address in Program memory zone or in OTP zone.  
 569:lib/chip/STM32F4xx_StdPeriph_Driver/src/stm32f4xx_flash.c ****   * @param  Data: specifies the data to be programmed.
 570:lib/chip/STM32F4xx_StdPeriph_Driver/src/stm32f4xx_flash.c ****   * @retval FLASH Status: The returned value can be: FLASH_BUSY, FLASH_ERROR_PROGRAM,
 571:lib/chip/STM32F4xx_StdPeriph_Driver/src/stm32f4xx_flash.c ****   *                       FLASH_ERROR_WRP, FLASH_ERROR_OPERATION or FLASH_COMPLETE.
 572:lib/chip/STM32F4xx_StdPeriph_Driver/src/stm32f4xx_flash.c ****   */
 573:lib/chip/STM32F4xx_StdPeriph_Driver/src/stm32f4xx_flash.c **** FLASH_Status FLASH_ProgramByte(uint32_t Address, uint8_t Data)
 574:lib/chip/STM32F4xx_StdPeriph_Driver/src/stm32f4xx_flash.c **** {
 1173              		.loc 1 574 0
 1174              		.cfi_startproc
 1175              		@ args = 0, pretend = 0, frame = 16
 1176              		@ frame_needed = 1, uses_anonymous_args = 0
 1177 0000 80B5     		push	{r7, lr}
 1178              	.LCFI35:
 1179              		.cfi_def_cfa_offset 8
 1180              		.cfi_offset 7, -8
 1181              		.cfi_offset 14, -4
 1182 0002 84B0     		sub	sp, sp, #16
 1183              	.LCFI36:
 1184              		.cfi_def_cfa_offset 24
 1185 0004 00AF     		add	r7, sp, #0
 1186              	.LCFI37:
 1187              		.cfi_def_cfa_register 7
 1188 0006 7860     		str	r0, [r7, #4]
 1189 0008 0B46     		mov	r3, r1
 1190 000a FB70     		strb	r3, [r7, #3]
 575:lib/chip/STM32F4xx_StdPeriph_Driver/src/stm32f4xx_flash.c ****   FLASH_Status status = FLASH_COMPLETE;
 1191              		.loc 1 575 0
 1192 000c 0823     		movs	r3, #8
 1193 000e FB73     		strb	r3, [r7, #15]
 576:lib/chip/STM32F4xx_StdPeriph_Driver/src/stm32f4xx_flash.c **** 
 577:lib/chip/STM32F4xx_StdPeriph_Driver/src/stm32f4xx_flash.c ****   /* Check the parameters */
 578:lib/chip/STM32F4xx_StdPeriph_Driver/src/stm32f4xx_flash.c ****   assert_param(IS_FLASH_ADDRESS(Address));
 1194              		.loc 1 578 0
 1195 0010 7B68     		ldr	r3, [r7, #4]
 1196 0012 B3F1006F 		cmp	r3, #134217728
 1197 0016 06D3     		bcc	.L56
 1198              		.loc 1 578 0 is_stmt 0 discriminator 2
 1199 0018 7A68     		ldr	r2, [r7, #4]
 1200 001a 4FF6FE73 		movw	r3, #65534
 1201 001e C0F60F03 		movt	r3, 2063
 1202 0022 9A42     		cmp	r2, r3
 1203 0024 15D9     		bls	.L57
 1204              	.L56:
 1205              		.loc 1 578 0 discriminator 1
 1206 0026 7A68     		ldr	r2, [r7, #4]
 1207 0028 47F2FF73 		movw	r3, #30719
 1208 002c C1F6FF73 		movt	r3, 8191
 1209 0030 9A42     		cmp	r2, r3
 1210 0032 06D9     		bls	.L58
 1211              		.loc 1 578 0 discriminator 2
 1212 0034 7A68     		ldr	r2, [r7, #4]
 1213 0036 47F60E23 		movw	r3, #31246
 1214 003a C1F6FF73 		movt	r3, 8191
 1215 003e 9A42     		cmp	r2, r3
 1216 0040 07D9     		bls	.L57
 1217              	.L58:
 1218              		.loc 1 578 0 discriminator 1
 1219 0042 40F20000 		movw	r0, #:lower16:.LC0
 1220 0046 C0F20000 		movt	r0, #:upper16:.LC0
 1221 004a 40F24221 		movw	r1, #578
 1222 004e FFF7FEFF 		bl	assert_failed
 1223              	.L57:
 579:lib/chip/STM32F4xx_StdPeriph_Driver/src/stm32f4xx_flash.c **** 
 580:lib/chip/STM32F4xx_StdPeriph_Driver/src/stm32f4xx_flash.c ****   /* Wait for last operation to be completed */
 581:lib/chip/STM32F4xx_StdPeriph_Driver/src/stm32f4xx_flash.c ****   status = FLASH_WaitForLastOperation();
 1224              		.loc 1 581 0 is_stmt 1
 1225 0052 FFF7FEFF 		bl	FLASH_WaitForLastOperation
 1226 0056 0346     		mov	r3, r0
 1227 0058 FB73     		strb	r3, [r7, #15]
 582:lib/chip/STM32F4xx_StdPeriph_Driver/src/stm32f4xx_flash.c ****   
 583:lib/chip/STM32F4xx_StdPeriph_Driver/src/stm32f4xx_flash.c ****   if(status == FLASH_COMPLETE)
 1228              		.loc 1 583 0
 1229 005a FB7B     		ldrb	r3, [r7, #15]	@ zero_extendqisi2
 1230 005c 082B     		cmp	r3, #8
 1231 005e 34D1     		bne	.L59
 584:lib/chip/STM32F4xx_StdPeriph_Driver/src/stm32f4xx_flash.c ****   {
 585:lib/chip/STM32F4xx_StdPeriph_Driver/src/stm32f4xx_flash.c ****     /* if the previous operation is completed, proceed to program the new data */
 586:lib/chip/STM32F4xx_StdPeriph_Driver/src/stm32f4xx_flash.c ****     FLASH->CR &= CR_PSIZE_MASK;
 1232              		.loc 1 586 0
 1233 0060 4FF47053 		mov	r3, #15360
 1234 0064 C4F20203 		movt	r3, 16386
 1235 0068 4FF47052 		mov	r2, #15360
 1236 006c C4F20202 		movt	r2, 16386
 1237 0070 1269     		ldr	r2, [r2, #16]
 1238 0072 22F44072 		bic	r2, r2, #768
 1239 0076 1A61     		str	r2, [r3, #16]
 587:lib/chip/STM32F4xx_StdPeriph_Driver/src/stm32f4xx_flash.c ****     FLASH->CR |= FLASH_PSIZE_BYTE;
 1240              		.loc 1 587 0
 1241 0078 4FF47053 		mov	r3, #15360
 1242 007c C4F20203 		movt	r3, 16386
 1243 0080 4FF47052 		mov	r2, #15360
 1244 0084 C4F20202 		movt	r2, 16386
 1245 0088 1269     		ldr	r2, [r2, #16]
 1246 008a 1A61     		str	r2, [r3, #16]
 588:lib/chip/STM32F4xx_StdPeriph_Driver/src/stm32f4xx_flash.c ****     FLASH->CR |= FLASH_CR_PG;
 1247              		.loc 1 588 0
 1248 008c 4FF47053 		mov	r3, #15360
 1249 0090 C4F20203 		movt	r3, 16386
 1250 0094 4FF47052 		mov	r2, #15360
 1251 0098 C4F20202 		movt	r2, 16386
 1252 009c 1269     		ldr	r2, [r2, #16]
 1253 009e 42F00102 		orr	r2, r2, #1
 1254 00a2 1A61     		str	r2, [r3, #16]
 589:lib/chip/STM32F4xx_StdPeriph_Driver/src/stm32f4xx_flash.c ****   
 590:lib/chip/STM32F4xx_StdPeriph_Driver/src/stm32f4xx_flash.c ****     *(__IO uint8_t*)Address = Data;
 1255              		.loc 1 590 0
 1256 00a4 7B68     		ldr	r3, [r7, #4]
 1257 00a6 FA78     		ldrb	r2, [r7, #3]
 1258 00a8 1A70     		strb	r2, [r3]
 591:lib/chip/STM32F4xx_StdPeriph_Driver/src/stm32f4xx_flash.c ****         
 592:lib/chip/STM32F4xx_StdPeriph_Driver/src/stm32f4xx_flash.c ****     /* Wait for last operation to be completed */
 593:lib/chip/STM32F4xx_StdPeriph_Driver/src/stm32f4xx_flash.c ****     status = FLASH_WaitForLastOperation();
 1259              		.loc 1 593 0
 1260 00aa FFF7FEFF 		bl	FLASH_WaitForLastOperation
 1261 00ae 0346     		mov	r3, r0
 1262 00b0 FB73     		strb	r3, [r7, #15]
 594:lib/chip/STM32F4xx_StdPeriph_Driver/src/stm32f4xx_flash.c **** 
 595:lib/chip/STM32F4xx_StdPeriph_Driver/src/stm32f4xx_flash.c ****     /* if the program operation is completed, disable the PG Bit */
 596:lib/chip/STM32F4xx_StdPeriph_Driver/src/stm32f4xx_flash.c ****     FLASH->CR &= (~FLASH_CR_PG);
 1263              		.loc 1 596 0
 1264 00b2 4FF47053 		mov	r3, #15360
 1265 00b6 C4F20203 		movt	r3, 16386
 1266 00ba 4FF47052 		mov	r2, #15360
 1267 00be C4F20202 		movt	r2, 16386
 1268 00c2 1269     		ldr	r2, [r2, #16]
 1269 00c4 22F00102 		bic	r2, r2, #1
 1270 00c8 1A61     		str	r2, [r3, #16]
 1271              	.L59:
 597:lib/chip/STM32F4xx_StdPeriph_Driver/src/stm32f4xx_flash.c ****   } 
 598:lib/chip/STM32F4xx_StdPeriph_Driver/src/stm32f4xx_flash.c **** 
 599:lib/chip/STM32F4xx_StdPeriph_Driver/src/stm32f4xx_flash.c ****   /* Return the Program Status */
 600:lib/chip/STM32F4xx_StdPeriph_Driver/src/stm32f4xx_flash.c ****   return status;
 1272              		.loc 1 600 0
 1273 00ca FB7B     		ldrb	r3, [r7, #15]	@ zero_extendqisi2
 601:lib/chip/STM32F4xx_StdPeriph_Driver/src/stm32f4xx_flash.c **** }
 1274              		.loc 1 601 0
 1275 00cc 1846     		mov	r0, r3
 1276 00ce 1037     		adds	r7, r7, #16
 1277 00d0 BD46     		mov	sp, r7
 1278              		@ sp needed
 1279 00d2 80BD     		pop	{r7, pc}
 1280              		.cfi_endproc
 1281              	.LFE123:
 1283              		.section	.text.FLASH_OB_Unlock,"ax",%progbits
 1284              		.align	2
 1285              		.global	FLASH_OB_Unlock
 1286              		.thumb
 1287              		.thumb_func
 1289              	FLASH_OB_Unlock:
 1290              	.LFB124:
 602:lib/chip/STM32F4xx_StdPeriph_Driver/src/stm32f4xx_flash.c **** 
 603:lib/chip/STM32F4xx_StdPeriph_Driver/src/stm32f4xx_flash.c **** /**
 604:lib/chip/STM32F4xx_StdPeriph_Driver/src/stm32f4xx_flash.c ****   * @}
 605:lib/chip/STM32F4xx_StdPeriph_Driver/src/stm32f4xx_flash.c ****   */
 606:lib/chip/STM32F4xx_StdPeriph_Driver/src/stm32f4xx_flash.c **** 
 607:lib/chip/STM32F4xx_StdPeriph_Driver/src/stm32f4xx_flash.c **** /** @defgroup FLASH_Group3 Option Bytes Programming functions
 608:lib/chip/STM32F4xx_StdPeriph_Driver/src/stm32f4xx_flash.c ****  *  @brief   Option Bytes Programming functions 
 609:lib/chip/STM32F4xx_StdPeriph_Driver/src/stm32f4xx_flash.c ****  *
 610:lib/chip/STM32F4xx_StdPeriph_Driver/src/stm32f4xx_flash.c **** @verbatim   
 611:lib/chip/STM32F4xx_StdPeriph_Driver/src/stm32f4xx_flash.c ****  ===============================================================================
 612:lib/chip/STM32F4xx_StdPeriph_Driver/src/stm32f4xx_flash.c ****                         Option Bytes Programming functions
 613:lib/chip/STM32F4xx_StdPeriph_Driver/src/stm32f4xx_flash.c ****  ===============================================================================  
 614:lib/chip/STM32F4xx_StdPeriph_Driver/src/stm32f4xx_flash.c ****  
 615:lib/chip/STM32F4xx_StdPeriph_Driver/src/stm32f4xx_flash.c ****    This group includes the following functions:
 616:lib/chip/STM32F4xx_StdPeriph_Driver/src/stm32f4xx_flash.c ****    - void FLASH_OB_Unlock(void)
 617:lib/chip/STM32F4xx_StdPeriph_Driver/src/stm32f4xx_flash.c ****    - void FLASH_OB_Lock(void)
 618:lib/chip/STM32F4xx_StdPeriph_Driver/src/stm32f4xx_flash.c ****    - void FLASH_OB_WRPConfig(uint32_t OB_WRP, FunctionalState NewState)
 619:lib/chip/STM32F4xx_StdPeriph_Driver/src/stm32f4xx_flash.c ****    - void FLASH_OB_RDPConfig(uint8_t OB_RDP)
 620:lib/chip/STM32F4xx_StdPeriph_Driver/src/stm32f4xx_flash.c ****    - void FLASH_OB_UserConfig(uint8_t OB_IWDG, uint8_t OB_STOP, uint8_t OB_STDBY)
 621:lib/chip/STM32F4xx_StdPeriph_Driver/src/stm32f4xx_flash.c ****    - void FLASH_OB_BORConfig(uint8_t OB_BOR)
 622:lib/chip/STM32F4xx_StdPeriph_Driver/src/stm32f4xx_flash.c ****    - FLASH_Status FLASH_ProgramOTP(uint32_t Address, uint32_t Data)							
 623:lib/chip/STM32F4xx_StdPeriph_Driver/src/stm32f4xx_flash.c ****    - FLASH_Status FLASH_OB_Launch(void)
 624:lib/chip/STM32F4xx_StdPeriph_Driver/src/stm32f4xx_flash.c ****    - uint32_t FLASH_OB_GetUser(void)						
 625:lib/chip/STM32F4xx_StdPeriph_Driver/src/stm32f4xx_flash.c ****    - uint8_t FLASH_OB_GetWRP(void)						
 626:lib/chip/STM32F4xx_StdPeriph_Driver/src/stm32f4xx_flash.c ****    - uint8_t FLASH_OB_GetRDP(void)							
 627:lib/chip/STM32F4xx_StdPeriph_Driver/src/stm32f4xx_flash.c ****    - uint8_t FLASH_OB_GetBOR(void)
 628:lib/chip/STM32F4xx_StdPeriph_Driver/src/stm32f4xx_flash.c ****    
 629:lib/chip/STM32F4xx_StdPeriph_Driver/src/stm32f4xx_flash.c ****    Any operation of erase or program should follow these steps:
 630:lib/chip/STM32F4xx_StdPeriph_Driver/src/stm32f4xx_flash.c ****    1. Call the FLASH_OB_Unlock() function to enable the FLASH option control register access
 631:lib/chip/STM32F4xx_StdPeriph_Driver/src/stm32f4xx_flash.c **** 
 632:lib/chip/STM32F4xx_StdPeriph_Driver/src/stm32f4xx_flash.c ****    2. Call one or several functions to program the desired Option Bytes:
 633:lib/chip/STM32F4xx_StdPeriph_Driver/src/stm32f4xx_flash.c ****       - void FLASH_OB_WRPConfig(uint32_t OB_WRP, FunctionalState NewState) => to Enable/Disable 
 634:lib/chip/STM32F4xx_StdPeriph_Driver/src/stm32f4xx_flash.c ****         the desired sector write protection
 635:lib/chip/STM32F4xx_StdPeriph_Driver/src/stm32f4xx_flash.c ****       - void FLASH_OB_RDPConfig(uint8_t OB_RDP) => to set the desired read Protection Level
 636:lib/chip/STM32F4xx_StdPeriph_Driver/src/stm32f4xx_flash.c ****       - void FLASH_OB_UserConfig(uint8_t OB_IWDG, uint8_t OB_STOP, uint8_t OB_STDBY) => to configur
 637:lib/chip/STM32F4xx_StdPeriph_Driver/src/stm32f4xx_flash.c ****         the user Option Bytes.
 638:lib/chip/STM32F4xx_StdPeriph_Driver/src/stm32f4xx_flash.c ****       - void FLASH_OB_BORConfig(uint8_t OB_BOR) => to set the BOR Level 			 
 639:lib/chip/STM32F4xx_StdPeriph_Driver/src/stm32f4xx_flash.c **** 
 640:lib/chip/STM32F4xx_StdPeriph_Driver/src/stm32f4xx_flash.c ****    3. Once all needed Option Bytes to be programmed are correctly written, call the
 641:lib/chip/STM32F4xx_StdPeriph_Driver/src/stm32f4xx_flash.c ****       FLASH_OB_Launch() function to launch the Option Bytes programming process.
 642:lib/chip/STM32F4xx_StdPeriph_Driver/src/stm32f4xx_flash.c ****      
 643:lib/chip/STM32F4xx_StdPeriph_Driver/src/stm32f4xx_flash.c ****      @note When changing the IWDG mode from HW to SW or from SW to HW, a system 
 644:lib/chip/STM32F4xx_StdPeriph_Driver/src/stm32f4xx_flash.c ****            reset is needed to make the change effective.  
 645:lib/chip/STM32F4xx_StdPeriph_Driver/src/stm32f4xx_flash.c **** 
 646:lib/chip/STM32F4xx_StdPeriph_Driver/src/stm32f4xx_flash.c ****    4. Call the FLASH_OB_Lock() function to disable the FLASH option control register
 647:lib/chip/STM32F4xx_StdPeriph_Driver/src/stm32f4xx_flash.c ****       access (recommended to protect the Option Bytes against possible unwanted operations)
 648:lib/chip/STM32F4xx_StdPeriph_Driver/src/stm32f4xx_flash.c ****     
 649:lib/chip/STM32F4xx_StdPeriph_Driver/src/stm32f4xx_flash.c **** @endverbatim
 650:lib/chip/STM32F4xx_StdPeriph_Driver/src/stm32f4xx_flash.c ****   * @{
 651:lib/chip/STM32F4xx_StdPeriph_Driver/src/stm32f4xx_flash.c ****   */
 652:lib/chip/STM32F4xx_StdPeriph_Driver/src/stm32f4xx_flash.c **** 
 653:lib/chip/STM32F4xx_StdPeriph_Driver/src/stm32f4xx_flash.c **** /**
 654:lib/chip/STM32F4xx_StdPeriph_Driver/src/stm32f4xx_flash.c ****   * @brief  Unlocks the FLASH Option Control Registers access.
 655:lib/chip/STM32F4xx_StdPeriph_Driver/src/stm32f4xx_flash.c ****   * @param  None
 656:lib/chip/STM32F4xx_StdPeriph_Driver/src/stm32f4xx_flash.c ****   * @retval None
 657:lib/chip/STM32F4xx_StdPeriph_Driver/src/stm32f4xx_flash.c ****   */
 658:lib/chip/STM32F4xx_StdPeriph_Driver/src/stm32f4xx_flash.c **** void FLASH_OB_Unlock(void)
 659:lib/chip/STM32F4xx_StdPeriph_Driver/src/stm32f4xx_flash.c **** {
 1291              		.loc 1 659 0
 1292              		.cfi_startproc
 1293              		@ args = 0, pretend = 0, frame = 0
 1294              		@ frame_needed = 1, uses_anonymous_args = 0
 1295              		@ link register save eliminated.
 1296 0000 80B4     		push	{r7}
 1297              	.LCFI38:
 1298              		.cfi_def_cfa_offset 4
 1299              		.cfi_offset 7, -4
 1300 0002 00AF     		add	r7, sp, #0
 1301              	.LCFI39:
 1302              		.cfi_def_cfa_register 7
 660:lib/chip/STM32F4xx_StdPeriph_Driver/src/stm32f4xx_flash.c ****   if((FLASH->OPTCR & FLASH_OPTCR_OPTLOCK) != RESET)
 1303              		.loc 1 660 0
 1304 0004 4FF47053 		mov	r3, #15360
 1305 0008 C4F20203 		movt	r3, 16386
 1306 000c 5B69     		ldr	r3, [r3, #20]
 1307 000e 03F00103 		and	r3, r3, #1
 1308 0012 002B     		cmp	r3, #0
 1309 0014 11D0     		beq	.L61
 661:lib/chip/STM32F4xx_StdPeriph_Driver/src/stm32f4xx_flash.c ****   {
 662:lib/chip/STM32F4xx_StdPeriph_Driver/src/stm32f4xx_flash.c ****     /* Authorizes the Option Byte register programming */
 663:lib/chip/STM32F4xx_StdPeriph_Driver/src/stm32f4xx_flash.c ****     FLASH->OPTKEYR = FLASH_OPT_KEY1;
 1310              		.loc 1 663 0
 1311 0016 4FF47053 		mov	r3, #15360
 1312 001a C4F20203 		movt	r3, 16386
 1313 001e 42F63B22 		movw	r2, #10811
 1314 0022 C0F61902 		movt	r2, 2073
 1315 0026 9A60     		str	r2, [r3, #8]
 664:lib/chip/STM32F4xx_StdPeriph_Driver/src/stm32f4xx_flash.c ****     FLASH->OPTKEYR = FLASH_OPT_KEY2;
 1316              		.loc 1 664 0
 1317 0028 4FF47053 		mov	r3, #15360
 1318 002c C4F20203 		movt	r3, 16386
 1319 0030 46F67F62 		movw	r2, #28287
 1320 0034 C4F65D42 		movt	r2, 19549
 1321 0038 9A60     		str	r2, [r3, #8]
 1322              	.L61:
 665:lib/chip/STM32F4xx_StdPeriph_Driver/src/stm32f4xx_flash.c ****   }  
 666:lib/chip/STM32F4xx_StdPeriph_Driver/src/stm32f4xx_flash.c **** }
 1323              		.loc 1 666 0
 1324 003a BD46     		mov	sp, r7
 1325              		@ sp needed
 1326 003c 5DF8047B 		ldr	r7, [sp], #4
 1327 0040 7047     		bx	lr
 1328              		.cfi_endproc
 1329              	.LFE124:
 1331 0042 00BF     		.section	.text.FLASH_OB_Lock,"ax",%progbits
 1332              		.align	2
 1333              		.global	FLASH_OB_Lock
 1334              		.thumb
 1335              		.thumb_func
 1337              	FLASH_OB_Lock:
 1338              	.LFB125:
 667:lib/chip/STM32F4xx_StdPeriph_Driver/src/stm32f4xx_flash.c **** 
 668:lib/chip/STM32F4xx_StdPeriph_Driver/src/stm32f4xx_flash.c **** /**
 669:lib/chip/STM32F4xx_StdPeriph_Driver/src/stm32f4xx_flash.c ****   * @brief  Locks the FLASH Option Control Registers access.
 670:lib/chip/STM32F4xx_StdPeriph_Driver/src/stm32f4xx_flash.c ****   * @param  None
 671:lib/chip/STM32F4xx_StdPeriph_Driver/src/stm32f4xx_flash.c ****   * @retval None
 672:lib/chip/STM32F4xx_StdPeriph_Driver/src/stm32f4xx_flash.c ****   */
 673:lib/chip/STM32F4xx_StdPeriph_Driver/src/stm32f4xx_flash.c **** void FLASH_OB_Lock(void)
 674:lib/chip/STM32F4xx_StdPeriph_Driver/src/stm32f4xx_flash.c **** {
 1339              		.loc 1 674 0
 1340              		.cfi_startproc
 1341              		@ args = 0, pretend = 0, frame = 0
 1342              		@ frame_needed = 1, uses_anonymous_args = 0
 1343              		@ link register save eliminated.
 1344 0000 80B4     		push	{r7}
 1345              	.LCFI40:
 1346              		.cfi_def_cfa_offset 4
 1347              		.cfi_offset 7, -4
 1348 0002 00AF     		add	r7, sp, #0
 1349              	.LCFI41:
 1350              		.cfi_def_cfa_register 7
 675:lib/chip/STM32F4xx_StdPeriph_Driver/src/stm32f4xx_flash.c ****   /* Set the OPTLOCK Bit to lock the FLASH Option Byte Registers access */
 676:lib/chip/STM32F4xx_StdPeriph_Driver/src/stm32f4xx_flash.c ****   FLASH->OPTCR |= FLASH_OPTCR_OPTLOCK;
 1351              		.loc 1 676 0
 1352 0004 4FF47053 		mov	r3, #15360
 1353 0008 C4F20203 		movt	r3, 16386
 1354 000c 4FF47052 		mov	r2, #15360
 1355 0010 C4F20202 		movt	r2, 16386
 1356 0014 5269     		ldr	r2, [r2, #20]
 1357 0016 42F00102 		orr	r2, r2, #1
 1358 001a 5A61     		str	r2, [r3, #20]
 677:lib/chip/STM32F4xx_StdPeriph_Driver/src/stm32f4xx_flash.c **** }
 1359              		.loc 1 677 0
 1360 001c BD46     		mov	sp, r7
 1361              		@ sp needed
 1362 001e 5DF8047B 		ldr	r7, [sp], #4
 1363 0022 7047     		bx	lr
 1364              		.cfi_endproc
 1365              	.LFE125:
 1367              		.section	.text.FLASH_OB_WRPConfig,"ax",%progbits
 1368              		.align	2
 1369              		.global	FLASH_OB_WRPConfig
 1370              		.thumb
 1371              		.thumb_func
 1373              	FLASH_OB_WRPConfig:
 1374              	.LFB126:
 678:lib/chip/STM32F4xx_StdPeriph_Driver/src/stm32f4xx_flash.c **** 
 679:lib/chip/STM32F4xx_StdPeriph_Driver/src/stm32f4xx_flash.c **** /**
 680:lib/chip/STM32F4xx_StdPeriph_Driver/src/stm32f4xx_flash.c ****   * @brief  Enables or disables the write protection of the desired sectors
 681:lib/chip/STM32F4xx_StdPeriph_Driver/src/stm32f4xx_flash.c ****   * @param  OB_WRP: specifies the sector(s) to be write protected or unprotected.
 682:lib/chip/STM32F4xx_StdPeriph_Driver/src/stm32f4xx_flash.c ****   *          This parameter can be one of the following values:
 683:lib/chip/STM32F4xx_StdPeriph_Driver/src/stm32f4xx_flash.c ****   *            @arg OB_WRP: A value between OB_WRP_Sector0 and OB_WRP_Sector11                     
 684:lib/chip/STM32F4xx_StdPeriph_Driver/src/stm32f4xx_flash.c ****   *            @arg OB_WRP_Sector_All
 685:lib/chip/STM32F4xx_StdPeriph_Driver/src/stm32f4xx_flash.c ****   * @param  Newstate: new state of the Write Protection.
 686:lib/chip/STM32F4xx_StdPeriph_Driver/src/stm32f4xx_flash.c ****   *          This parameter can be: ENABLE or DISABLE.
 687:lib/chip/STM32F4xx_StdPeriph_Driver/src/stm32f4xx_flash.c ****   * @retval None  
 688:lib/chip/STM32F4xx_StdPeriph_Driver/src/stm32f4xx_flash.c ****   */
 689:lib/chip/STM32F4xx_StdPeriph_Driver/src/stm32f4xx_flash.c **** void FLASH_OB_WRPConfig(uint32_t OB_WRP, FunctionalState NewState)
 690:lib/chip/STM32F4xx_StdPeriph_Driver/src/stm32f4xx_flash.c **** { 
 1375              		.loc 1 690 0
 1376              		.cfi_startproc
 1377              		@ args = 0, pretend = 0, frame = 16
 1378              		@ frame_needed = 1, uses_anonymous_args = 0
 1379 0000 80B5     		push	{r7, lr}
 1380              	.LCFI42:
 1381              		.cfi_def_cfa_offset 8
 1382              		.cfi_offset 7, -8
 1383              		.cfi_offset 14, -4
 1384 0002 84B0     		sub	sp, sp, #16
 1385              	.LCFI43:
 1386              		.cfi_def_cfa_offset 24
 1387 0004 00AF     		add	r7, sp, #0
 1388              	.LCFI44:
 1389              		.cfi_def_cfa_register 7
 1390 0006 7860     		str	r0, [r7, #4]
 1391 0008 0B46     		mov	r3, r1
 1392 000a FB70     		strb	r3, [r7, #3]
 691:lib/chip/STM32F4xx_StdPeriph_Driver/src/stm32f4xx_flash.c ****   FLASH_Status status = FLASH_COMPLETE;
 1393              		.loc 1 691 0
 1394 000c 0823     		movs	r3, #8
 1395 000e FB73     		strb	r3, [r7, #15]
 692:lib/chip/STM32F4xx_StdPeriph_Driver/src/stm32f4xx_flash.c ****   
 693:lib/chip/STM32F4xx_StdPeriph_Driver/src/stm32f4xx_flash.c ****   /* Check the parameters */
 694:lib/chip/STM32F4xx_StdPeriph_Driver/src/stm32f4xx_flash.c ****   assert_param(IS_OB_WRP(OB_WRP));
 1396              		.loc 1 694 0
 1397 0010 7B68     		ldr	r3, [r7, #4]
 1398 0012 23F47F63 		bic	r3, r3, #4080
 1399 0016 23F00F03 		bic	r3, r3, #15
 1400 001a 002B     		cmp	r3, #0
 1401 001c 02D1     		bne	.L65
 1402              		.loc 1 694 0 is_stmt 0 discriminator 2
 1403 001e 7B68     		ldr	r3, [r7, #4]
 1404 0020 002B     		cmp	r3, #0
 1405 0022 07D1     		bne	.L66
 1406              	.L65:
 1407              		.loc 1 694 0 discriminator 1
 1408 0024 40F20000 		movw	r0, #:lower16:.LC0
 1409 0028 C0F20000 		movt	r0, #:upper16:.LC0
 1410 002c 40F2B621 		movw	r1, #694
 1411 0030 FFF7FEFF 		bl	assert_failed
 1412              	.L66:
 695:lib/chip/STM32F4xx_StdPeriph_Driver/src/stm32f4xx_flash.c ****   assert_param(IS_FUNCTIONAL_STATE(NewState));
 1413              		.loc 1 695 0 is_stmt 1
 1414 0034 FB78     		ldrb	r3, [r7, #3]	@ zero_extendqisi2
 1415 0036 002B     		cmp	r3, #0
 1416 0038 0AD0     		beq	.L67
 1417              		.loc 1 695 0 is_stmt 0 discriminator 1
 1418 003a FB78     		ldrb	r3, [r7, #3]	@ zero_extendqisi2
 1419 003c 012B     		cmp	r3, #1
 1420 003e 07D0     		beq	.L67
 1421 0040 40F20000 		movw	r0, #:lower16:.LC0
 1422 0044 C0F20000 		movt	r0, #:upper16:.LC0
 1423 0048 40F2B721 		movw	r1, #695
 1424 004c FFF7FEFF 		bl	assert_failed
 1425              	.L67:
 696:lib/chip/STM32F4xx_StdPeriph_Driver/src/stm32f4xx_flash.c ****     
 697:lib/chip/STM32F4xx_StdPeriph_Driver/src/stm32f4xx_flash.c ****   status = FLASH_WaitForLastOperation();
 1426              		.loc 1 697 0 is_stmt 1
 1427 0050 FFF7FEFF 		bl	FLASH_WaitForLastOperation
 1428 0054 0346     		mov	r3, r0
 1429 0056 FB73     		strb	r3, [r7, #15]
 698:lib/chip/STM32F4xx_StdPeriph_Driver/src/stm32f4xx_flash.c **** 
 699:lib/chip/STM32F4xx_StdPeriph_Driver/src/stm32f4xx_flash.c ****   if(status == FLASH_COMPLETE)
 1430              		.loc 1 699 0
 1431 0058 FB7B     		ldrb	r3, [r7, #15]	@ zero_extendqisi2
 1432 005a 082B     		cmp	r3, #8
 1433 005c 23D1     		bne	.L64
 700:lib/chip/STM32F4xx_StdPeriph_Driver/src/stm32f4xx_flash.c ****   { 
 701:lib/chip/STM32F4xx_StdPeriph_Driver/src/stm32f4xx_flash.c ****     if(NewState != DISABLE)
 1434              		.loc 1 701 0
 1435 005e FB78     		ldrb	r3, [r7, #3]	@ zero_extendqisi2
 1436 0060 002B     		cmp	r3, #0
 1437 0062 11D0     		beq	.L69
 702:lib/chip/STM32F4xx_StdPeriph_Driver/src/stm32f4xx_flash.c ****     {
 703:lib/chip/STM32F4xx_StdPeriph_Driver/src/stm32f4xx_flash.c ****       *(__IO uint16_t*)OPTCR_BYTE2_ADDRESS &= (~OB_WRP);
 1438              		.loc 1 703 0
 1439 0064 43F61643 		movw	r3, #15382
 1440 0068 C4F20203 		movt	r3, 16386
 1441 006c 43F61642 		movw	r2, #15382
 1442 0070 C4F20202 		movt	r2, 16386
 1443 0074 1288     		ldrh	r2, [r2]	@ movhi
 1444 0076 91B2     		uxth	r1, r2
 1445 0078 7A68     		ldr	r2, [r7, #4]
 1446 007a 92B2     		uxth	r2, r2
 1447 007c D243     		mvns	r2, r2
 1448 007e 92B2     		uxth	r2, r2
 1449 0080 0A40     		ands	r2, r2, r1
 1450 0082 92B2     		uxth	r2, r2
 1451 0084 1A80     		strh	r2, [r3]	@ movhi
 1452 0086 0EE0     		b	.L64
 1453              	.L69:
 704:lib/chip/STM32F4xx_StdPeriph_Driver/src/stm32f4xx_flash.c ****     }
 705:lib/chip/STM32F4xx_StdPeriph_Driver/src/stm32f4xx_flash.c ****     else
 706:lib/chip/STM32F4xx_StdPeriph_Driver/src/stm32f4xx_flash.c ****     {
 707:lib/chip/STM32F4xx_StdPeriph_Driver/src/stm32f4xx_flash.c ****       *(__IO uint16_t*)OPTCR_BYTE2_ADDRESS |= (uint16_t)OB_WRP;
 1454              		.loc 1 707 0
 1455 0088 43F61643 		movw	r3, #15382
 1456 008c C4F20203 		movt	r3, 16386
 1457 0090 43F61642 		movw	r2, #15382
 1458 0094 C4F20202 		movt	r2, 16386
 1459 0098 1288     		ldrh	r2, [r2]	@ movhi
 1460 009a 91B2     		uxth	r1, r2
 1461 009c 7A68     		ldr	r2, [r7, #4]
 1462 009e 92B2     		uxth	r2, r2
 1463 00a0 0A43     		orrs	r2, r2, r1
 1464 00a2 92B2     		uxth	r2, r2
 1465 00a4 1A80     		strh	r2, [r3]	@ movhi
 1466              	.L64:
 708:lib/chip/STM32F4xx_StdPeriph_Driver/src/stm32f4xx_flash.c ****     }
 709:lib/chip/STM32F4xx_StdPeriph_Driver/src/stm32f4xx_flash.c ****   }
 710:lib/chip/STM32F4xx_StdPeriph_Driver/src/stm32f4xx_flash.c **** }
 1467              		.loc 1 710 0
 1468 00a6 1037     		adds	r7, r7, #16
 1469 00a8 BD46     		mov	sp, r7
 1470              		@ sp needed
 1471 00aa 80BD     		pop	{r7, pc}
 1472              		.cfi_endproc
 1473              	.LFE126:
 1475              		.section	.text.FLASH_OB_RDPConfig,"ax",%progbits
 1476              		.align	2
 1477              		.global	FLASH_OB_RDPConfig
 1478              		.thumb
 1479              		.thumb_func
 1481              	FLASH_OB_RDPConfig:
 1482              	.LFB127:
 711:lib/chip/STM32F4xx_StdPeriph_Driver/src/stm32f4xx_flash.c **** 
 712:lib/chip/STM32F4xx_StdPeriph_Driver/src/stm32f4xx_flash.c **** /**
 713:lib/chip/STM32F4xx_StdPeriph_Driver/src/stm32f4xx_flash.c ****   * @brief  Sets the read protection level.
 714:lib/chip/STM32F4xx_StdPeriph_Driver/src/stm32f4xx_flash.c ****   * @param  OB_RDP: specifies the read protection level.
 715:lib/chip/STM32F4xx_StdPeriph_Driver/src/stm32f4xx_flash.c ****   *          This parameter can be one of the following values:
 716:lib/chip/STM32F4xx_StdPeriph_Driver/src/stm32f4xx_flash.c ****   *            @arg OB_RDP_Level_0: No protection
 717:lib/chip/STM32F4xx_StdPeriph_Driver/src/stm32f4xx_flash.c ****   *            @arg OB_RDP_Level_1: Read protection of the memory
 718:lib/chip/STM32F4xx_StdPeriph_Driver/src/stm32f4xx_flash.c ****   *            @arg OB_RDP_Level_2: Full chip protection
 719:lib/chip/STM32F4xx_StdPeriph_Driver/src/stm32f4xx_flash.c ****   *   
 720:lib/chip/STM32F4xx_StdPeriph_Driver/src/stm32f4xx_flash.c ****   * !!!Warning!!! When enabling OB_RDP level 2 it's no more possible to go back to level 1 or 0
 721:lib/chip/STM32F4xx_StdPeriph_Driver/src/stm32f4xx_flash.c ****   *    
 722:lib/chip/STM32F4xx_StdPeriph_Driver/src/stm32f4xx_flash.c ****   * @retval None
 723:lib/chip/STM32F4xx_StdPeriph_Driver/src/stm32f4xx_flash.c ****   */
 724:lib/chip/STM32F4xx_StdPeriph_Driver/src/stm32f4xx_flash.c **** void FLASH_OB_RDPConfig(uint8_t OB_RDP)
 725:lib/chip/STM32F4xx_StdPeriph_Driver/src/stm32f4xx_flash.c **** {
 1483              		.loc 1 725 0
 1484              		.cfi_startproc
 1485              		@ args = 0, pretend = 0, frame = 16
 1486              		@ frame_needed = 1, uses_anonymous_args = 0
 1487 0000 80B5     		push	{r7, lr}
 1488              	.LCFI45:
 1489              		.cfi_def_cfa_offset 8
 1490              		.cfi_offset 7, -8
 1491              		.cfi_offset 14, -4
 1492 0002 84B0     		sub	sp, sp, #16
 1493              	.LCFI46:
 1494              		.cfi_def_cfa_offset 24
 1495 0004 00AF     		add	r7, sp, #0
 1496              	.LCFI47:
 1497              		.cfi_def_cfa_register 7
 1498 0006 0346     		mov	r3, r0
 1499 0008 FB71     		strb	r3, [r7, #7]
 726:lib/chip/STM32F4xx_StdPeriph_Driver/src/stm32f4xx_flash.c ****   FLASH_Status status = FLASH_COMPLETE;
 1500              		.loc 1 726 0
 1501 000a 0823     		movs	r3, #8
 1502 000c FB73     		strb	r3, [r7, #15]
 727:lib/chip/STM32F4xx_StdPeriph_Driver/src/stm32f4xx_flash.c **** 
 728:lib/chip/STM32F4xx_StdPeriph_Driver/src/stm32f4xx_flash.c ****   /* Check the parameters */
 729:lib/chip/STM32F4xx_StdPeriph_Driver/src/stm32f4xx_flash.c ****   assert_param(IS_OB_RDP(OB_RDP));
 1503              		.loc 1 729 0
 1504 000e FB79     		ldrb	r3, [r7, #7]	@ zero_extendqisi2
 1505 0010 AA2B     		cmp	r3, #170
 1506 0012 0AD0     		beq	.L71
 1507              		.loc 1 729 0 is_stmt 0 discriminator 1
 1508 0014 FB79     		ldrb	r3, [r7, #7]	@ zero_extendqisi2
 1509 0016 552B     		cmp	r3, #85
 1510 0018 07D0     		beq	.L71
 1511 001a 40F20000 		movw	r0, #:lower16:.LC0
 1512 001e C0F20000 		movt	r0, #:upper16:.LC0
 1513 0022 40F2D921 		movw	r1, #729
 1514 0026 FFF7FEFF 		bl	assert_failed
 1515              	.L71:
 730:lib/chip/STM32F4xx_StdPeriph_Driver/src/stm32f4xx_flash.c **** 
 731:lib/chip/STM32F4xx_StdPeriph_Driver/src/stm32f4xx_flash.c ****   status = FLASH_WaitForLastOperation();
 1516              		.loc 1 731 0 is_stmt 1
 1517 002a FFF7FEFF 		bl	FLASH_WaitForLastOperation
 1518 002e 0346     		mov	r3, r0
 1519 0030 FB73     		strb	r3, [r7, #15]
 732:lib/chip/STM32F4xx_StdPeriph_Driver/src/stm32f4xx_flash.c **** 
 733:lib/chip/STM32F4xx_StdPeriph_Driver/src/stm32f4xx_flash.c ****   if(status == FLASH_COMPLETE)
 1520              		.loc 1 733 0
 1521 0032 FB7B     		ldrb	r3, [r7, #15]	@ zero_extendqisi2
 1522 0034 082B     		cmp	r3, #8
 1523 0036 05D1     		bne	.L70
 734:lib/chip/STM32F4xx_StdPeriph_Driver/src/stm32f4xx_flash.c ****   {
 735:lib/chip/STM32F4xx_StdPeriph_Driver/src/stm32f4xx_flash.c ****     *(__IO uint8_t*)OPTCR_BYTE1_ADDRESS = OB_RDP;
 1524              		.loc 1 735 0
 1525 0038 43F61543 		movw	r3, #15381
 1526 003c C4F20203 		movt	r3, 16386
 1527 0040 FA79     		ldrb	r2, [r7, #7]
 1528 0042 1A70     		strb	r2, [r3]
 1529              	.L70:
 736:lib/chip/STM32F4xx_StdPeriph_Driver/src/stm32f4xx_flash.c **** 
 737:lib/chip/STM32F4xx_StdPeriph_Driver/src/stm32f4xx_flash.c ****   }
 738:lib/chip/STM32F4xx_StdPeriph_Driver/src/stm32f4xx_flash.c **** }
 1530              		.loc 1 738 0
 1531 0044 1037     		adds	r7, r7, #16
 1532 0046 BD46     		mov	sp, r7
 1533              		@ sp needed
 1534 0048 80BD     		pop	{r7, pc}
 1535              		.cfi_endproc
 1536              	.LFE127:
 1538 004a 00BF     		.section	.text.FLASH_OB_UserConfig,"ax",%progbits
 1539              		.align	2
 1540              		.global	FLASH_OB_UserConfig
 1541              		.thumb
 1542              		.thumb_func
 1544              	FLASH_OB_UserConfig:
 1545              	.LFB128:
 739:lib/chip/STM32F4xx_StdPeriph_Driver/src/stm32f4xx_flash.c **** 
 740:lib/chip/STM32F4xx_StdPeriph_Driver/src/stm32f4xx_flash.c **** /**
 741:lib/chip/STM32F4xx_StdPeriph_Driver/src/stm32f4xx_flash.c ****   * @brief  Programs the FLASH User Option Byte: IWDG_SW / RST_STOP / RST_STDBY.    
 742:lib/chip/STM32F4xx_StdPeriph_Driver/src/stm32f4xx_flash.c ****   * @param  OB_IWDG: Selects the IWDG mode
 743:lib/chip/STM32F4xx_StdPeriph_Driver/src/stm32f4xx_flash.c ****   *          This parameter can be one of the following values:
 744:lib/chip/STM32F4xx_StdPeriph_Driver/src/stm32f4xx_flash.c ****   *            @arg OB_IWDG_SW: Software IWDG selected
 745:lib/chip/STM32F4xx_StdPeriph_Driver/src/stm32f4xx_flash.c ****   *            @arg OB_IWDG_HW: Hardware IWDG selected
 746:lib/chip/STM32F4xx_StdPeriph_Driver/src/stm32f4xx_flash.c ****   * @param  OB_STOP: Reset event when entering STOP mode.
 747:lib/chip/STM32F4xx_StdPeriph_Driver/src/stm32f4xx_flash.c ****   *          This parameter  can be one of the following values:
 748:lib/chip/STM32F4xx_StdPeriph_Driver/src/stm32f4xx_flash.c ****   *            @arg OB_STOP_NoRST: No reset generated when entering in STOP
 749:lib/chip/STM32F4xx_StdPeriph_Driver/src/stm32f4xx_flash.c ****   *            @arg OB_STOP_RST: Reset generated when entering in STOP
 750:lib/chip/STM32F4xx_StdPeriph_Driver/src/stm32f4xx_flash.c ****   * @param  OB_STDBY: Reset event when entering Standby mode.
 751:lib/chip/STM32F4xx_StdPeriph_Driver/src/stm32f4xx_flash.c ****   *          This parameter  can be one of the following values:
 752:lib/chip/STM32F4xx_StdPeriph_Driver/src/stm32f4xx_flash.c ****   *            @arg OB_STDBY_NoRST: No reset generated when entering in STANDBY
 753:lib/chip/STM32F4xx_StdPeriph_Driver/src/stm32f4xx_flash.c ****   *            @arg OB_STDBY_RST: Reset generated when entering in STANDBY
 754:lib/chip/STM32F4xx_StdPeriph_Driver/src/stm32f4xx_flash.c ****   * @retval None
 755:lib/chip/STM32F4xx_StdPeriph_Driver/src/stm32f4xx_flash.c ****   */
 756:lib/chip/STM32F4xx_StdPeriph_Driver/src/stm32f4xx_flash.c **** void FLASH_OB_UserConfig(uint8_t OB_IWDG, uint8_t OB_STOP, uint8_t OB_STDBY)
 757:lib/chip/STM32F4xx_StdPeriph_Driver/src/stm32f4xx_flash.c **** {
 1546              		.loc 1 757 0
 1547              		.cfi_startproc
 1548              		@ args = 0, pretend = 0, frame = 16
 1549              		@ frame_needed = 1, uses_anonymous_args = 0
 1550 0000 80B5     		push	{r7, lr}
 1551              	.LCFI48:
 1552              		.cfi_def_cfa_offset 8
 1553              		.cfi_offset 7, -8
 1554              		.cfi_offset 14, -4
 1555 0002 84B0     		sub	sp, sp, #16
 1556              	.LCFI49:
 1557              		.cfi_def_cfa_offset 24
 1558 0004 00AF     		add	r7, sp, #0
 1559              	.LCFI50:
 1560              		.cfi_def_cfa_register 7
 1561 0006 1346     		mov	r3, r2
 1562 0008 0246     		mov	r2, r0
 1563 000a FA71     		strb	r2, [r7, #7]
 1564 000c 0A46     		mov	r2, r1
 1565 000e BA71     		strb	r2, [r7, #6]
 1566 0010 7B71     		strb	r3, [r7, #5]
 758:lib/chip/STM32F4xx_StdPeriph_Driver/src/stm32f4xx_flash.c ****   uint8_t optiontmp = 0xFF;
 1567              		.loc 1 758 0
 1568 0012 FF23     		movs	r3, #255
 1569 0014 FB73     		strb	r3, [r7, #15]
 759:lib/chip/STM32F4xx_StdPeriph_Driver/src/stm32f4xx_flash.c ****   FLASH_Status status = FLASH_COMPLETE; 
 1570              		.loc 1 759 0
 1571 0016 0823     		movs	r3, #8
 1572 0018 BB73     		strb	r3, [r7, #14]
 760:lib/chip/STM32F4xx_StdPeriph_Driver/src/stm32f4xx_flash.c **** 
 761:lib/chip/STM32F4xx_StdPeriph_Driver/src/stm32f4xx_flash.c ****   /* Check the parameters */
 762:lib/chip/STM32F4xx_StdPeriph_Driver/src/stm32f4xx_flash.c ****   assert_param(IS_OB_IWDG_SOURCE(OB_IWDG));
 1573              		.loc 1 762 0
 1574 001a FB79     		ldrb	r3, [r7, #7]	@ zero_extendqisi2
 1575 001c 202B     		cmp	r3, #32
 1576 001e 0AD0     		beq	.L74
 1577              		.loc 1 762 0 is_stmt 0 discriminator 1
 1578 0020 FB79     		ldrb	r3, [r7, #7]	@ zero_extendqisi2
 1579 0022 002B     		cmp	r3, #0
 1580 0024 07D0     		beq	.L74
 1581 0026 40F20000 		movw	r0, #:lower16:.LC0
 1582 002a C0F20000 		movt	r0, #:upper16:.LC0
 1583 002e 40F2FA21 		movw	r1, #762
 1584 0032 FFF7FEFF 		bl	assert_failed
 1585              	.L74:
 763:lib/chip/STM32F4xx_StdPeriph_Driver/src/stm32f4xx_flash.c ****   assert_param(IS_OB_STOP_SOURCE(OB_STOP));
 1586              		.loc 1 763 0 is_stmt 1
 1587 0036 BB79     		ldrb	r3, [r7, #6]	@ zero_extendqisi2
 1588 0038 402B     		cmp	r3, #64
 1589 003a 0AD0     		beq	.L75
 1590              		.loc 1 763 0 is_stmt 0 discriminator 1
 1591 003c BB79     		ldrb	r3, [r7, #6]	@ zero_extendqisi2
 1592 003e 002B     		cmp	r3, #0
 1593 0040 07D0     		beq	.L75
 1594 0042 40F20000 		movw	r0, #:lower16:.LC0
 1595 0046 C0F20000 		movt	r0, #:upper16:.LC0
 1596 004a 40F2FB21 		movw	r1, #763
 1597 004e FFF7FEFF 		bl	assert_failed
 1598              	.L75:
 764:lib/chip/STM32F4xx_StdPeriph_Driver/src/stm32f4xx_flash.c ****   assert_param(IS_OB_STDBY_SOURCE(OB_STDBY));
 1599              		.loc 1 764 0 is_stmt 1
 1600 0052 7B79     		ldrb	r3, [r7, #5]	@ zero_extendqisi2
 1601 0054 802B     		cmp	r3, #128
 1602 0056 0AD0     		beq	.L76
 1603              		.loc 1 764 0 is_stmt 0 discriminator 1
 1604 0058 7B79     		ldrb	r3, [r7, #5]	@ zero_extendqisi2
 1605 005a 002B     		cmp	r3, #0
 1606 005c 07D0     		beq	.L76
 1607 005e 40F20000 		movw	r0, #:lower16:.LC0
 1608 0062 C0F20000 		movt	r0, #:upper16:.LC0
 1609 0066 4FF43F71 		mov	r1, #764
 1610 006a FFF7FEFF 		bl	assert_failed
 1611              	.L76:
 765:lib/chip/STM32F4xx_StdPeriph_Driver/src/stm32f4xx_flash.c **** 
 766:lib/chip/STM32F4xx_StdPeriph_Driver/src/stm32f4xx_flash.c ****   /* Wait for last operation to be completed */
 767:lib/chip/STM32F4xx_StdPeriph_Driver/src/stm32f4xx_flash.c ****   status = FLASH_WaitForLastOperation();
 1612              		.loc 1 767 0 is_stmt 1
 1613 006e FFF7FEFF 		bl	FLASH_WaitForLastOperation
 1614 0072 0346     		mov	r3, r0
 1615 0074 BB73     		strb	r3, [r7, #14]
 768:lib/chip/STM32F4xx_StdPeriph_Driver/src/stm32f4xx_flash.c ****   
 769:lib/chip/STM32F4xx_StdPeriph_Driver/src/stm32f4xx_flash.c ****   if(status == FLASH_COMPLETE)
 1616              		.loc 1 769 0
 1617 0076 BB7B     		ldrb	r3, [r7, #14]	@ zero_extendqisi2
 1618 0078 082B     		cmp	r3, #8
 1619 007a 17D1     		bne	.L73
 770:lib/chip/STM32F4xx_StdPeriph_Driver/src/stm32f4xx_flash.c ****   { 
 771:lib/chip/STM32F4xx_StdPeriph_Driver/src/stm32f4xx_flash.c ****     /* Mask OPTLOCK, OPTSTRT and BOR_LEV bits */
 772:lib/chip/STM32F4xx_StdPeriph_Driver/src/stm32f4xx_flash.c ****     optiontmp =  (uint8_t)((*(__IO uint8_t *)OPTCR_BYTE0_ADDRESS) & (uint8_t)0x0F); 
 1620              		.loc 1 772 0
 1621 007c 43F61443 		movw	r3, #15380
 1622 0080 C4F20203 		movt	r3, 16386
 1623 0084 1B78     		ldrb	r3, [r3]
 1624 0086 DBB2     		uxtb	r3, r3
 1625 0088 03F00F03 		and	r3, r3, #15
 1626 008c FB73     		strb	r3, [r7, #15]
 773:lib/chip/STM32F4xx_StdPeriph_Driver/src/stm32f4xx_flash.c **** 
 774:lib/chip/STM32F4xx_StdPeriph_Driver/src/stm32f4xx_flash.c ****     /* Update User Option Byte */
 775:lib/chip/STM32F4xx_StdPeriph_Driver/src/stm32f4xx_flash.c ****     *(__IO uint8_t *)OPTCR_BYTE0_ADDRESS = OB_IWDG | (uint8_t)(OB_STDBY | (uint8_t)(OB_STOP | ((uin
 1627              		.loc 1 775 0
 1628 008e 43F61443 		movw	r3, #15380
 1629 0092 C4F20203 		movt	r3, 16386
 1630 0096 B979     		ldrb	r1, [r7, #6]
 1631 0098 FA7B     		ldrb	r2, [r7, #15]
 1632 009a 0A43     		orrs	r2, r2, r1
 1633 009c D1B2     		uxtb	r1, r2
 1634 009e 7A79     		ldrb	r2, [r7, #5]
 1635 00a0 0A43     		orrs	r2, r2, r1
 1636 00a2 D1B2     		uxtb	r1, r2
 1637 00a4 FA79     		ldrb	r2, [r7, #7]
 1638 00a6 0A43     		orrs	r2, r2, r1
 1639 00a8 D2B2     		uxtb	r2, r2
 1640 00aa 1A70     		strb	r2, [r3]
 1641              	.L73:
 776:lib/chip/STM32F4xx_StdPeriph_Driver/src/stm32f4xx_flash.c ****   }  
 777:lib/chip/STM32F4xx_StdPeriph_Driver/src/stm32f4xx_flash.c **** }
 1642              		.loc 1 777 0
 1643 00ac 1037     		adds	r7, r7, #16
 1644 00ae BD46     		mov	sp, r7
 1645              		@ sp needed
 1646 00b0 80BD     		pop	{r7, pc}
 1647              		.cfi_endproc
 1648              	.LFE128:
 1650 00b2 00BF     		.section	.text.FLASH_OB_BORConfig,"ax",%progbits
 1651              		.align	2
 1652              		.global	FLASH_OB_BORConfig
 1653              		.thumb
 1654              		.thumb_func
 1656              	FLASH_OB_BORConfig:
 1657              	.LFB129:
 778:lib/chip/STM32F4xx_StdPeriph_Driver/src/stm32f4xx_flash.c **** 
 779:lib/chip/STM32F4xx_StdPeriph_Driver/src/stm32f4xx_flash.c **** /**
 780:lib/chip/STM32F4xx_StdPeriph_Driver/src/stm32f4xx_flash.c ****   * @brief  Sets the BOR Level. 
 781:lib/chip/STM32F4xx_StdPeriph_Driver/src/stm32f4xx_flash.c ****   * @param  OB_BOR: specifies the Option Bytes BOR Reset Level.
 782:lib/chip/STM32F4xx_StdPeriph_Driver/src/stm32f4xx_flash.c ****   *          This parameter can be one of the following values:
 783:lib/chip/STM32F4xx_StdPeriph_Driver/src/stm32f4xx_flash.c ****   *            @arg OB_BOR_LEVEL3: Supply voltage ranges from 2.7 to 3.6 V
 784:lib/chip/STM32F4xx_StdPeriph_Driver/src/stm32f4xx_flash.c ****   *            @arg OB_BOR_LEVEL2: Supply voltage ranges from 2.4 to 2.7 V
 785:lib/chip/STM32F4xx_StdPeriph_Driver/src/stm32f4xx_flash.c ****   *            @arg OB_BOR_LEVEL1: Supply voltage ranges from 2.1 to 2.4 V
 786:lib/chip/STM32F4xx_StdPeriph_Driver/src/stm32f4xx_flash.c ****   *            @arg OB_BOR_OFF: Supply voltage ranges from 1.62 to 2.1 V
 787:lib/chip/STM32F4xx_StdPeriph_Driver/src/stm32f4xx_flash.c ****   * @retval None
 788:lib/chip/STM32F4xx_StdPeriph_Driver/src/stm32f4xx_flash.c ****   */
 789:lib/chip/STM32F4xx_StdPeriph_Driver/src/stm32f4xx_flash.c **** void FLASH_OB_BORConfig(uint8_t OB_BOR)
 790:lib/chip/STM32F4xx_StdPeriph_Driver/src/stm32f4xx_flash.c **** {
 1658              		.loc 1 790 0
 1659              		.cfi_startproc
 1660              		@ args = 0, pretend = 0, frame = 8
 1661              		@ frame_needed = 1, uses_anonymous_args = 0
 1662 0000 80B5     		push	{r7, lr}
 1663              	.LCFI51:
 1664              		.cfi_def_cfa_offset 8
 1665              		.cfi_offset 7, -8
 1666              		.cfi_offset 14, -4
 1667 0002 82B0     		sub	sp, sp, #8
 1668              	.LCFI52:
 1669              		.cfi_def_cfa_offset 16
 1670 0004 00AF     		add	r7, sp, #0
 1671              	.LCFI53:
 1672              		.cfi_def_cfa_register 7
 1673 0006 0346     		mov	r3, r0
 1674 0008 FB71     		strb	r3, [r7, #7]
 791:lib/chip/STM32F4xx_StdPeriph_Driver/src/stm32f4xx_flash.c ****   /* Check the parameters */
 792:lib/chip/STM32F4xx_StdPeriph_Driver/src/stm32f4xx_flash.c ****   assert_param(IS_OB_BOR(OB_BOR));
 1675              		.loc 1 792 0
 1676 000a FB79     		ldrb	r3, [r7, #7]	@ zero_extendqisi2
 1677 000c 082B     		cmp	r3, #8
 1678 000e 10D0     		beq	.L79
 1679              		.loc 1 792 0 is_stmt 0 discriminator 1
 1680 0010 FB79     		ldrb	r3, [r7, #7]	@ zero_extendqisi2
 1681 0012 042B     		cmp	r3, #4
 1682 0014 0DD0     		beq	.L79
 1683 0016 FB79     		ldrb	r3, [r7, #7]	@ zero_extendqisi2
 1684 0018 002B     		cmp	r3, #0
 1685 001a 0AD0     		beq	.L79
 1686 001c FB79     		ldrb	r3, [r7, #7]	@ zero_extendqisi2
 1687 001e 0C2B     		cmp	r3, #12
 1688 0020 07D0     		beq	.L79
 1689 0022 40F20000 		movw	r0, #:lower16:.LC0
 1690 0026 C0F20000 		movt	r0, #:upper16:.LC0
 1691 002a 4FF44671 		mov	r1, #792
 1692 002e FFF7FEFF 		bl	assert_failed
 1693              	.L79:
 793:lib/chip/STM32F4xx_StdPeriph_Driver/src/stm32f4xx_flash.c **** 
 794:lib/chip/STM32F4xx_StdPeriph_Driver/src/stm32f4xx_flash.c ****   /* Set the BOR Level */
 795:lib/chip/STM32F4xx_StdPeriph_Driver/src/stm32f4xx_flash.c ****   *(__IO uint8_t *)OPTCR_BYTE0_ADDRESS &= (~FLASH_OPTCR_BOR_LEV);
 1694              		.loc 1 795 0 is_stmt 1
 1695 0032 43F61443 		movw	r3, #15380
 1696 0036 C4F20203 		movt	r3, 16386
 1697 003a 43F61442 		movw	r2, #15380
 1698 003e C4F20202 		movt	r2, 16386
 1699 0042 1278     		ldrb	r2, [r2]
 1700 0044 D2B2     		uxtb	r2, r2
 1701 0046 22F00C02 		bic	r2, r2, #12
 1702 004a D2B2     		uxtb	r2, r2
 1703 004c 1A70     		strb	r2, [r3]
 796:lib/chip/STM32F4xx_StdPeriph_Driver/src/stm32f4xx_flash.c ****   *(__IO uint8_t *)OPTCR_BYTE0_ADDRESS |= OB_BOR;
 1704              		.loc 1 796 0
 1705 004e 43F61443 		movw	r3, #15380
 1706 0052 C4F20203 		movt	r3, 16386
 1707 0056 43F61442 		movw	r2, #15380
 1708 005a C4F20202 		movt	r2, 16386
 1709 005e 1278     		ldrb	r2, [r2]
 1710 0060 D1B2     		uxtb	r1, r2
 1711 0062 FA79     		ldrb	r2, [r7, #7]
 1712 0064 0A43     		orrs	r2, r2, r1
 1713 0066 D2B2     		uxtb	r2, r2
 1714 0068 1A70     		strb	r2, [r3]
 797:lib/chip/STM32F4xx_StdPeriph_Driver/src/stm32f4xx_flash.c **** 
 798:lib/chip/STM32F4xx_StdPeriph_Driver/src/stm32f4xx_flash.c **** }
 1715              		.loc 1 798 0
 1716 006a 0837     		adds	r7, r7, #8
 1717 006c BD46     		mov	sp, r7
 1718              		@ sp needed
 1719 006e 80BD     		pop	{r7, pc}
 1720              		.cfi_endproc
 1721              	.LFE129:
 1723              		.section	.text.FLASH_OB_Launch,"ax",%progbits
 1724              		.align	2
 1725              		.global	FLASH_OB_Launch
 1726              		.thumb
 1727              		.thumb_func
 1729              	FLASH_OB_Launch:
 1730              	.LFB130:
 799:lib/chip/STM32F4xx_StdPeriph_Driver/src/stm32f4xx_flash.c **** 
 800:lib/chip/STM32F4xx_StdPeriph_Driver/src/stm32f4xx_flash.c **** /**
 801:lib/chip/STM32F4xx_StdPeriph_Driver/src/stm32f4xx_flash.c ****   * @brief  Launch the option byte loading.
 802:lib/chip/STM32F4xx_StdPeriph_Driver/src/stm32f4xx_flash.c ****   * @param  None
 803:lib/chip/STM32F4xx_StdPeriph_Driver/src/stm32f4xx_flash.c ****   * @retval FLASH Status: The returned value can be: FLASH_BUSY, FLASH_ERROR_PROGRAM,
 804:lib/chip/STM32F4xx_StdPeriph_Driver/src/stm32f4xx_flash.c ****   *                       FLASH_ERROR_WRP, FLASH_ERROR_OPERATION or FLASH_COMPLETE.
 805:lib/chip/STM32F4xx_StdPeriph_Driver/src/stm32f4xx_flash.c ****   */
 806:lib/chip/STM32F4xx_StdPeriph_Driver/src/stm32f4xx_flash.c **** FLASH_Status FLASH_OB_Launch(void)
 807:lib/chip/STM32F4xx_StdPeriph_Driver/src/stm32f4xx_flash.c **** {
 1731              		.loc 1 807 0
 1732              		.cfi_startproc
 1733              		@ args = 0, pretend = 0, frame = 8
 1734              		@ frame_needed = 1, uses_anonymous_args = 0
 1735 0000 80B5     		push	{r7, lr}
 1736              	.LCFI54:
 1737              		.cfi_def_cfa_offset 8
 1738              		.cfi_offset 7, -8
 1739              		.cfi_offset 14, -4
 1740 0002 82B0     		sub	sp, sp, #8
 1741              	.LCFI55:
 1742              		.cfi_def_cfa_offset 16
 1743 0004 00AF     		add	r7, sp, #0
 1744              	.LCFI56:
 1745              		.cfi_def_cfa_register 7
 808:lib/chip/STM32F4xx_StdPeriph_Driver/src/stm32f4xx_flash.c ****   FLASH_Status status = FLASH_COMPLETE;
 1746              		.loc 1 808 0
 1747 0006 0823     		movs	r3, #8
 1748 0008 FB71     		strb	r3, [r7, #7]
 809:lib/chip/STM32F4xx_StdPeriph_Driver/src/stm32f4xx_flash.c **** 
 810:lib/chip/STM32F4xx_StdPeriph_Driver/src/stm32f4xx_flash.c ****   /* Set the OPTSTRT bit in OPTCR register */
 811:lib/chip/STM32F4xx_StdPeriph_Driver/src/stm32f4xx_flash.c ****   *(__IO uint8_t *)OPTCR_BYTE0_ADDRESS |= FLASH_OPTCR_OPTSTRT;
 1749              		.loc 1 811 0
 1750 000a 43F61443 		movw	r3, #15380
 1751 000e C4F20203 		movt	r3, 16386
 1752 0012 43F61442 		movw	r2, #15380
 1753 0016 C4F20202 		movt	r2, 16386
 1754 001a 1278     		ldrb	r2, [r2]
 1755 001c D2B2     		uxtb	r2, r2
 1756 001e 42F00202 		orr	r2, r2, #2
 1757 0022 D2B2     		uxtb	r2, r2
 1758 0024 1A70     		strb	r2, [r3]
 812:lib/chip/STM32F4xx_StdPeriph_Driver/src/stm32f4xx_flash.c **** 
 813:lib/chip/STM32F4xx_StdPeriph_Driver/src/stm32f4xx_flash.c ****   /* Wait for last operation to be completed */
 814:lib/chip/STM32F4xx_StdPeriph_Driver/src/stm32f4xx_flash.c ****   status = FLASH_WaitForLastOperation();
 1759              		.loc 1 814 0
 1760 0026 FFF7FEFF 		bl	FLASH_WaitForLastOperation
 1761 002a 0346     		mov	r3, r0
 1762 002c FB71     		strb	r3, [r7, #7]
 815:lib/chip/STM32F4xx_StdPeriph_Driver/src/stm32f4xx_flash.c **** 
 816:lib/chip/STM32F4xx_StdPeriph_Driver/src/stm32f4xx_flash.c ****   return status;
 1763              		.loc 1 816 0
 1764 002e FB79     		ldrb	r3, [r7, #7]	@ zero_extendqisi2
 817:lib/chip/STM32F4xx_StdPeriph_Driver/src/stm32f4xx_flash.c **** }
 1765              		.loc 1 817 0
 1766 0030 1846     		mov	r0, r3
 1767 0032 0837     		adds	r7, r7, #8
 1768 0034 BD46     		mov	sp, r7
 1769              		@ sp needed
 1770 0036 80BD     		pop	{r7, pc}
 1771              		.cfi_endproc
 1772              	.LFE130:
 1774              		.section	.text.FLASH_OB_GetUser,"ax",%progbits
 1775              		.align	2
 1776              		.global	FLASH_OB_GetUser
 1777              		.thumb
 1778              		.thumb_func
 1780              	FLASH_OB_GetUser:
 1781              	.LFB131:
 818:lib/chip/STM32F4xx_StdPeriph_Driver/src/stm32f4xx_flash.c **** 
 819:lib/chip/STM32F4xx_StdPeriph_Driver/src/stm32f4xx_flash.c **** /**
 820:lib/chip/STM32F4xx_StdPeriph_Driver/src/stm32f4xx_flash.c ****   * @brief  Returns the FLASH User Option Bytes values.
 821:lib/chip/STM32F4xx_StdPeriph_Driver/src/stm32f4xx_flash.c ****   * @param  None
 822:lib/chip/STM32F4xx_StdPeriph_Driver/src/stm32f4xx_flash.c ****   * @retval The FLASH User Option Bytes values: IWDG_SW(Bit0), RST_STOP(Bit1)
 823:lib/chip/STM32F4xx_StdPeriph_Driver/src/stm32f4xx_flash.c ****   *         and RST_STDBY(Bit2).
 824:lib/chip/STM32F4xx_StdPeriph_Driver/src/stm32f4xx_flash.c ****   */
 825:lib/chip/STM32F4xx_StdPeriph_Driver/src/stm32f4xx_flash.c **** uint8_t FLASH_OB_GetUser(void)
 826:lib/chip/STM32F4xx_StdPeriph_Driver/src/stm32f4xx_flash.c **** {
 1782              		.loc 1 826 0
 1783              		.cfi_startproc
 1784              		@ args = 0, pretend = 0, frame = 0
 1785              		@ frame_needed = 1, uses_anonymous_args = 0
 1786              		@ link register save eliminated.
 1787 0000 80B4     		push	{r7}
 1788              	.LCFI57:
 1789              		.cfi_def_cfa_offset 4
 1790              		.cfi_offset 7, -4
 1791 0002 00AF     		add	r7, sp, #0
 1792              	.LCFI58:
 1793              		.cfi_def_cfa_register 7
 827:lib/chip/STM32F4xx_StdPeriph_Driver/src/stm32f4xx_flash.c ****   /* Return the User Option Byte */
 828:lib/chip/STM32F4xx_StdPeriph_Driver/src/stm32f4xx_flash.c ****   return (uint8_t)(FLASH->OPTCR >> 5);
 1794              		.loc 1 828 0
 1795 0004 4FF47053 		mov	r3, #15360
 1796 0008 C4F20203 		movt	r3, 16386
 1797 000c 5B69     		ldr	r3, [r3, #20]
 1798 000e 5B09     		lsrs	r3, r3, #5
 1799 0010 DBB2     		uxtb	r3, r3
 829:lib/chip/STM32F4xx_StdPeriph_Driver/src/stm32f4xx_flash.c **** }
 1800              		.loc 1 829 0
 1801 0012 1846     		mov	r0, r3
 1802 0014 BD46     		mov	sp, r7
 1803              		@ sp needed
 1804 0016 5DF8047B 		ldr	r7, [sp], #4
 1805 001a 7047     		bx	lr
 1806              		.cfi_endproc
 1807              	.LFE131:
 1809              		.section	.text.FLASH_OB_GetWRP,"ax",%progbits
 1810              		.align	2
 1811              		.global	FLASH_OB_GetWRP
 1812              		.thumb
 1813              		.thumb_func
 1815              	FLASH_OB_GetWRP:
 1816              	.LFB132:
 830:lib/chip/STM32F4xx_StdPeriph_Driver/src/stm32f4xx_flash.c **** 
 831:lib/chip/STM32F4xx_StdPeriph_Driver/src/stm32f4xx_flash.c **** /**
 832:lib/chip/STM32F4xx_StdPeriph_Driver/src/stm32f4xx_flash.c ****   * @brief  Returns the FLASH Write Protection Option Bytes value.
 833:lib/chip/STM32F4xx_StdPeriph_Driver/src/stm32f4xx_flash.c ****   * @param  None
 834:lib/chip/STM32F4xx_StdPeriph_Driver/src/stm32f4xx_flash.c ****   * @retval The FLASH Write Protection  Option Bytes value
 835:lib/chip/STM32F4xx_StdPeriph_Driver/src/stm32f4xx_flash.c ****   */
 836:lib/chip/STM32F4xx_StdPeriph_Driver/src/stm32f4xx_flash.c **** uint16_t FLASH_OB_GetWRP(void)
 837:lib/chip/STM32F4xx_StdPeriph_Driver/src/stm32f4xx_flash.c **** {
 1817              		.loc 1 837 0
 1818              		.cfi_startproc
 1819              		@ args = 0, pretend = 0, frame = 0
 1820              		@ frame_needed = 1, uses_anonymous_args = 0
 1821              		@ link register save eliminated.
 1822 0000 80B4     		push	{r7}
 1823              	.LCFI59:
 1824              		.cfi_def_cfa_offset 4
 1825              		.cfi_offset 7, -4
 1826 0002 00AF     		add	r7, sp, #0
 1827              	.LCFI60:
 1828              		.cfi_def_cfa_register 7
 838:lib/chip/STM32F4xx_StdPeriph_Driver/src/stm32f4xx_flash.c ****   /* Return the FLASH write protection Register value */
 839:lib/chip/STM32F4xx_StdPeriph_Driver/src/stm32f4xx_flash.c ****   return (*(__IO uint16_t *)(OPTCR_BYTE2_ADDRESS));
 1829              		.loc 1 839 0
 1830 0004 43F61643 		movw	r3, #15382
 1831 0008 C4F20203 		movt	r3, 16386
 1832 000c 1B88     		ldrh	r3, [r3]	@ movhi
 1833 000e 9BB2     		uxth	r3, r3
 840:lib/chip/STM32F4xx_StdPeriph_Driver/src/stm32f4xx_flash.c **** }
 1834              		.loc 1 840 0
 1835 0010 1846     		mov	r0, r3
 1836 0012 BD46     		mov	sp, r7
 1837              		@ sp needed
 1838 0014 5DF8047B 		ldr	r7, [sp], #4
 1839 0018 7047     		bx	lr
 1840              		.cfi_endproc
 1841              	.LFE132:
 1843 001a 00BF     		.section	.text.FLASH_OB_GetRDP,"ax",%progbits
 1844              		.align	2
 1845              		.global	FLASH_OB_GetRDP
 1846              		.thumb
 1847              		.thumb_func
 1849              	FLASH_OB_GetRDP:
 1850              	.LFB133:
 841:lib/chip/STM32F4xx_StdPeriph_Driver/src/stm32f4xx_flash.c **** 
 842:lib/chip/STM32F4xx_StdPeriph_Driver/src/stm32f4xx_flash.c **** /**
 843:lib/chip/STM32F4xx_StdPeriph_Driver/src/stm32f4xx_flash.c ****   * @brief  Returns the FLASH Read Protection level.
 844:lib/chip/STM32F4xx_StdPeriph_Driver/src/stm32f4xx_flash.c ****   * @param  None
 845:lib/chip/STM32F4xx_StdPeriph_Driver/src/stm32f4xx_flash.c ****   * @retval FLASH ReadOut Protection Status:
 846:lib/chip/STM32F4xx_StdPeriph_Driver/src/stm32f4xx_flash.c ****   *           - SET, when OB_RDP_Level_1 or OB_RDP_Level_2 is set
 847:lib/chip/STM32F4xx_StdPeriph_Driver/src/stm32f4xx_flash.c ****   *           - RESET, when OB_RDP_Level_0 is set
 848:lib/chip/STM32F4xx_StdPeriph_Driver/src/stm32f4xx_flash.c ****   */
 849:lib/chip/STM32F4xx_StdPeriph_Driver/src/stm32f4xx_flash.c **** FlagStatus FLASH_OB_GetRDP(void)
 850:lib/chip/STM32F4xx_StdPeriph_Driver/src/stm32f4xx_flash.c **** {
 1851              		.loc 1 850 0
 1852              		.cfi_startproc
 1853              		@ args = 0, pretend = 0, frame = 8
 1854              		@ frame_needed = 1, uses_anonymous_args = 0
 1855              		@ link register save eliminated.
 1856 0000 80B4     		push	{r7}
 1857              	.LCFI61:
 1858              		.cfi_def_cfa_offset 4
 1859              		.cfi_offset 7, -4
 1860 0002 83B0     		sub	sp, sp, #12
 1861              	.LCFI62:
 1862              		.cfi_def_cfa_offset 16
 1863 0004 00AF     		add	r7, sp, #0
 1864              	.LCFI63:
 1865              		.cfi_def_cfa_register 7
 851:lib/chip/STM32F4xx_StdPeriph_Driver/src/stm32f4xx_flash.c ****   FlagStatus readstatus = RESET;
 1866              		.loc 1 851 0
 1867 0006 0023     		movs	r3, #0
 1868 0008 FB71     		strb	r3, [r7, #7]
 852:lib/chip/STM32F4xx_StdPeriph_Driver/src/stm32f4xx_flash.c **** 
 853:lib/chip/STM32F4xx_StdPeriph_Driver/src/stm32f4xx_flash.c ****   if ((*(__IO uint8_t*)(OPTCR_BYTE1_ADDRESS) != (uint8_t)OB_RDP_Level_0))
 1869              		.loc 1 853 0
 1870 000a 43F61543 		movw	r3, #15381
 1871 000e C4F20203 		movt	r3, 16386
 1872 0012 1B78     		ldrb	r3, [r3]
 1873 0014 DBB2     		uxtb	r3, r3
 1874 0016 AA2B     		cmp	r3, #170
 1875 0018 02D0     		beq	.L87
 854:lib/chip/STM32F4xx_StdPeriph_Driver/src/stm32f4xx_flash.c ****   {
 855:lib/chip/STM32F4xx_StdPeriph_Driver/src/stm32f4xx_flash.c ****     readstatus = SET;
 1876              		.loc 1 855 0
 1877 001a 0123     		movs	r3, #1
 1878 001c FB71     		strb	r3, [r7, #7]
 1879 001e 01E0     		b	.L88
 1880              	.L87:
 856:lib/chip/STM32F4xx_StdPeriph_Driver/src/stm32f4xx_flash.c ****   }
 857:lib/chip/STM32F4xx_StdPeriph_Driver/src/stm32f4xx_flash.c ****   else
 858:lib/chip/STM32F4xx_StdPeriph_Driver/src/stm32f4xx_flash.c ****   {
 859:lib/chip/STM32F4xx_StdPeriph_Driver/src/stm32f4xx_flash.c ****     readstatus = RESET;
 1881              		.loc 1 859 0
 1882 0020 0023     		movs	r3, #0
 1883 0022 FB71     		strb	r3, [r7, #7]
 1884              	.L88:
 860:lib/chip/STM32F4xx_StdPeriph_Driver/src/stm32f4xx_flash.c ****   }
 861:lib/chip/STM32F4xx_StdPeriph_Driver/src/stm32f4xx_flash.c ****   return readstatus;
 1885              		.loc 1 861 0
 1886 0024 FB79     		ldrb	r3, [r7, #7]	@ zero_extendqisi2
 862:lib/chip/STM32F4xx_StdPeriph_Driver/src/stm32f4xx_flash.c **** }
 1887              		.loc 1 862 0
 1888 0026 1846     		mov	r0, r3
 1889 0028 0C37     		adds	r7, r7, #12
 1890 002a BD46     		mov	sp, r7
 1891              		@ sp needed
 1892 002c 5DF8047B 		ldr	r7, [sp], #4
 1893 0030 7047     		bx	lr
 1894              		.cfi_endproc
 1895              	.LFE133:
 1897 0032 00BF     		.section	.text.FLASH_OB_GetBOR,"ax",%progbits
 1898              		.align	2
 1899              		.global	FLASH_OB_GetBOR
 1900              		.thumb
 1901              		.thumb_func
 1903              	FLASH_OB_GetBOR:
 1904              	.LFB134:
 863:lib/chip/STM32F4xx_StdPeriph_Driver/src/stm32f4xx_flash.c **** 
 864:lib/chip/STM32F4xx_StdPeriph_Driver/src/stm32f4xx_flash.c **** /**
 865:lib/chip/STM32F4xx_StdPeriph_Driver/src/stm32f4xx_flash.c ****   * @brief  Returns the FLASH BOR level.
 866:lib/chip/STM32F4xx_StdPeriph_Driver/src/stm32f4xx_flash.c ****   * @param  None
 867:lib/chip/STM32F4xx_StdPeriph_Driver/src/stm32f4xx_flash.c ****   * @retval The FLASH BOR level:
 868:lib/chip/STM32F4xx_StdPeriph_Driver/src/stm32f4xx_flash.c ****   *           - OB_BOR_LEVEL3: Supply voltage ranges from 2.7 to 3.6 V
 869:lib/chip/STM32F4xx_StdPeriph_Driver/src/stm32f4xx_flash.c ****   *           - OB_BOR_LEVEL2: Supply voltage ranges from 2.4 to 2.7 V
 870:lib/chip/STM32F4xx_StdPeriph_Driver/src/stm32f4xx_flash.c ****   *           - OB_BOR_LEVEL1: Supply voltage ranges from 2.1 to 2.4 V
 871:lib/chip/STM32F4xx_StdPeriph_Driver/src/stm32f4xx_flash.c ****   *           - OB_BOR_OFF   : Supply voltage ranges from 1.62 to 2.1 V  
 872:lib/chip/STM32F4xx_StdPeriph_Driver/src/stm32f4xx_flash.c ****   */
 873:lib/chip/STM32F4xx_StdPeriph_Driver/src/stm32f4xx_flash.c **** uint8_t FLASH_OB_GetBOR(void)
 874:lib/chip/STM32F4xx_StdPeriph_Driver/src/stm32f4xx_flash.c **** {
 1905              		.loc 1 874 0
 1906              		.cfi_startproc
 1907              		@ args = 0, pretend = 0, frame = 0
 1908              		@ frame_needed = 1, uses_anonymous_args = 0
 1909              		@ link register save eliminated.
 1910 0000 80B4     		push	{r7}
 1911              	.LCFI64:
 1912              		.cfi_def_cfa_offset 4
 1913              		.cfi_offset 7, -4
 1914 0002 00AF     		add	r7, sp, #0
 1915              	.LCFI65:
 1916              		.cfi_def_cfa_register 7
 875:lib/chip/STM32F4xx_StdPeriph_Driver/src/stm32f4xx_flash.c ****   /* Return the FLASH BOR level */
 876:lib/chip/STM32F4xx_StdPeriph_Driver/src/stm32f4xx_flash.c ****   return (uint8_t)(*(__IO uint8_t *)(OPTCR_BYTE0_ADDRESS) & (uint8_t)0x0C);
 1917              		.loc 1 876 0
 1918 0004 43F61443 		movw	r3, #15380
 1919 0008 C4F20203 		movt	r3, 16386
 1920 000c 1B78     		ldrb	r3, [r3]
 1921 000e DBB2     		uxtb	r3, r3
 1922 0010 03F00C03 		and	r3, r3, #12
 1923 0014 DBB2     		uxtb	r3, r3
 877:lib/chip/STM32F4xx_StdPeriph_Driver/src/stm32f4xx_flash.c **** }
 1924              		.loc 1 877 0
 1925 0016 1846     		mov	r0, r3
 1926 0018 BD46     		mov	sp, r7
 1927              		@ sp needed
 1928 001a 5DF8047B 		ldr	r7, [sp], #4
 1929 001e 7047     		bx	lr
 1930              		.cfi_endproc
 1931              	.LFE134:
 1933              		.section	.text.FLASH_ITConfig,"ax",%progbits
 1934              		.align	2
 1935              		.global	FLASH_ITConfig
 1936              		.thumb
 1937              		.thumb_func
 1939              	FLASH_ITConfig:
 1940              	.LFB135:
 878:lib/chip/STM32F4xx_StdPeriph_Driver/src/stm32f4xx_flash.c **** 
 879:lib/chip/STM32F4xx_StdPeriph_Driver/src/stm32f4xx_flash.c **** /**
 880:lib/chip/STM32F4xx_StdPeriph_Driver/src/stm32f4xx_flash.c ****   * @}
 881:lib/chip/STM32F4xx_StdPeriph_Driver/src/stm32f4xx_flash.c ****   */
 882:lib/chip/STM32F4xx_StdPeriph_Driver/src/stm32f4xx_flash.c **** 
 883:lib/chip/STM32F4xx_StdPeriph_Driver/src/stm32f4xx_flash.c **** /** @defgroup FLASH_Group4 Interrupts and flags management functions
 884:lib/chip/STM32F4xx_StdPeriph_Driver/src/stm32f4xx_flash.c ****  *  @brief   Interrupts and flags management functions
 885:lib/chip/STM32F4xx_StdPeriph_Driver/src/stm32f4xx_flash.c ****  *
 886:lib/chip/STM32F4xx_StdPeriph_Driver/src/stm32f4xx_flash.c **** @verbatim   
 887:lib/chip/STM32F4xx_StdPeriph_Driver/src/stm32f4xx_flash.c ****  ===============================================================================
 888:lib/chip/STM32F4xx_StdPeriph_Driver/src/stm32f4xx_flash.c ****                   Interrupts and flags management functions
 889:lib/chip/STM32F4xx_StdPeriph_Driver/src/stm32f4xx_flash.c ****  ===============================================================================  
 890:lib/chip/STM32F4xx_StdPeriph_Driver/src/stm32f4xx_flash.c **** 
 891:lib/chip/STM32F4xx_StdPeriph_Driver/src/stm32f4xx_flash.c **** @endverbatim
 892:lib/chip/STM32F4xx_StdPeriph_Driver/src/stm32f4xx_flash.c ****   * @{
 893:lib/chip/STM32F4xx_StdPeriph_Driver/src/stm32f4xx_flash.c ****   */
 894:lib/chip/STM32F4xx_StdPeriph_Driver/src/stm32f4xx_flash.c **** 
 895:lib/chip/STM32F4xx_StdPeriph_Driver/src/stm32f4xx_flash.c **** /**
 896:lib/chip/STM32F4xx_StdPeriph_Driver/src/stm32f4xx_flash.c ****   * @brief  Enables or disables the specified FLASH interrupts.
 897:lib/chip/STM32F4xx_StdPeriph_Driver/src/stm32f4xx_flash.c ****   * @param  FLASH_IT: specifies the FLASH interrupt sources to be enabled or disabled.
 898:lib/chip/STM32F4xx_StdPeriph_Driver/src/stm32f4xx_flash.c ****   *          This parameter can be any combination of the following values:
 899:lib/chip/STM32F4xx_StdPeriph_Driver/src/stm32f4xx_flash.c ****   *            @arg FLASH_IT_ERR: FLASH Error Interrupt
 900:lib/chip/STM32F4xx_StdPeriph_Driver/src/stm32f4xx_flash.c ****   *            @arg FLASH_IT_EOP: FLASH end of operation Interrupt
 901:lib/chip/STM32F4xx_StdPeriph_Driver/src/stm32f4xx_flash.c ****   * @retval None 
 902:lib/chip/STM32F4xx_StdPeriph_Driver/src/stm32f4xx_flash.c ****   */
 903:lib/chip/STM32F4xx_StdPeriph_Driver/src/stm32f4xx_flash.c **** void FLASH_ITConfig(uint32_t FLASH_IT, FunctionalState NewState)
 904:lib/chip/STM32F4xx_StdPeriph_Driver/src/stm32f4xx_flash.c **** {
 1941              		.loc 1 904 0
 1942              		.cfi_startproc
 1943              		@ args = 0, pretend = 0, frame = 8
 1944              		@ frame_needed = 1, uses_anonymous_args = 0
 1945 0000 80B5     		push	{r7, lr}
 1946              	.LCFI66:
 1947              		.cfi_def_cfa_offset 8
 1948              		.cfi_offset 7, -8
 1949              		.cfi_offset 14, -4
 1950 0002 82B0     		sub	sp, sp, #8
 1951              	.LCFI67:
 1952              		.cfi_def_cfa_offset 16
 1953 0004 00AF     		add	r7, sp, #0
 1954              	.LCFI68:
 1955              		.cfi_def_cfa_register 7
 1956 0006 7860     		str	r0, [r7, #4]
 1957 0008 0B46     		mov	r3, r1
 1958 000a FB70     		strb	r3, [r7, #3]
 905:lib/chip/STM32F4xx_StdPeriph_Driver/src/stm32f4xx_flash.c ****   /* Check the parameters */
 906:lib/chip/STM32F4xx_StdPeriph_Driver/src/stm32f4xx_flash.c ****   assert_param(IS_FLASH_IT(FLASH_IT)); 
 1959              		.loc 1 906 0
 1960 000c 7B68     		ldr	r3, [r7, #4]
 1961 000e 23F04073 		bic	r3, r3, #50331648
 1962 0012 002B     		cmp	r3, #0
 1963 0014 02D1     		bne	.L93
 1964              		.loc 1 906 0 is_stmt 0 discriminator 2
 1965 0016 7B68     		ldr	r3, [r7, #4]
 1966 0018 002B     		cmp	r3, #0
 1967 001a 07D1     		bne	.L94
 1968              	.L93:
 1969              		.loc 1 906 0 discriminator 1
 1970 001c 40F20000 		movw	r0, #:lower16:.LC0
 1971 0020 C0F20000 		movt	r0, #:upper16:.LC0
 1972 0024 40F28A31 		movw	r1, #906
 1973 0028 FFF7FEFF 		bl	assert_failed
 1974              	.L94:
 907:lib/chip/STM32F4xx_StdPeriph_Driver/src/stm32f4xx_flash.c ****   assert_param(IS_FUNCTIONAL_STATE(NewState));
 1975              		.loc 1 907 0 is_stmt 1
 1976 002c FB78     		ldrb	r3, [r7, #3]	@ zero_extendqisi2
 1977 002e 002B     		cmp	r3, #0
 1978 0030 0AD0     		beq	.L95
 1979              		.loc 1 907 0 is_stmt 0 discriminator 1
 1980 0032 FB78     		ldrb	r3, [r7, #3]	@ zero_extendqisi2
 1981 0034 012B     		cmp	r3, #1
 1982 0036 07D0     		beq	.L95
 1983 0038 40F20000 		movw	r0, #:lower16:.LC0
 1984 003c C0F20000 		movt	r0, #:upper16:.LC0
 1985 0040 40F28B31 		movw	r1, #907
 1986 0044 FFF7FEFF 		bl	assert_failed
 1987              	.L95:
 908:lib/chip/STM32F4xx_StdPeriph_Driver/src/stm32f4xx_flash.c **** 
 909:lib/chip/STM32F4xx_StdPeriph_Driver/src/stm32f4xx_flash.c ****   if(NewState != DISABLE)
 1988              		.loc 1 909 0 is_stmt 1
 1989 0048 FB78     		ldrb	r3, [r7, #3]	@ zero_extendqisi2
 1990 004a 002B     		cmp	r3, #0
 1991 004c 0CD0     		beq	.L96
 910:lib/chip/STM32F4xx_StdPeriph_Driver/src/stm32f4xx_flash.c ****   {
 911:lib/chip/STM32F4xx_StdPeriph_Driver/src/stm32f4xx_flash.c ****     /* Enable the interrupt sources */
 912:lib/chip/STM32F4xx_StdPeriph_Driver/src/stm32f4xx_flash.c ****     FLASH->CR |= FLASH_IT;
 1992              		.loc 1 912 0
 1993 004e 4FF47053 		mov	r3, #15360
 1994 0052 C4F20203 		movt	r3, 16386
 1995 0056 4FF47052 		mov	r2, #15360
 1996 005a C4F20202 		movt	r2, 16386
 1997 005e 1169     		ldr	r1, [r2, #16]
 1998 0060 7A68     		ldr	r2, [r7, #4]
 1999 0062 0A43     		orrs	r2, r2, r1
 2000 0064 1A61     		str	r2, [r3, #16]
 2001 0066 0CE0     		b	.L92
 2002              	.L96:
 913:lib/chip/STM32F4xx_StdPeriph_Driver/src/stm32f4xx_flash.c ****   }
 914:lib/chip/STM32F4xx_StdPeriph_Driver/src/stm32f4xx_flash.c ****   else
 915:lib/chip/STM32F4xx_StdPeriph_Driver/src/stm32f4xx_flash.c ****   {
 916:lib/chip/STM32F4xx_StdPeriph_Driver/src/stm32f4xx_flash.c ****     /* Disable the interrupt sources */
 917:lib/chip/STM32F4xx_StdPeriph_Driver/src/stm32f4xx_flash.c ****     FLASH->CR &= ~(uint32_t)FLASH_IT;
 2003              		.loc 1 917 0
 2004 0068 4FF47053 		mov	r3, #15360
 2005 006c C4F20203 		movt	r3, 16386
 2006 0070 4FF47052 		mov	r2, #15360
 2007 0074 C4F20202 		movt	r2, 16386
 2008 0078 1169     		ldr	r1, [r2, #16]
 2009 007a 7A68     		ldr	r2, [r7, #4]
 2010 007c D243     		mvns	r2, r2
 2011 007e 0A40     		ands	r2, r2, r1
 2012 0080 1A61     		str	r2, [r3, #16]
 2013              	.L92:
 918:lib/chip/STM32F4xx_StdPeriph_Driver/src/stm32f4xx_flash.c ****   }
 919:lib/chip/STM32F4xx_StdPeriph_Driver/src/stm32f4xx_flash.c **** }
 2014              		.loc 1 919 0
 2015 0082 0837     		adds	r7, r7, #8
 2016 0084 BD46     		mov	sp, r7
 2017              		@ sp needed
 2018 0086 80BD     		pop	{r7, pc}
 2019              		.cfi_endproc
 2020              	.LFE135:
 2022              		.section	.text.FLASH_GetFlagStatus,"ax",%progbits
 2023              		.align	2
 2024              		.global	FLASH_GetFlagStatus
 2025              		.thumb
 2026              		.thumb_func
 2028              	FLASH_GetFlagStatus:
 2029              	.LFB136:
 920:lib/chip/STM32F4xx_StdPeriph_Driver/src/stm32f4xx_flash.c **** 
 921:lib/chip/STM32F4xx_StdPeriph_Driver/src/stm32f4xx_flash.c **** /**
 922:lib/chip/STM32F4xx_StdPeriph_Driver/src/stm32f4xx_flash.c ****   * @brief  Checks whether the specified FLASH flag is set or not.
 923:lib/chip/STM32F4xx_StdPeriph_Driver/src/stm32f4xx_flash.c ****   * @param  FLASH_FLAG: specifies the FLASH flag to check.
 924:lib/chip/STM32F4xx_StdPeriph_Driver/src/stm32f4xx_flash.c ****   *          This parameter can be one of the following values:
 925:lib/chip/STM32F4xx_StdPeriph_Driver/src/stm32f4xx_flash.c ****   *            @arg FLASH_FLAG_EOP: FLASH End of Operation flag 
 926:lib/chip/STM32F4xx_StdPeriph_Driver/src/stm32f4xx_flash.c ****   *            @arg FLASH_FLAG_OPERR: FLASH operation Error flag 
 927:lib/chip/STM32F4xx_StdPeriph_Driver/src/stm32f4xx_flash.c ****   *            @arg FLASH_FLAG_WRPERR: FLASH Write protected error flag 
 928:lib/chip/STM32F4xx_StdPeriph_Driver/src/stm32f4xx_flash.c ****   *            @arg FLASH_FLAG_PGAERR: FLASH Programming Alignment error flag
 929:lib/chip/STM32F4xx_StdPeriph_Driver/src/stm32f4xx_flash.c ****   *            @arg FLASH_FLAG_PGPERR: FLASH Programming Parallelism error flag
 930:lib/chip/STM32F4xx_StdPeriph_Driver/src/stm32f4xx_flash.c ****   *            @arg FLASH_FLAG_PGSERR: FLASH Programming Sequence error flag
 931:lib/chip/STM32F4xx_StdPeriph_Driver/src/stm32f4xx_flash.c ****   *            @arg FLASH_FLAG_BSY: FLASH Busy flag
 932:lib/chip/STM32F4xx_StdPeriph_Driver/src/stm32f4xx_flash.c ****   * @retval The new state of FLASH_FLAG (SET or RESET).
 933:lib/chip/STM32F4xx_StdPeriph_Driver/src/stm32f4xx_flash.c ****   */
 934:lib/chip/STM32F4xx_StdPeriph_Driver/src/stm32f4xx_flash.c **** FlagStatus FLASH_GetFlagStatus(uint32_t FLASH_FLAG)
 935:lib/chip/STM32F4xx_StdPeriph_Driver/src/stm32f4xx_flash.c **** {
 2030              		.loc 1 935 0
 2031              		.cfi_startproc
 2032              		@ args = 0, pretend = 0, frame = 16
 2033              		@ frame_needed = 1, uses_anonymous_args = 0
 2034 0000 80B5     		push	{r7, lr}
 2035              	.LCFI69:
 2036              		.cfi_def_cfa_offset 8
 2037              		.cfi_offset 7, -8
 2038              		.cfi_offset 14, -4
 2039 0002 84B0     		sub	sp, sp, #16
 2040              	.LCFI70:
 2041              		.cfi_def_cfa_offset 24
 2042 0004 00AF     		add	r7, sp, #0
 2043              	.LCFI71:
 2044              		.cfi_def_cfa_register 7
 2045 0006 7860     		str	r0, [r7, #4]
 936:lib/chip/STM32F4xx_StdPeriph_Driver/src/stm32f4xx_flash.c ****   FlagStatus bitstatus = RESET;
 2046              		.loc 1 936 0
 2047 0008 0023     		movs	r3, #0
 2048 000a FB73     		strb	r3, [r7, #15]
 937:lib/chip/STM32F4xx_StdPeriph_Driver/src/stm32f4xx_flash.c ****   /* Check the parameters */
 938:lib/chip/STM32F4xx_StdPeriph_Driver/src/stm32f4xx_flash.c ****   assert_param(IS_FLASH_GET_FLAG(FLASH_FLAG));
 2049              		.loc 1 938 0
 2050 000c 7B68     		ldr	r3, [r7, #4]
 2051 000e 012B     		cmp	r3, #1
 2052 0010 1AD0     		beq	.L99
 2053              		.loc 1 938 0 is_stmt 0 discriminator 1
 2054 0012 7B68     		ldr	r3, [r7, #4]
 2055 0014 022B     		cmp	r3, #2
 2056 0016 17D0     		beq	.L99
 2057 0018 7B68     		ldr	r3, [r7, #4]
 2058 001a 102B     		cmp	r3, #16
 2059 001c 14D0     		beq	.L99
 2060 001e 7B68     		ldr	r3, [r7, #4]
 2061 0020 202B     		cmp	r3, #32
 2062 0022 11D0     		beq	.L99
 2063 0024 7B68     		ldr	r3, [r7, #4]
 2064 0026 402B     		cmp	r3, #64
 2065 0028 0ED0     		beq	.L99
 2066 002a 7B68     		ldr	r3, [r7, #4]
 2067 002c 802B     		cmp	r3, #128
 2068 002e 0BD0     		beq	.L99
 2069 0030 7B68     		ldr	r3, [r7, #4]
 2070 0032 B3F5803F 		cmp	r3, #65536
 2071 0036 07D0     		beq	.L99
 2072 0038 40F20000 		movw	r0, #:lower16:.LC0
 2073 003c C0F20000 		movt	r0, #:upper16:.LC0
 2074 0040 40F2AA31 		movw	r1, #938
 2075 0044 FFF7FEFF 		bl	assert_failed
 2076              	.L99:
 939:lib/chip/STM32F4xx_StdPeriph_Driver/src/stm32f4xx_flash.c **** 
 940:lib/chip/STM32F4xx_StdPeriph_Driver/src/stm32f4xx_flash.c ****   if((FLASH->SR & FLASH_FLAG) != (uint32_t)RESET)
 2077              		.loc 1 940 0 is_stmt 1
 2078 0048 4FF47053 		mov	r3, #15360
 2079 004c C4F20203 		movt	r3, 16386
 2080 0050 DA68     		ldr	r2, [r3, #12]
 2081 0052 7B68     		ldr	r3, [r7, #4]
 2082 0054 1340     		ands	r3, r3, r2
 2083 0056 002B     		cmp	r3, #0
 2084 0058 02D0     		beq	.L100
 941:lib/chip/STM32F4xx_StdPeriph_Driver/src/stm32f4xx_flash.c ****   {
 942:lib/chip/STM32F4xx_StdPeriph_Driver/src/stm32f4xx_flash.c ****     bitstatus = SET;
 2085              		.loc 1 942 0
 2086 005a 0123     		movs	r3, #1
 2087 005c FB73     		strb	r3, [r7, #15]
 2088 005e 01E0     		b	.L101
 2089              	.L100:
 943:lib/chip/STM32F4xx_StdPeriph_Driver/src/stm32f4xx_flash.c ****   }
 944:lib/chip/STM32F4xx_StdPeriph_Driver/src/stm32f4xx_flash.c ****   else
 945:lib/chip/STM32F4xx_StdPeriph_Driver/src/stm32f4xx_flash.c ****   {
 946:lib/chip/STM32F4xx_StdPeriph_Driver/src/stm32f4xx_flash.c ****     bitstatus = RESET;
 2090              		.loc 1 946 0
 2091 0060 0023     		movs	r3, #0
 2092 0062 FB73     		strb	r3, [r7, #15]
 2093              	.L101:
 947:lib/chip/STM32F4xx_StdPeriph_Driver/src/stm32f4xx_flash.c ****   }
 948:lib/chip/STM32F4xx_StdPeriph_Driver/src/stm32f4xx_flash.c ****   /* Return the new state of FLASH_FLAG (SET or RESET) */
 949:lib/chip/STM32F4xx_StdPeriph_Driver/src/stm32f4xx_flash.c ****   return bitstatus; 
 2094              		.loc 1 949 0
 2095 0064 FB7B     		ldrb	r3, [r7, #15]	@ zero_extendqisi2
 950:lib/chip/STM32F4xx_StdPeriph_Driver/src/stm32f4xx_flash.c **** }
 2096              		.loc 1 950 0
 2097 0066 1846     		mov	r0, r3
 2098 0068 1037     		adds	r7, r7, #16
 2099 006a BD46     		mov	sp, r7
 2100              		@ sp needed
 2101 006c 80BD     		pop	{r7, pc}
 2102              		.cfi_endproc
 2103              	.LFE136:
 2105 006e 00BF     		.section	.text.FLASH_ClearFlag,"ax",%progbits
 2106              		.align	2
 2107              		.global	FLASH_ClearFlag
 2108              		.thumb
 2109              		.thumb_func
 2111              	FLASH_ClearFlag:
 2112              	.LFB137:
 951:lib/chip/STM32F4xx_StdPeriph_Driver/src/stm32f4xx_flash.c **** 
 952:lib/chip/STM32F4xx_StdPeriph_Driver/src/stm32f4xx_flash.c **** /**
 953:lib/chip/STM32F4xx_StdPeriph_Driver/src/stm32f4xx_flash.c ****   * @brief  Clears the FLASH's pending flags.
 954:lib/chip/STM32F4xx_StdPeriph_Driver/src/stm32f4xx_flash.c ****   * @param  FLASH_FLAG: specifies the FLASH flags to clear.
 955:lib/chip/STM32F4xx_StdPeriph_Driver/src/stm32f4xx_flash.c ****   *          This parameter can be any combination of the following values:
 956:lib/chip/STM32F4xx_StdPeriph_Driver/src/stm32f4xx_flash.c ****   *            @arg FLASH_FLAG_EOP: FLASH End of Operation flag 
 957:lib/chip/STM32F4xx_StdPeriph_Driver/src/stm32f4xx_flash.c ****   *            @arg FLASH_FLAG_OPERR: FLASH operation Error flag 
 958:lib/chip/STM32F4xx_StdPeriph_Driver/src/stm32f4xx_flash.c ****   *            @arg FLASH_FLAG_WRPERR: FLASH Write protected error flag 
 959:lib/chip/STM32F4xx_StdPeriph_Driver/src/stm32f4xx_flash.c ****   *            @arg FLASH_FLAG_PGAERR: FLASH Programming Alignment error flag 
 960:lib/chip/STM32F4xx_StdPeriph_Driver/src/stm32f4xx_flash.c ****   *            @arg FLASH_FLAG_PGPERR: FLASH Programming Parallelism error flag
 961:lib/chip/STM32F4xx_StdPeriph_Driver/src/stm32f4xx_flash.c ****   *            @arg FLASH_FLAG_PGSERR: FLASH Programming Sequence error flag
 962:lib/chip/STM32F4xx_StdPeriph_Driver/src/stm32f4xx_flash.c ****   * @retval None
 963:lib/chip/STM32F4xx_StdPeriph_Driver/src/stm32f4xx_flash.c ****   */
 964:lib/chip/STM32F4xx_StdPeriph_Driver/src/stm32f4xx_flash.c **** void FLASH_ClearFlag(uint32_t FLASH_FLAG)
 965:lib/chip/STM32F4xx_StdPeriph_Driver/src/stm32f4xx_flash.c **** {
 2113              		.loc 1 965 0
 2114              		.cfi_startproc
 2115              		@ args = 0, pretend = 0, frame = 8
 2116              		@ frame_needed = 1, uses_anonymous_args = 0
 2117 0000 80B5     		push	{r7, lr}
 2118              	.LCFI72:
 2119              		.cfi_def_cfa_offset 8
 2120              		.cfi_offset 7, -8
 2121              		.cfi_offset 14, -4
 2122 0002 82B0     		sub	sp, sp, #8
 2123              	.LCFI73:
 2124              		.cfi_def_cfa_offset 16
 2125 0004 00AF     		add	r7, sp, #0
 2126              	.LCFI74:
 2127              		.cfi_def_cfa_register 7
 2128 0006 7860     		str	r0, [r7, #4]
 966:lib/chip/STM32F4xx_StdPeriph_Driver/src/stm32f4xx_flash.c ****   /* Check the parameters */
 967:lib/chip/STM32F4xx_StdPeriph_Driver/src/stm32f4xx_flash.c ****   assert_param(IS_FLASH_CLEAR_FLAG(FLASH_FLAG));
 2129              		.loc 1 967 0
 2130 0008 7B68     		ldr	r3, [r7, #4]
 2131 000a 23F0F303 		bic	r3, r3, #243
 2132 000e 002B     		cmp	r3, #0
 2133 0010 02D1     		bne	.L104
 2134              		.loc 1 967 0 is_stmt 0 discriminator 2
 2135 0012 7B68     		ldr	r3, [r7, #4]
 2136 0014 002B     		cmp	r3, #0
 2137 0016 07D1     		bne	.L105
 2138              	.L104:
 2139              		.loc 1 967 0 discriminator 1
 2140 0018 40F20000 		movw	r0, #:lower16:.LC0
 2141 001c C0F20000 		movt	r0, #:upper16:.LC0
 2142 0020 40F2C731 		movw	r1, #967
 2143 0024 FFF7FEFF 		bl	assert_failed
 2144              	.L105:
 968:lib/chip/STM32F4xx_StdPeriph_Driver/src/stm32f4xx_flash.c ****   
 969:lib/chip/STM32F4xx_StdPeriph_Driver/src/stm32f4xx_flash.c ****   /* Clear the flags */
 970:lib/chip/STM32F4xx_StdPeriph_Driver/src/stm32f4xx_flash.c ****   FLASH->SR = FLASH_FLAG;
 2145              		.loc 1 970 0 is_stmt 1
 2146 0028 4FF47053 		mov	r3, #15360
 2147 002c C4F20203 		movt	r3, 16386
 2148 0030 7A68     		ldr	r2, [r7, #4]
 2149 0032 DA60     		str	r2, [r3, #12]
 971:lib/chip/STM32F4xx_StdPeriph_Driver/src/stm32f4xx_flash.c **** }
 2150              		.loc 1 971 0
 2151 0034 0837     		adds	r7, r7, #8
 2152 0036 BD46     		mov	sp, r7
 2153              		@ sp needed
 2154 0038 80BD     		pop	{r7, pc}
 2155              		.cfi_endproc
 2156              	.LFE137:
 2158 003a 00BF     		.section	.text.FLASH_GetStatus,"ax",%progbits
 2159              		.align	2
 2160              		.global	FLASH_GetStatus
 2161              		.thumb
 2162              		.thumb_func
 2164              	FLASH_GetStatus:
 2165              	.LFB138:
 972:lib/chip/STM32F4xx_StdPeriph_Driver/src/stm32f4xx_flash.c **** 
 973:lib/chip/STM32F4xx_StdPeriph_Driver/src/stm32f4xx_flash.c **** /**
 974:lib/chip/STM32F4xx_StdPeriph_Driver/src/stm32f4xx_flash.c ****   * @brief  Returns the FLASH Status.
 975:lib/chip/STM32F4xx_StdPeriph_Driver/src/stm32f4xx_flash.c ****   * @param  None
 976:lib/chip/STM32F4xx_StdPeriph_Driver/src/stm32f4xx_flash.c ****   * @retval FLASH Status: The returned value can be: FLASH_BUSY, FLASH_ERROR_PROGRAM,
 977:lib/chip/STM32F4xx_StdPeriph_Driver/src/stm32f4xx_flash.c ****   *                       FLASH_ERROR_WRP, FLASH_ERROR_OPERATION or FLASH_COMPLETE.
 978:lib/chip/STM32F4xx_StdPeriph_Driver/src/stm32f4xx_flash.c ****   */
 979:lib/chip/STM32F4xx_StdPeriph_Driver/src/stm32f4xx_flash.c **** FLASH_Status FLASH_GetStatus(void)
 980:lib/chip/STM32F4xx_StdPeriph_Driver/src/stm32f4xx_flash.c **** {
 2166              		.loc 1 980 0
 2167              		.cfi_startproc
 2168              		@ args = 0, pretend = 0, frame = 8
 2169              		@ frame_needed = 1, uses_anonymous_args = 0
 2170              		@ link register save eliminated.
 2171 0000 80B4     		push	{r7}
 2172              	.LCFI75:
 2173              		.cfi_def_cfa_offset 4
 2174              		.cfi_offset 7, -4
 2175 0002 83B0     		sub	sp, sp, #12
 2176              	.LCFI76:
 2177              		.cfi_def_cfa_offset 16
 2178 0004 00AF     		add	r7, sp, #0
 2179              	.LCFI77:
 2180              		.cfi_def_cfa_register 7
 981:lib/chip/STM32F4xx_StdPeriph_Driver/src/stm32f4xx_flash.c ****   FLASH_Status flashstatus = FLASH_COMPLETE;
 2181              		.loc 1 981 0
 2182 0006 0823     		movs	r3, #8
 2183 0008 FB71     		strb	r3, [r7, #7]
 982:lib/chip/STM32F4xx_StdPeriph_Driver/src/stm32f4xx_flash.c ****   
 983:lib/chip/STM32F4xx_StdPeriph_Driver/src/stm32f4xx_flash.c ****   if((FLASH->SR & FLASH_FLAG_BSY) == FLASH_FLAG_BSY) 
 2184              		.loc 1 983 0
 2185 000a 4FF47053 		mov	r3, #15360
 2186 000e C4F20203 		movt	r3, 16386
 2187 0012 DB68     		ldr	r3, [r3, #12]
 2188 0014 03F48033 		and	r3, r3, #65536
 2189 0018 002B     		cmp	r3, #0
 2190 001a 02D0     		beq	.L107
 984:lib/chip/STM32F4xx_StdPeriph_Driver/src/stm32f4xx_flash.c ****   {
 985:lib/chip/STM32F4xx_StdPeriph_Driver/src/stm32f4xx_flash.c ****     flashstatus = FLASH_BUSY;
 2191              		.loc 1 985 0
 2192 001c 0123     		movs	r3, #1
 2193 001e FB71     		strb	r3, [r7, #7]
 2194 0020 25E0     		b	.L108
 2195              	.L107:
 986:lib/chip/STM32F4xx_StdPeriph_Driver/src/stm32f4xx_flash.c ****   }
 987:lib/chip/STM32F4xx_StdPeriph_Driver/src/stm32f4xx_flash.c ****   else 
 988:lib/chip/STM32F4xx_StdPeriph_Driver/src/stm32f4xx_flash.c ****   {  
 989:lib/chip/STM32F4xx_StdPeriph_Driver/src/stm32f4xx_flash.c ****     if((FLASH->SR & FLASH_FLAG_WRPERR) != (uint32_t)0x00)
 2196              		.loc 1 989 0
 2197 0022 4FF47053 		mov	r3, #15360
 2198 0026 C4F20203 		movt	r3, 16386
 2199 002a DB68     		ldr	r3, [r3, #12]
 2200 002c 03F01003 		and	r3, r3, #16
 2201 0030 002B     		cmp	r3, #0
 2202 0032 02D0     		beq	.L109
 990:lib/chip/STM32F4xx_StdPeriph_Driver/src/stm32f4xx_flash.c ****     { 
 991:lib/chip/STM32F4xx_StdPeriph_Driver/src/stm32f4xx_flash.c ****       flashstatus = FLASH_ERROR_WRP;
 2203              		.loc 1 991 0
 2204 0034 0523     		movs	r3, #5
 2205 0036 FB71     		strb	r3, [r7, #7]
 2206 0038 19E0     		b	.L108
 2207              	.L109:
 992:lib/chip/STM32F4xx_StdPeriph_Driver/src/stm32f4xx_flash.c ****     }
 993:lib/chip/STM32F4xx_StdPeriph_Driver/src/stm32f4xx_flash.c ****     else 
 994:lib/chip/STM32F4xx_StdPeriph_Driver/src/stm32f4xx_flash.c ****     {
 995:lib/chip/STM32F4xx_StdPeriph_Driver/src/stm32f4xx_flash.c ****       if((FLASH->SR & (uint32_t)0xEF) != (uint32_t)0x00)
 2208              		.loc 1 995 0
 2209 003a 4FF47053 		mov	r3, #15360
 2210 003e C4F20203 		movt	r3, 16386
 2211 0042 DB68     		ldr	r3, [r3, #12]
 2212 0044 03F0EF03 		and	r3, r3, #239
 2213 0048 002B     		cmp	r3, #0
 2214 004a 02D0     		beq	.L110
 996:lib/chip/STM32F4xx_StdPeriph_Driver/src/stm32f4xx_flash.c ****       {
 997:lib/chip/STM32F4xx_StdPeriph_Driver/src/stm32f4xx_flash.c ****         flashstatus = FLASH_ERROR_PROGRAM; 
 2215              		.loc 1 997 0
 2216 004c 0623     		movs	r3, #6
 2217 004e FB71     		strb	r3, [r7, #7]
 2218 0050 0DE0     		b	.L108
 2219              	.L110:
 998:lib/chip/STM32F4xx_StdPeriph_Driver/src/stm32f4xx_flash.c ****       }
 999:lib/chip/STM32F4xx_StdPeriph_Driver/src/stm32f4xx_flash.c ****       else
1000:lib/chip/STM32F4xx_StdPeriph_Driver/src/stm32f4xx_flash.c ****       {
1001:lib/chip/STM32F4xx_StdPeriph_Driver/src/stm32f4xx_flash.c ****         if((FLASH->SR & FLASH_FLAG_OPERR) != (uint32_t)0x00)
 2220              		.loc 1 1001 0
 2221 0052 4FF47053 		mov	r3, #15360
 2222 0056 C4F20203 		movt	r3, 16386
 2223 005a DB68     		ldr	r3, [r3, #12]
 2224 005c 03F00203 		and	r3, r3, #2
 2225 0060 002B     		cmp	r3, #0
 2226 0062 02D0     		beq	.L111
1002:lib/chip/STM32F4xx_StdPeriph_Driver/src/stm32f4xx_flash.c ****         {
1003:lib/chip/STM32F4xx_StdPeriph_Driver/src/stm32f4xx_flash.c ****           flashstatus = FLASH_ERROR_OPERATION;
 2227              		.loc 1 1003 0
 2228 0064 0723     		movs	r3, #7
 2229 0066 FB71     		strb	r3, [r7, #7]
 2230 0068 01E0     		b	.L108
 2231              	.L111:
1004:lib/chip/STM32F4xx_StdPeriph_Driver/src/stm32f4xx_flash.c ****         }
1005:lib/chip/STM32F4xx_StdPeriph_Driver/src/stm32f4xx_flash.c ****         else
1006:lib/chip/STM32F4xx_StdPeriph_Driver/src/stm32f4xx_flash.c ****         {
1007:lib/chip/STM32F4xx_StdPeriph_Driver/src/stm32f4xx_flash.c ****           flashstatus = FLASH_COMPLETE;
 2232              		.loc 1 1007 0
 2233 006a 0823     		movs	r3, #8
 2234 006c FB71     		strb	r3, [r7, #7]
 2235              	.L108:
1008:lib/chip/STM32F4xx_StdPeriph_Driver/src/stm32f4xx_flash.c ****         }
1009:lib/chip/STM32F4xx_StdPeriph_Driver/src/stm32f4xx_flash.c ****       }
1010:lib/chip/STM32F4xx_StdPeriph_Driver/src/stm32f4xx_flash.c ****     }
1011:lib/chip/STM32F4xx_StdPeriph_Driver/src/stm32f4xx_flash.c ****   }
1012:lib/chip/STM32F4xx_StdPeriph_Driver/src/stm32f4xx_flash.c ****   /* Return the FLASH Status */
1013:lib/chip/STM32F4xx_StdPeriph_Driver/src/stm32f4xx_flash.c ****   return flashstatus;
 2236              		.loc 1 1013 0
 2237 006e FB79     		ldrb	r3, [r7, #7]	@ zero_extendqisi2
1014:lib/chip/STM32F4xx_StdPeriph_Driver/src/stm32f4xx_flash.c **** }
 2238              		.loc 1 1014 0
 2239 0070 1846     		mov	r0, r3
 2240 0072 0C37     		adds	r7, r7, #12
 2241 0074 BD46     		mov	sp, r7
 2242              		@ sp needed
 2243 0076 5DF8047B 		ldr	r7, [sp], #4
 2244 007a 7047     		bx	lr
 2245              		.cfi_endproc
 2246              	.LFE138:
 2248              		.section	.text.FLASH_WaitForLastOperation,"ax",%progbits
 2249              		.align	2
 2250              		.global	FLASH_WaitForLastOperation
 2251              		.thumb
 2252              		.thumb_func
 2254              	FLASH_WaitForLastOperation:
 2255              	.LFB139:
1015:lib/chip/STM32F4xx_StdPeriph_Driver/src/stm32f4xx_flash.c **** 
1016:lib/chip/STM32F4xx_StdPeriph_Driver/src/stm32f4xx_flash.c **** /**
1017:lib/chip/STM32F4xx_StdPeriph_Driver/src/stm32f4xx_flash.c ****   * @brief  Waits for a FLASH operation to complete.
1018:lib/chip/STM32F4xx_StdPeriph_Driver/src/stm32f4xx_flash.c ****   * @param  None
1019:lib/chip/STM32F4xx_StdPeriph_Driver/src/stm32f4xx_flash.c ****   * @retval FLASH Status: The returned value can be: FLASH_BUSY, FLASH_ERROR_PROGRAM,
1020:lib/chip/STM32F4xx_StdPeriph_Driver/src/stm32f4xx_flash.c ****   *                       FLASH_ERROR_WRP, FLASH_ERROR_OPERATION or FLASH_COMPLETE.
1021:lib/chip/STM32F4xx_StdPeriph_Driver/src/stm32f4xx_flash.c ****   */
1022:lib/chip/STM32F4xx_StdPeriph_Driver/src/stm32f4xx_flash.c **** FLASH_Status FLASH_WaitForLastOperation(void)
1023:lib/chip/STM32F4xx_StdPeriph_Driver/src/stm32f4xx_flash.c **** { 
 2256              		.loc 1 1023 0
 2257              		.cfi_startproc
 2258              		@ args = 0, pretend = 0, frame = 8
 2259              		@ frame_needed = 1, uses_anonymous_args = 0
 2260 0000 80B5     		push	{r7, lr}
 2261              	.LCFI78:
 2262              		.cfi_def_cfa_offset 8
 2263              		.cfi_offset 7, -8
 2264              		.cfi_offset 14, -4
 2265 0002 82B0     		sub	sp, sp, #8
 2266              	.LCFI79:
 2267              		.cfi_def_cfa_offset 16
 2268 0004 00AF     		add	r7, sp, #0
 2269              	.LCFI80:
 2270              		.cfi_def_cfa_register 7
1024:lib/chip/STM32F4xx_StdPeriph_Driver/src/stm32f4xx_flash.c ****   __IO FLASH_Status status = FLASH_COMPLETE;
 2271              		.loc 1 1024 0
 2272 0006 0823     		movs	r3, #8
 2273 0008 FB71     		strb	r3, [r7, #7]
1025:lib/chip/STM32F4xx_StdPeriph_Driver/src/stm32f4xx_flash.c ****    
1026:lib/chip/STM32F4xx_StdPeriph_Driver/src/stm32f4xx_flash.c ****   /* Check for the FLASH Status */
1027:lib/chip/STM32F4xx_StdPeriph_Driver/src/stm32f4xx_flash.c ****   status = FLASH_GetStatus();
 2274              		.loc 1 1027 0
 2275 000a FFF7FEFF 		bl	FLASH_GetStatus
 2276 000e 0346     		mov	r3, r0
 2277 0010 FB71     		strb	r3, [r7, #7]
1028:lib/chip/STM32F4xx_StdPeriph_Driver/src/stm32f4xx_flash.c **** 
1029:lib/chip/STM32F4xx_StdPeriph_Driver/src/stm32f4xx_flash.c ****   /* Wait for the FLASH operation to complete by polling on BUSY flag to be reset.
1030:lib/chip/STM32F4xx_StdPeriph_Driver/src/stm32f4xx_flash.c ****      Even if the FLASH operation fails, the BUSY flag will be reset and an error
1031:lib/chip/STM32F4xx_StdPeriph_Driver/src/stm32f4xx_flash.c ****      flag will be set */
1032:lib/chip/STM32F4xx_StdPeriph_Driver/src/stm32f4xx_flash.c ****   while(status == FLASH_BUSY)
 2278              		.loc 1 1032 0
 2279 0012 03E0     		b	.L114
 2280              	.L115:
1033:lib/chip/STM32F4xx_StdPeriph_Driver/src/stm32f4xx_flash.c ****   {
1034:lib/chip/STM32F4xx_StdPeriph_Driver/src/stm32f4xx_flash.c ****     status = FLASH_GetStatus();
 2281              		.loc 1 1034 0
 2282 0014 FFF7FEFF 		bl	FLASH_GetStatus
 2283 0018 0346     		mov	r3, r0
 2284 001a FB71     		strb	r3, [r7, #7]
 2285              	.L114:
1032:lib/chip/STM32F4xx_StdPeriph_Driver/src/stm32f4xx_flash.c ****   {
 2286              		.loc 1 1032 0 discriminator 1
 2287 001c FB79     		ldrb	r3, [r7, #7]
 2288 001e DBB2     		uxtb	r3, r3
 2289 0020 012B     		cmp	r3, #1
 2290 0022 F7D0     		beq	.L115
1035:lib/chip/STM32F4xx_StdPeriph_Driver/src/stm32f4xx_flash.c ****   }
1036:lib/chip/STM32F4xx_StdPeriph_Driver/src/stm32f4xx_flash.c ****   /* Return the operation status */
1037:lib/chip/STM32F4xx_StdPeriph_Driver/src/stm32f4xx_flash.c ****   return status;
 2291              		.loc 1 1037 0
 2292 0024 FB79     		ldrb	r3, [r7, #7]
 2293 0026 DBB2     		uxtb	r3, r3
1038:lib/chip/STM32F4xx_StdPeriph_Driver/src/stm32f4xx_flash.c **** }
 2294              		.loc 1 1038 0
 2295 0028 1846     		mov	r0, r3
 2296 002a 0837     		adds	r7, r7, #8
 2297 002c BD46     		mov	sp, r7
 2298              		@ sp needed
 2299 002e 80BD     		pop	{r7, pc}
 2300              		.cfi_endproc
 2301              	.LFE139:
 2303              		.text
 2304              	.Letext0:
 2305              		.file 2 "/usr/include/newlib/machine/_default_types.h"
 2306              		.file 3 "/usr/include/newlib/stdint.h"
 2307              		.file 4 "lib/chip/CMSIS/ST/STM32F4xx/Include/stm32f4xx.h"
 2308              		.file 5 "lib/chip/STM32F4xx_StdPeriph_Driver/inc/stm32f4xx_flash.h"
 2309              		.file 6 "lib/chip/CMSIS/Include/core_cm4.h"