   1              		.syntax unified
   2              		.cpu cortex-m4
   3              		.eabi_attribute 27, 3
   4              		.fpu fpv4-sp-d16
   5              		.eabi_attribute 20, 1
   6              		.eabi_attribute 21, 1
   7              		.eabi_attribute 23, 3
   8              		.eabi_attribute 24, 1
   9              		.eabi_attribute 25, 1
  10              		.eabi_attribute 26, 1
  11              		.eabi_attribute 30, 6
  12              		.eabi_attribute 34, 1
  13              		.eabi_attribute 18, 4
  14              		.thumb
  15              		.file	"stm32f4xx_i2c.c"
  16              		.text
  17              	.Ltext0:
  18              		.cfi_sections	.debug_frame
  19              		.section	.rodata
  20              		.align	2
  21              	.LC0:
  22 0000 6C69622F 		.ascii	"lib/chip/STM32F4xx_StdPeriph_Driver/src/stm32f4xx_i"
  22      63686970 
  22      2F53544D 
  22      33324634 
  22      78785F53 
  23 0033 32632E63 		.ascii	"2c.c\000"
  23      00
  24              		.section	.text.I2C_DeInit,"ax",%progbits
  25              		.align	2
  26              		.global	I2C_DeInit
  27              		.thumb
  28              		.thumb_func
  30              	I2C_DeInit:
  31              	.LFB110:
  32              		.file 1 "lib/chip/STM32F4xx_StdPeriph_Driver/src/stm32f4xx_i2c.c"
   1:lib/chip/STM32F4xx_StdPeriph_Driver/src/stm32f4xx_i2c.c **** /**
   2:lib/chip/STM32F4xx_StdPeriph_Driver/src/stm32f4xx_i2c.c ****   ******************************************************************************
   3:lib/chip/STM32F4xx_StdPeriph_Driver/src/stm32f4xx_i2c.c ****   * @file    stm32f4xx_i2c.c
   4:lib/chip/STM32F4xx_StdPeriph_Driver/src/stm32f4xx_i2c.c ****   * @author  MCD Application Team
   5:lib/chip/STM32F4xx_StdPeriph_Driver/src/stm32f4xx_i2c.c ****   * @version V1.0.0
   6:lib/chip/STM32F4xx_StdPeriph_Driver/src/stm32f4xx_i2c.c ****   * @date    30-September-2011
   7:lib/chip/STM32F4xx_StdPeriph_Driver/src/stm32f4xx_i2c.c ****   * @brief   This file provides firmware functions to manage the following 
   8:lib/chip/STM32F4xx_StdPeriph_Driver/src/stm32f4xx_i2c.c ****   *          functionalities of the Inter-integrated circuit (I2C)
   9:lib/chip/STM32F4xx_StdPeriph_Driver/src/stm32f4xx_i2c.c ****   *           - Initialization and Configuration
  10:lib/chip/STM32F4xx_StdPeriph_Driver/src/stm32f4xx_i2c.c ****   *           - Data transfers
  11:lib/chip/STM32F4xx_StdPeriph_Driver/src/stm32f4xx_i2c.c ****   *           - PEC management
  12:lib/chip/STM32F4xx_StdPeriph_Driver/src/stm32f4xx_i2c.c ****   *           - DMA transfers management
  13:lib/chip/STM32F4xx_StdPeriph_Driver/src/stm32f4xx_i2c.c ****   *           - Interrupts, events and flags management 
  14:lib/chip/STM32F4xx_StdPeriph_Driver/src/stm32f4xx_i2c.c ****   *           
  15:lib/chip/STM32F4xx_StdPeriph_Driver/src/stm32f4xx_i2c.c ****   *  @verbatim
  16:lib/chip/STM32F4xx_StdPeriph_Driver/src/stm32f4xx_i2c.c ****   *    
  17:lib/chip/STM32F4xx_StdPeriph_Driver/src/stm32f4xx_i2c.c ****   *          ===================================================================
  18:lib/chip/STM32F4xx_StdPeriph_Driver/src/stm32f4xx_i2c.c ****   *                                 How to use this driver
  19:lib/chip/STM32F4xx_StdPeriph_Driver/src/stm32f4xx_i2c.c ****   *          ===================================================================
  20:lib/chip/STM32F4xx_StdPeriph_Driver/src/stm32f4xx_i2c.c ****   *          1. Enable peripheral clock using RCC_APB1PeriphClockCmd(RCC_APB1Periph_I2Cx, ENABLE)
  21:lib/chip/STM32F4xx_StdPeriph_Driver/src/stm32f4xx_i2c.c ****   *             function for I2C1, I2C2 or I2C3.
  22:lib/chip/STM32F4xx_StdPeriph_Driver/src/stm32f4xx_i2c.c ****   *
  23:lib/chip/STM32F4xx_StdPeriph_Driver/src/stm32f4xx_i2c.c ****   *          2. Enable SDA, SCL  and SMBA (when used) GPIO clocks using 
  24:lib/chip/STM32F4xx_StdPeriph_Driver/src/stm32f4xx_i2c.c ****   *             RCC_AHBPeriphClockCmd() function. 
  25:lib/chip/STM32F4xx_StdPeriph_Driver/src/stm32f4xx_i2c.c ****   *
  26:lib/chip/STM32F4xx_StdPeriph_Driver/src/stm32f4xx_i2c.c ****   *          3. Peripherals alternate function: 
  27:lib/chip/STM32F4xx_StdPeriph_Driver/src/stm32f4xx_i2c.c ****   *                 - Connect the pin to the desired peripherals' Alternate 
  28:lib/chip/STM32F4xx_StdPeriph_Driver/src/stm32f4xx_i2c.c ****   *                   Function (AF) using GPIO_PinAFConfig() function
  29:lib/chip/STM32F4xx_StdPeriph_Driver/src/stm32f4xx_i2c.c ****   *                 - Configure the desired pin in alternate function by:
  30:lib/chip/STM32F4xx_StdPeriph_Driver/src/stm32f4xx_i2c.c ****   *                   GPIO_InitStruct->GPIO_Mode = GPIO_Mode_AF
  31:lib/chip/STM32F4xx_StdPeriph_Driver/src/stm32f4xx_i2c.c ****   *                 - Select the type, pull-up/pull-down and output speed via 
  32:lib/chip/STM32F4xx_StdPeriph_Driver/src/stm32f4xx_i2c.c ****   *                   GPIO_PuPd, GPIO_OType and GPIO_Speed members
  33:lib/chip/STM32F4xx_StdPeriph_Driver/src/stm32f4xx_i2c.c ****   *                 - Call GPIO_Init() function
  34:lib/chip/STM32F4xx_StdPeriph_Driver/src/stm32f4xx_i2c.c ****   *                 Recommended configuration is Push-Pull, Pull-up, Open-Drain.
  35:lib/chip/STM32F4xx_StdPeriph_Driver/src/stm32f4xx_i2c.c ****   *                 Add an external pull up if necessary (typically 4.7 KOhm).      
  36:lib/chip/STM32F4xx_StdPeriph_Driver/src/stm32f4xx_i2c.c ****   *        
  37:lib/chip/STM32F4xx_StdPeriph_Driver/src/stm32f4xx_i2c.c ****   *          4. Program the Mode, duty cycle , Own address, Ack, Speed and Acknowledged
  38:lib/chip/STM32F4xx_StdPeriph_Driver/src/stm32f4xx_i2c.c ****   *             Address using the I2C_Init() function.
  39:lib/chip/STM32F4xx_StdPeriph_Driver/src/stm32f4xx_i2c.c ****   *
  40:lib/chip/STM32F4xx_StdPeriph_Driver/src/stm32f4xx_i2c.c ****   *          5. Optionally you can enable/configure the following parameters without
  41:lib/chip/STM32F4xx_StdPeriph_Driver/src/stm32f4xx_i2c.c ****   *             re-initialization (i.e there is no need to call again I2C_Init() function):
  42:lib/chip/STM32F4xx_StdPeriph_Driver/src/stm32f4xx_i2c.c ****   *              - Enable the acknowledge feature using I2C_AcknowledgeConfig() function
  43:lib/chip/STM32F4xx_StdPeriph_Driver/src/stm32f4xx_i2c.c ****   *              - Enable the dual addressing mode using I2C_DualAddressCmd() function
  44:lib/chip/STM32F4xx_StdPeriph_Driver/src/stm32f4xx_i2c.c ****   *              - Enable the general call using the I2C_GeneralCallCmd() function
  45:lib/chip/STM32F4xx_StdPeriph_Driver/src/stm32f4xx_i2c.c ****   *              - Enable the clock stretching using I2C_StretchClockCmd() function
  46:lib/chip/STM32F4xx_StdPeriph_Driver/src/stm32f4xx_i2c.c ****   *              - Enable the fast mode duty cycle using the I2C_FastModeDutyCycleConfig()
  47:lib/chip/STM32F4xx_StdPeriph_Driver/src/stm32f4xx_i2c.c ****   *                function.
  48:lib/chip/STM32F4xx_StdPeriph_Driver/src/stm32f4xx_i2c.c ****   *              - Configure the NACK position for Master Receiver mode in case of 
  49:lib/chip/STM32F4xx_StdPeriph_Driver/src/stm32f4xx_i2c.c ****   *                2 bytes reception using the function I2C_NACKPositionConfig().  
  50:lib/chip/STM32F4xx_StdPeriph_Driver/src/stm32f4xx_i2c.c ****   *              - Enable the PEC Calculation using I2C_CalculatePEC() function
  51:lib/chip/STM32F4xx_StdPeriph_Driver/src/stm32f4xx_i2c.c ****   *              - For SMBus Mode: 
  52:lib/chip/STM32F4xx_StdPeriph_Driver/src/stm32f4xx_i2c.c ****   *                   - Enable the Address Resolution Protocol (ARP) using I2C_ARPCmd() function
  53:lib/chip/STM32F4xx_StdPeriph_Driver/src/stm32f4xx_i2c.c ****   *                   - Configure the SMBusAlert pin using I2C_SMBusAlertConfig() function
  54:lib/chip/STM32F4xx_StdPeriph_Driver/src/stm32f4xx_i2c.c ****   *
  55:lib/chip/STM32F4xx_StdPeriph_Driver/src/stm32f4xx_i2c.c ****   *          6. Enable the NVIC and the corresponding interrupt using the function 
  56:lib/chip/STM32F4xx_StdPeriph_Driver/src/stm32f4xx_i2c.c ****   *             I2C_ITConfig() if you need to use interrupt mode. 
  57:lib/chip/STM32F4xx_StdPeriph_Driver/src/stm32f4xx_i2c.c ****   *
  58:lib/chip/STM32F4xx_StdPeriph_Driver/src/stm32f4xx_i2c.c ****   *          7. When using the DMA mode 
  59:lib/chip/STM32F4xx_StdPeriph_Driver/src/stm32f4xx_i2c.c ****   *                   - Configure the DMA using DMA_Init() function
  60:lib/chip/STM32F4xx_StdPeriph_Driver/src/stm32f4xx_i2c.c ****   *                   - Active the needed channel Request using I2C_DMACmd() or
  61:lib/chip/STM32F4xx_StdPeriph_Driver/src/stm32f4xx_i2c.c ****   *                     I2C_DMALastTransferCmd() function.
  62:lib/chip/STM32F4xx_StdPeriph_Driver/src/stm32f4xx_i2c.c ****   *              @note When using DMA mode, I2C interrupts may be used at the same time to
  63:lib/chip/STM32F4xx_StdPeriph_Driver/src/stm32f4xx_i2c.c ****   *                    control the communication flow (Start/Stop/Ack... events and errors).
  64:lib/chip/STM32F4xx_StdPeriph_Driver/src/stm32f4xx_i2c.c ****   * 
  65:lib/chip/STM32F4xx_StdPeriph_Driver/src/stm32f4xx_i2c.c ****   *          8. Enable the I2C using the I2C_Cmd() function.
  66:lib/chip/STM32F4xx_StdPeriph_Driver/src/stm32f4xx_i2c.c ****   * 
  67:lib/chip/STM32F4xx_StdPeriph_Driver/src/stm32f4xx_i2c.c ****   *          9. Enable the DMA using the DMA_Cmd() function when using DMA mode in the 
  68:lib/chip/STM32F4xx_StdPeriph_Driver/src/stm32f4xx_i2c.c ****   *             transfers. 
  69:lib/chip/STM32F4xx_StdPeriph_Driver/src/stm32f4xx_i2c.c ****   *
  70:lib/chip/STM32F4xx_StdPeriph_Driver/src/stm32f4xx_i2c.c ****   *  @endverbatim
  71:lib/chip/STM32F4xx_StdPeriph_Driver/src/stm32f4xx_i2c.c ****   *  
  72:lib/chip/STM32F4xx_StdPeriph_Driver/src/stm32f4xx_i2c.c ****   ******************************************************************************
  73:lib/chip/STM32F4xx_StdPeriph_Driver/src/stm32f4xx_i2c.c ****   * @attention
  74:lib/chip/STM32F4xx_StdPeriph_Driver/src/stm32f4xx_i2c.c ****   *
  75:lib/chip/STM32F4xx_StdPeriph_Driver/src/stm32f4xx_i2c.c ****   * THE PRESENT FIRMWARE WHICH IS FOR GUIDANCE ONLY AIMS AT PROVIDING CUSTOMERS
  76:lib/chip/STM32F4xx_StdPeriph_Driver/src/stm32f4xx_i2c.c ****   * WITH CODING INFORMATION REGARDING THEIR PRODUCTS IN ORDER FOR THEM TO SAVE
  77:lib/chip/STM32F4xx_StdPeriph_Driver/src/stm32f4xx_i2c.c ****   * TIME. AS A RESULT, STMICROELECTRONICS SHALL NOT BE HELD LIABLE FOR ANY
  78:lib/chip/STM32F4xx_StdPeriph_Driver/src/stm32f4xx_i2c.c ****   * DIRECT, INDIRECT OR CONSEQUENTIAL DAMAGES WITH RESPECT TO ANY CLAIMS ARISING
  79:lib/chip/STM32F4xx_StdPeriph_Driver/src/stm32f4xx_i2c.c ****   * FROM THE CONTENT OF SUCH FIRMWARE AND/OR THE USE MADE BY CUSTOMERS OF THE
  80:lib/chip/STM32F4xx_StdPeriph_Driver/src/stm32f4xx_i2c.c ****   * CODING INFORMATION CONTAINED HEREIN IN CONNECTION WITH THEIR PRODUCTS.
  81:lib/chip/STM32F4xx_StdPeriph_Driver/src/stm32f4xx_i2c.c ****   *
  82:lib/chip/STM32F4xx_StdPeriph_Driver/src/stm32f4xx_i2c.c ****   * <h2><center>&copy; COPYRIGHT 2011 STMicroelectronics</center></h2>
  83:lib/chip/STM32F4xx_StdPeriph_Driver/src/stm32f4xx_i2c.c ****   ******************************************************************************  
  84:lib/chip/STM32F4xx_StdPeriph_Driver/src/stm32f4xx_i2c.c ****   */ 
  85:lib/chip/STM32F4xx_StdPeriph_Driver/src/stm32f4xx_i2c.c **** 
  86:lib/chip/STM32F4xx_StdPeriph_Driver/src/stm32f4xx_i2c.c **** /* Includes ------------------------------------------------------------------*/
  87:lib/chip/STM32F4xx_StdPeriph_Driver/src/stm32f4xx_i2c.c **** #include "stm32f4xx_i2c.h"
  88:lib/chip/STM32F4xx_StdPeriph_Driver/src/stm32f4xx_i2c.c **** #include "stm32f4xx_rcc.h"
  89:lib/chip/STM32F4xx_StdPeriph_Driver/src/stm32f4xx_i2c.c **** 
  90:lib/chip/STM32F4xx_StdPeriph_Driver/src/stm32f4xx_i2c.c **** /** @addtogroup STM32F4xx_StdPeriph_Driver
  91:lib/chip/STM32F4xx_StdPeriph_Driver/src/stm32f4xx_i2c.c ****   * @{
  92:lib/chip/STM32F4xx_StdPeriph_Driver/src/stm32f4xx_i2c.c ****   */
  93:lib/chip/STM32F4xx_StdPeriph_Driver/src/stm32f4xx_i2c.c **** 
  94:lib/chip/STM32F4xx_StdPeriph_Driver/src/stm32f4xx_i2c.c **** /** @defgroup I2C 
  95:lib/chip/STM32F4xx_StdPeriph_Driver/src/stm32f4xx_i2c.c ****   * @brief I2C driver modules
  96:lib/chip/STM32F4xx_StdPeriph_Driver/src/stm32f4xx_i2c.c ****   * @{
  97:lib/chip/STM32F4xx_StdPeriph_Driver/src/stm32f4xx_i2c.c ****   */ 
  98:lib/chip/STM32F4xx_StdPeriph_Driver/src/stm32f4xx_i2c.c **** 
  99:lib/chip/STM32F4xx_StdPeriph_Driver/src/stm32f4xx_i2c.c **** /* Private typedef -----------------------------------------------------------*/
 100:lib/chip/STM32F4xx_StdPeriph_Driver/src/stm32f4xx_i2c.c **** /* Private define ------------------------------------------------------------*/
 101:lib/chip/STM32F4xx_StdPeriph_Driver/src/stm32f4xx_i2c.c **** 
 102:lib/chip/STM32F4xx_StdPeriph_Driver/src/stm32f4xx_i2c.c **** #define CR1_CLEAR_MASK    ((uint16_t)0xFBF5)      /*<! I2C registers Masks */
 103:lib/chip/STM32F4xx_StdPeriph_Driver/src/stm32f4xx_i2c.c **** #define FLAG_MASK         ((uint32_t)0x00FFFFFF)  /*<! I2C FLAG mask */
 104:lib/chip/STM32F4xx_StdPeriph_Driver/src/stm32f4xx_i2c.c **** #define ITEN_MASK         ((uint32_t)0x07000000)  /*<! I2C Interrupt Enable mask */
 105:lib/chip/STM32F4xx_StdPeriph_Driver/src/stm32f4xx_i2c.c **** 
 106:lib/chip/STM32F4xx_StdPeriph_Driver/src/stm32f4xx_i2c.c **** /* Private macro -------------------------------------------------------------*/
 107:lib/chip/STM32F4xx_StdPeriph_Driver/src/stm32f4xx_i2c.c **** /* Private variables ---------------------------------------------------------*/
 108:lib/chip/STM32F4xx_StdPeriph_Driver/src/stm32f4xx_i2c.c **** /* Private function prototypes -----------------------------------------------*/
 109:lib/chip/STM32F4xx_StdPeriph_Driver/src/stm32f4xx_i2c.c **** /* Private functions ---------------------------------------------------------*/
 110:lib/chip/STM32F4xx_StdPeriph_Driver/src/stm32f4xx_i2c.c **** 
 111:lib/chip/STM32F4xx_StdPeriph_Driver/src/stm32f4xx_i2c.c **** /** @defgroup I2C_Private_Functions
 112:lib/chip/STM32F4xx_StdPeriph_Driver/src/stm32f4xx_i2c.c ****   * @{
 113:lib/chip/STM32F4xx_StdPeriph_Driver/src/stm32f4xx_i2c.c ****   */
 114:lib/chip/STM32F4xx_StdPeriph_Driver/src/stm32f4xx_i2c.c **** 
 115:lib/chip/STM32F4xx_StdPeriph_Driver/src/stm32f4xx_i2c.c **** /** @defgroup I2C_Group1 Initialization and Configuration functions
 116:lib/chip/STM32F4xx_StdPeriph_Driver/src/stm32f4xx_i2c.c ****  *  @brief   Initialization and Configuration functions 
 117:lib/chip/STM32F4xx_StdPeriph_Driver/src/stm32f4xx_i2c.c ****  *
 118:lib/chip/STM32F4xx_StdPeriph_Driver/src/stm32f4xx_i2c.c **** @verbatim   
 119:lib/chip/STM32F4xx_StdPeriph_Driver/src/stm32f4xx_i2c.c ****  ===============================================================================
 120:lib/chip/STM32F4xx_StdPeriph_Driver/src/stm32f4xx_i2c.c ****                    Initialization and Configuration functions
 121:lib/chip/STM32F4xx_StdPeriph_Driver/src/stm32f4xx_i2c.c ****  ===============================================================================  
 122:lib/chip/STM32F4xx_StdPeriph_Driver/src/stm32f4xx_i2c.c **** 
 123:lib/chip/STM32F4xx_StdPeriph_Driver/src/stm32f4xx_i2c.c **** @endverbatim
 124:lib/chip/STM32F4xx_StdPeriph_Driver/src/stm32f4xx_i2c.c ****   * @{
 125:lib/chip/STM32F4xx_StdPeriph_Driver/src/stm32f4xx_i2c.c ****   */
 126:lib/chip/STM32F4xx_StdPeriph_Driver/src/stm32f4xx_i2c.c **** 
 127:lib/chip/STM32F4xx_StdPeriph_Driver/src/stm32f4xx_i2c.c **** /**
 128:lib/chip/STM32F4xx_StdPeriph_Driver/src/stm32f4xx_i2c.c ****   * @brief  Deinitialize the I2Cx peripheral registers to their default reset values.
 129:lib/chip/STM32F4xx_StdPeriph_Driver/src/stm32f4xx_i2c.c ****   * @param  I2Cx: where x can be 1, 2 or 3 to select the I2C peripheral.
 130:lib/chip/STM32F4xx_StdPeriph_Driver/src/stm32f4xx_i2c.c ****   * @retval None
 131:lib/chip/STM32F4xx_StdPeriph_Driver/src/stm32f4xx_i2c.c ****   */
 132:lib/chip/STM32F4xx_StdPeriph_Driver/src/stm32f4xx_i2c.c **** void I2C_DeInit(I2C_TypeDef* I2Cx)
 133:lib/chip/STM32F4xx_StdPeriph_Driver/src/stm32f4xx_i2c.c **** {
  33              		.loc 1 133 0
  34              		.cfi_startproc
  35              		@ args = 0, pretend = 0, frame = 8
  36              		@ frame_needed = 1, uses_anonymous_args = 0
  37 0000 80B5     		push	{r7, lr}
  38              	.LCFI0:
  39              		.cfi_def_cfa_offset 8
  40              		.cfi_offset 7, -8
  41              		.cfi_offset 14, -4
  42 0002 82B0     		sub	sp, sp, #8
  43              	.LCFI1:
  44              		.cfi_def_cfa_offset 16
  45 0004 00AF     		add	r7, sp, #0
  46              	.LCFI2:
  47              		.cfi_def_cfa_register 7
  48 0006 7860     		str	r0, [r7, #4]
 134:lib/chip/STM32F4xx_StdPeriph_Driver/src/stm32f4xx_i2c.c ****   /* Check the parameters */
 135:lib/chip/STM32F4xx_StdPeriph_Driver/src/stm32f4xx_i2c.c ****   assert_param(IS_I2C_ALL_PERIPH(I2Cx));
  49              		.loc 1 135 0
  50 0008 7A68     		ldr	r2, [r7, #4]
  51 000a 4FF4A843 		mov	r3, #21504
  52 000e C4F20003 		movt	r3, 16384
  53 0012 9A42     		cmp	r2, r3
  54 0014 14D0     		beq	.L2
  55              		.loc 1 135 0 is_stmt 0 discriminator 1
  56 0016 7A68     		ldr	r2, [r7, #4]
  57 0018 4FF4B043 		mov	r3, #22528
  58 001c C4F20003 		movt	r3, 16384
  59 0020 9A42     		cmp	r2, r3
  60 0022 0DD0     		beq	.L2
  61 0024 7A68     		ldr	r2, [r7, #4]
  62 0026 4FF4B843 		mov	r3, #23552
  63 002a C4F20003 		movt	r3, 16384
  64 002e 9A42     		cmp	r2, r3
  65 0030 06D0     		beq	.L2
  66 0032 40F20000 		movw	r0, #:lower16:.LC0
  67 0036 C0F20000 		movt	r0, #:upper16:.LC0
  68 003a 8721     		movs	r1, #135
  69 003c FFF7FEFF 		bl	assert_failed
  70              	.L2:
 136:lib/chip/STM32F4xx_StdPeriph_Driver/src/stm32f4xx_i2c.c **** 
 137:lib/chip/STM32F4xx_StdPeriph_Driver/src/stm32f4xx_i2c.c ****   if (I2Cx == I2C1)
  71              		.loc 1 137 0 is_stmt 1
  72 0040 7A68     		ldr	r2, [r7, #4]
  73 0042 4FF4A843 		mov	r3, #21504
  74 0046 C4F20003 		movt	r3, 16384
  75 004a 9A42     		cmp	r2, r3
  76 004c 0AD1     		bne	.L3
 138:lib/chip/STM32F4xx_StdPeriph_Driver/src/stm32f4xx_i2c.c ****   {
 139:lib/chip/STM32F4xx_StdPeriph_Driver/src/stm32f4xx_i2c.c ****     /* Enable I2C1 reset state */
 140:lib/chip/STM32F4xx_StdPeriph_Driver/src/stm32f4xx_i2c.c ****     RCC_APB1PeriphResetCmd(RCC_APB1Periph_I2C1, ENABLE);
  77              		.loc 1 140 0
  78 004e 4FF40010 		mov	r0, #2097152
  79 0052 0121     		movs	r1, #1
  80 0054 FFF7FEFF 		bl	RCC_APB1PeriphResetCmd
 141:lib/chip/STM32F4xx_StdPeriph_Driver/src/stm32f4xx_i2c.c ****     /* Release I2C1 from reset state */
 142:lib/chip/STM32F4xx_StdPeriph_Driver/src/stm32f4xx_i2c.c ****     RCC_APB1PeriphResetCmd(RCC_APB1Periph_I2C1, DISABLE);    
  81              		.loc 1 142 0
  82 0058 4FF40010 		mov	r0, #2097152
  83 005c 0021     		movs	r1, #0
  84 005e FFF7FEFF 		bl	RCC_APB1PeriphResetCmd
  85 0062 22E0     		b	.L1
  86              	.L3:
 143:lib/chip/STM32F4xx_StdPeriph_Driver/src/stm32f4xx_i2c.c ****   }
 144:lib/chip/STM32F4xx_StdPeriph_Driver/src/stm32f4xx_i2c.c ****   else if (I2Cx == I2C2)
  87              		.loc 1 144 0
  88 0064 7A68     		ldr	r2, [r7, #4]
  89 0066 4FF4B043 		mov	r3, #22528
  90 006a C4F20003 		movt	r3, 16384
  91 006e 9A42     		cmp	r2, r3
  92 0070 0AD1     		bne	.L5
 145:lib/chip/STM32F4xx_StdPeriph_Driver/src/stm32f4xx_i2c.c ****   {
 146:lib/chip/STM32F4xx_StdPeriph_Driver/src/stm32f4xx_i2c.c ****     /* Enable I2C2 reset state */
 147:lib/chip/STM32F4xx_StdPeriph_Driver/src/stm32f4xx_i2c.c ****     RCC_APB1PeriphResetCmd(RCC_APB1Periph_I2C2, ENABLE);
  93              		.loc 1 147 0
  94 0072 4FF48000 		mov	r0, #4194304
  95 0076 0121     		movs	r1, #1
  96 0078 FFF7FEFF 		bl	RCC_APB1PeriphResetCmd
 148:lib/chip/STM32F4xx_StdPeriph_Driver/src/stm32f4xx_i2c.c ****     /* Release I2C2 from reset state */
 149:lib/chip/STM32F4xx_StdPeriph_Driver/src/stm32f4xx_i2c.c ****     RCC_APB1PeriphResetCmd(RCC_APB1Periph_I2C2, DISABLE);      
  97              		.loc 1 149 0
  98 007c 4FF48000 		mov	r0, #4194304
  99 0080 0021     		movs	r1, #0
 100 0082 FFF7FEFF 		bl	RCC_APB1PeriphResetCmd
 101 0086 10E0     		b	.L1
 102              	.L5:
 150:lib/chip/STM32F4xx_StdPeriph_Driver/src/stm32f4xx_i2c.c ****   }
 151:lib/chip/STM32F4xx_StdPeriph_Driver/src/stm32f4xx_i2c.c ****   else 
 152:lib/chip/STM32F4xx_StdPeriph_Driver/src/stm32f4xx_i2c.c ****   {
 153:lib/chip/STM32F4xx_StdPeriph_Driver/src/stm32f4xx_i2c.c ****     if (I2Cx == I2C3)
 103              		.loc 1 153 0
 104 0088 7A68     		ldr	r2, [r7, #4]
 105 008a 4FF4B843 		mov	r3, #23552
 106 008e C4F20003 		movt	r3, 16384
 107 0092 9A42     		cmp	r2, r3
 108 0094 09D1     		bne	.L1
 154:lib/chip/STM32F4xx_StdPeriph_Driver/src/stm32f4xx_i2c.c ****     {
 155:lib/chip/STM32F4xx_StdPeriph_Driver/src/stm32f4xx_i2c.c ****       /* Enable I2C3 reset state */
 156:lib/chip/STM32F4xx_StdPeriph_Driver/src/stm32f4xx_i2c.c ****       RCC_APB1PeriphResetCmd(RCC_APB1Periph_I2C3, ENABLE);
 109              		.loc 1 156 0
 110 0096 4FF40000 		mov	r0, #8388608
 111 009a 0121     		movs	r1, #1
 112 009c FFF7FEFF 		bl	RCC_APB1PeriphResetCmd
 157:lib/chip/STM32F4xx_StdPeriph_Driver/src/stm32f4xx_i2c.c ****       /* Release I2C3 from reset state */
 158:lib/chip/STM32F4xx_StdPeriph_Driver/src/stm32f4xx_i2c.c ****       RCC_APB1PeriphResetCmd(RCC_APB1Periph_I2C3, DISABLE);     
 113              		.loc 1 158 0
 114 00a0 4FF40000 		mov	r0, #8388608
 115 00a4 0021     		movs	r1, #0
 116 00a6 FFF7FEFF 		bl	RCC_APB1PeriphResetCmd
 117              	.L1:
 159:lib/chip/STM32F4xx_StdPeriph_Driver/src/stm32f4xx_i2c.c ****     }
 160:lib/chip/STM32F4xx_StdPeriph_Driver/src/stm32f4xx_i2c.c ****   }
 161:lib/chip/STM32F4xx_StdPeriph_Driver/src/stm32f4xx_i2c.c **** }
 118              		.loc 1 161 0
 119 00aa 0837     		adds	r7, r7, #8
 120 00ac BD46     		mov	sp, r7
 121              		@ sp needed
 122 00ae 80BD     		pop	{r7, pc}
 123              		.cfi_endproc
 124              	.LFE110:
 126              		.section	.text.I2C_Init,"ax",%progbits
 127              		.align	2
 128              		.global	I2C_Init
 129              		.thumb
 130              		.thumb_func
 132              	I2C_Init:
 133              	.LFB111:
 162:lib/chip/STM32F4xx_StdPeriph_Driver/src/stm32f4xx_i2c.c **** 
 163:lib/chip/STM32F4xx_StdPeriph_Driver/src/stm32f4xx_i2c.c **** /**
 164:lib/chip/STM32F4xx_StdPeriph_Driver/src/stm32f4xx_i2c.c ****   * @brief  Initializes the I2Cx peripheral according to the specified 
 165:lib/chip/STM32F4xx_StdPeriph_Driver/src/stm32f4xx_i2c.c ****   *         parameters in the I2C_InitStruct.
 166:lib/chip/STM32F4xx_StdPeriph_Driver/src/stm32f4xx_i2c.c ****   *           
 167:lib/chip/STM32F4xx_StdPeriph_Driver/src/stm32f4xx_i2c.c ****   * @note   To use the I2C at 400 KHz (in fast mode), the PCLK1 frequency 
 168:lib/chip/STM32F4xx_StdPeriph_Driver/src/stm32f4xx_i2c.c ****   *         (I2C peripheral input clock) must be a multiple of 10 MHz.  
 169:lib/chip/STM32F4xx_StdPeriph_Driver/src/stm32f4xx_i2c.c ****   *           
 170:lib/chip/STM32F4xx_StdPeriph_Driver/src/stm32f4xx_i2c.c ****   * @param  I2Cx: where x can be 1, 2 or 3 to select the I2C peripheral.
 171:lib/chip/STM32F4xx_StdPeriph_Driver/src/stm32f4xx_i2c.c ****   * @param  I2C_InitStruct: pointer to a I2C_InitTypeDef structure that contains 
 172:lib/chip/STM32F4xx_StdPeriph_Driver/src/stm32f4xx_i2c.c ****   *         the configuration information for the specified I2C peripheral.
 173:lib/chip/STM32F4xx_StdPeriph_Driver/src/stm32f4xx_i2c.c ****   * @retval None
 174:lib/chip/STM32F4xx_StdPeriph_Driver/src/stm32f4xx_i2c.c ****   */
 175:lib/chip/STM32F4xx_StdPeriph_Driver/src/stm32f4xx_i2c.c **** void I2C_Init(I2C_TypeDef* I2Cx, I2C_InitTypeDef* I2C_InitStruct)
 176:lib/chip/STM32F4xx_StdPeriph_Driver/src/stm32f4xx_i2c.c **** {
 134              		.loc 1 176 0
 135              		.cfi_startproc
 136              		@ args = 0, pretend = 0, frame = 40
 137              		@ frame_needed = 1, uses_anonymous_args = 0
 138 0000 80B5     		push	{r7, lr}
 139              	.LCFI3:
 140              		.cfi_def_cfa_offset 8
 141              		.cfi_offset 7, -8
 142              		.cfi_offset 14, -4
 143 0002 8AB0     		sub	sp, sp, #40
 144              	.LCFI4:
 145              		.cfi_def_cfa_offset 48
 146 0004 00AF     		add	r7, sp, #0
 147              	.LCFI5:
 148              		.cfi_def_cfa_register 7
 149 0006 7860     		str	r0, [r7, #4]
 150 0008 3960     		str	r1, [r7]
 177:lib/chip/STM32F4xx_StdPeriph_Driver/src/stm32f4xx_i2c.c ****   uint16_t tmpreg = 0, freqrange = 0;
 151              		.loc 1 177 0
 152 000a 0023     		movs	r3, #0
 153 000c FB84     		strh	r3, [r7, #38]	@ movhi
 154 000e 0023     		movs	r3, #0
 155 0010 7B84     		strh	r3, [r7, #34]	@ movhi
 178:lib/chip/STM32F4xx_StdPeriph_Driver/src/stm32f4xx_i2c.c ****   uint16_t result = 0x04;
 156              		.loc 1 178 0
 157 0012 0423     		movs	r3, #4
 158 0014 BB84     		strh	r3, [r7, #36]	@ movhi
 179:lib/chip/STM32F4xx_StdPeriph_Driver/src/stm32f4xx_i2c.c ****   uint32_t pclk1 = 8000000;
 159              		.loc 1 179 0
 160 0016 4FF49053 		mov	r3, #4608
 161 001a C0F27A03 		movt	r3, 122
 162 001e FB61     		str	r3, [r7, #28]
 180:lib/chip/STM32F4xx_StdPeriph_Driver/src/stm32f4xx_i2c.c ****   RCC_ClocksTypeDef  rcc_clocks;
 181:lib/chip/STM32F4xx_StdPeriph_Driver/src/stm32f4xx_i2c.c ****   /* Check the parameters */
 182:lib/chip/STM32F4xx_StdPeriph_Driver/src/stm32f4xx_i2c.c ****   assert_param(IS_I2C_ALL_PERIPH(I2Cx));
 163              		.loc 1 182 0
 164 0020 7A68     		ldr	r2, [r7, #4]
 165 0022 4FF4A843 		mov	r3, #21504
 166 0026 C4F20003 		movt	r3, 16384
 167 002a 9A42     		cmp	r2, r3
 168 002c 14D0     		beq	.L7
 169              		.loc 1 182 0 is_stmt 0 discriminator 1
 170 002e 7A68     		ldr	r2, [r7, #4]
 171 0030 4FF4B043 		mov	r3, #22528
 172 0034 C4F20003 		movt	r3, 16384
 173 0038 9A42     		cmp	r2, r3
 174 003a 0DD0     		beq	.L7
 175 003c 7A68     		ldr	r2, [r7, #4]
 176 003e 4FF4B843 		mov	r3, #23552
 177 0042 C4F20003 		movt	r3, 16384
 178 0046 9A42     		cmp	r2, r3
 179 0048 06D0     		beq	.L7
 180 004a 40F20000 		movw	r0, #:lower16:.LC0
 181 004e C0F20000 		movt	r0, #:upper16:.LC0
 182 0052 B621     		movs	r1, #182
 183 0054 FFF7FEFF 		bl	assert_failed
 184              	.L7:
 183:lib/chip/STM32F4xx_StdPeriph_Driver/src/stm32f4xx_i2c.c ****   assert_param(IS_I2C_CLOCK_SPEED(I2C_InitStruct->I2C_ClockSpeed));
 185              		.loc 1 183 0 is_stmt 1
 186 0058 3B68     		ldr	r3, [r7]
 187 005a 1B68     		ldr	r3, [r3]
 188 005c 002B     		cmp	r3, #0
 189 005e 07D0     		beq	.L8
 190              		.loc 1 183 0 is_stmt 0 discriminator 2
 191 0060 3B68     		ldr	r3, [r7]
 192 0062 1A68     		ldr	r2, [r3]
 193 0064 4FF4D453 		mov	r3, #6784
 194 0068 C0F20603 		movt	r3, 6
 195 006c 9A42     		cmp	r2, r3
 196 006e 06D9     		bls	.L9
 197              	.L8:
 198              		.loc 1 183 0 discriminator 1
 199 0070 40F20000 		movw	r0, #:lower16:.LC0
 200 0074 C0F20000 		movt	r0, #:upper16:.LC0
 201 0078 B721     		movs	r1, #183
 202 007a FFF7FEFF 		bl	assert_failed
 203              	.L9:
 184:lib/chip/STM32F4xx_StdPeriph_Driver/src/stm32f4xx_i2c.c ****   assert_param(IS_I2C_MODE(I2C_InitStruct->I2C_Mode));
 204              		.loc 1 184 0 is_stmt 1
 205 007e 3B68     		ldr	r3, [r7]
 206 0080 9B88     		ldrh	r3, [r3, #4]
 207 0082 002B     		cmp	r3, #0
 208 0084 0ED0     		beq	.L10
 209              		.loc 1 184 0 is_stmt 0 discriminator 1
 210 0086 3B68     		ldr	r3, [r7]
 211 0088 9B88     		ldrh	r3, [r3, #4]
 212 008a 022B     		cmp	r3, #2
 213 008c 0AD0     		beq	.L10
 214 008e 3B68     		ldr	r3, [r7]
 215 0090 9B88     		ldrh	r3, [r3, #4]
 216 0092 0A2B     		cmp	r3, #10
 217 0094 06D0     		beq	.L10
 218 0096 40F20000 		movw	r0, #:lower16:.LC0
 219 009a C0F20000 		movt	r0, #:upper16:.LC0
 220 009e B821     		movs	r1, #184
 221 00a0 FFF7FEFF 		bl	assert_failed
 222              	.L10:
 185:lib/chip/STM32F4xx_StdPeriph_Driver/src/stm32f4xx_i2c.c ****   assert_param(IS_I2C_DUTY_CYCLE(I2C_InitStruct->I2C_DutyCycle));
 223              		.loc 1 185 0 is_stmt 1
 224 00a4 3B68     		ldr	r3, [r7]
 225 00a6 DB88     		ldrh	r3, [r3, #6]
 226 00a8 B3F5804F 		cmp	r3, #16384
 227 00ac 0CD0     		beq	.L11
 228              		.loc 1 185 0 is_stmt 0 discriminator 1
 229 00ae 3B68     		ldr	r3, [r7]
 230 00b0 DA88     		ldrh	r2, [r3, #6]
 231 00b2 4BF6FF73 		movw	r3, #49151
 232 00b6 9A42     		cmp	r2, r3
 233 00b8 06D0     		beq	.L11
 234 00ba 40F20000 		movw	r0, #:lower16:.LC0
 235 00be C0F20000 		movt	r0, #:upper16:.LC0
 236 00c2 B921     		movs	r1, #185
 237 00c4 FFF7FEFF 		bl	assert_failed
 238              	.L11:
 186:lib/chip/STM32F4xx_StdPeriph_Driver/src/stm32f4xx_i2c.c ****   assert_param(IS_I2C_OWN_ADDRESS1(I2C_InitStruct->I2C_OwnAddress1));
 239              		.loc 1 186 0 is_stmt 1
 240 00c8 3B68     		ldr	r3, [r7]
 241 00ca 1B89     		ldrh	r3, [r3, #8]
 242 00cc B3F5806F 		cmp	r3, #1024
 243 00d0 06D3     		bcc	.L12
 244              		.loc 1 186 0 is_stmt 0 discriminator 1
 245 00d2 40F20000 		movw	r0, #:lower16:.LC0
 246 00d6 C0F20000 		movt	r0, #:upper16:.LC0
 247 00da BA21     		movs	r1, #186
 248 00dc FFF7FEFF 		bl	assert_failed
 249              	.L12:
 187:lib/chip/STM32F4xx_StdPeriph_Driver/src/stm32f4xx_i2c.c ****   assert_param(IS_I2C_ACK_STATE(I2C_InitStruct->I2C_Ack));
 250              		.loc 1 187 0 is_stmt 1
 251 00e0 3B68     		ldr	r3, [r7]
 252 00e2 5B89     		ldrh	r3, [r3, #10]
 253 00e4 B3F5806F 		cmp	r3, #1024
 254 00e8 0AD0     		beq	.L13
 255              		.loc 1 187 0 is_stmt 0 discriminator 1
 256 00ea 3B68     		ldr	r3, [r7]
 257 00ec 5B89     		ldrh	r3, [r3, #10]
 258 00ee 002B     		cmp	r3, #0
 259 00f0 06D0     		beq	.L13
 260 00f2 40F20000 		movw	r0, #:lower16:.LC0
 261 00f6 C0F20000 		movt	r0, #:upper16:.LC0
 262 00fa BB21     		movs	r1, #187
 263 00fc FFF7FEFF 		bl	assert_failed
 264              	.L13:
 188:lib/chip/STM32F4xx_StdPeriph_Driver/src/stm32f4xx_i2c.c ****   assert_param(IS_I2C_ACKNOWLEDGE_ADDRESS(I2C_InitStruct->I2C_AcknowledgedAddress));
 265              		.loc 1 188 0 is_stmt 1
 266 0100 3B68     		ldr	r3, [r7]
 267 0102 9B89     		ldrh	r3, [r3, #12]
 268 0104 B3F5804F 		cmp	r3, #16384
 269 0108 0BD0     		beq	.L14
 270              		.loc 1 188 0 is_stmt 0 discriminator 1
 271 010a 3B68     		ldr	r3, [r7]
 272 010c 9B89     		ldrh	r3, [r3, #12]
 273 010e B3F5404F 		cmp	r3, #49152
 274 0112 06D0     		beq	.L14
 275 0114 40F20000 		movw	r0, #:lower16:.LC0
 276 0118 C0F20000 		movt	r0, #:upper16:.LC0
 277 011c BC21     		movs	r1, #188
 278 011e FFF7FEFF 		bl	assert_failed
 279              	.L14:
 189:lib/chip/STM32F4xx_StdPeriph_Driver/src/stm32f4xx_i2c.c **** 
 190:lib/chip/STM32F4xx_StdPeriph_Driver/src/stm32f4xx_i2c.c **** /*---------------------------- I2Cx CR2 Configuration ------------------------*/
 191:lib/chip/STM32F4xx_StdPeriph_Driver/src/stm32f4xx_i2c.c ****   /* Get the I2Cx CR2 value */
 192:lib/chip/STM32F4xx_StdPeriph_Driver/src/stm32f4xx_i2c.c ****   tmpreg = I2Cx->CR2;
 280              		.loc 1 192 0 is_stmt 1
 281 0122 7B68     		ldr	r3, [r7, #4]
 282 0124 9B88     		ldrh	r3, [r3, #4]	@ movhi
 283 0126 FB84     		strh	r3, [r7, #38]	@ movhi
 193:lib/chip/STM32F4xx_StdPeriph_Driver/src/stm32f4xx_i2c.c ****   /* Clear frequency FREQ[5:0] bits */
 194:lib/chip/STM32F4xx_StdPeriph_Driver/src/stm32f4xx_i2c.c ****   tmpreg &= (uint16_t)~((uint16_t)I2C_CR2_FREQ);
 284              		.loc 1 194 0
 285 0128 FB8C     		ldrh	r3, [r7, #38]	@ movhi
 286 012a 23F03F03 		bic	r3, r3, #63
 287 012e FB84     		strh	r3, [r7, #38]	@ movhi
 195:lib/chip/STM32F4xx_StdPeriph_Driver/src/stm32f4xx_i2c.c ****   /* Get pclk1 frequency value */
 196:lib/chip/STM32F4xx_StdPeriph_Driver/src/stm32f4xx_i2c.c ****   RCC_GetClocksFreq(&rcc_clocks);
 288              		.loc 1 196 0
 289 0130 07F10C03 		add	r3, r7, #12
 290 0134 1846     		mov	r0, r3
 291 0136 FFF7FEFF 		bl	RCC_GetClocksFreq
 197:lib/chip/STM32F4xx_StdPeriph_Driver/src/stm32f4xx_i2c.c ****   pclk1 = rcc_clocks.PCLK1_Frequency;
 292              		.loc 1 197 0
 293 013a 7B69     		ldr	r3, [r7, #20]
 294 013c FB61     		str	r3, [r7, #28]
 198:lib/chip/STM32F4xx_StdPeriph_Driver/src/stm32f4xx_i2c.c ****   /* Set frequency bits depending on pclk1 value */
 199:lib/chip/STM32F4xx_StdPeriph_Driver/src/stm32f4xx_i2c.c ****   freqrange = (uint16_t)(pclk1 / 1000000);
 295              		.loc 1 199 0
 296 013e FA69     		ldr	r2, [r7, #28]
 297 0140 4DF68363 		movw	r3, #56963
 298 0144 C4F21B33 		movt	r3, 17179
 299 0148 A3FB0213 		umull	r1, r3, r3, r2
 300 014c 9B0C     		lsrs	r3, r3, #18
 301 014e 7B84     		strh	r3, [r7, #34]	@ movhi
 200:lib/chip/STM32F4xx_StdPeriph_Driver/src/stm32f4xx_i2c.c ****   tmpreg |= freqrange;
 302              		.loc 1 200 0
 303 0150 FA8C     		ldrh	r2, [r7, #38]	@ movhi
 304 0152 7B8C     		ldrh	r3, [r7, #34]	@ movhi
 305 0154 1343     		orrs	r3, r3, r2
 306 0156 FB84     		strh	r3, [r7, #38]	@ movhi
 201:lib/chip/STM32F4xx_StdPeriph_Driver/src/stm32f4xx_i2c.c ****   /* Write to I2Cx CR2 */
 202:lib/chip/STM32F4xx_StdPeriph_Driver/src/stm32f4xx_i2c.c ****   I2Cx->CR2 = tmpreg;
 307              		.loc 1 202 0
 308 0158 7B68     		ldr	r3, [r7, #4]
 309 015a FA8C     		ldrh	r2, [r7, #38]	@ movhi
 310 015c 9A80     		strh	r2, [r3, #4]	@ movhi
 203:lib/chip/STM32F4xx_StdPeriph_Driver/src/stm32f4xx_i2c.c **** 
 204:lib/chip/STM32F4xx_StdPeriph_Driver/src/stm32f4xx_i2c.c **** /*---------------------------- I2Cx CCR Configuration ------------------------*/
 205:lib/chip/STM32F4xx_StdPeriph_Driver/src/stm32f4xx_i2c.c ****   /* Disable the selected I2C peripheral to configure TRISE */
 206:lib/chip/STM32F4xx_StdPeriph_Driver/src/stm32f4xx_i2c.c ****   I2Cx->CR1 &= (uint16_t)~((uint16_t)I2C_CR1_PE);
 311              		.loc 1 206 0
 312 015e 7B68     		ldr	r3, [r7, #4]
 313 0160 1B88     		ldrh	r3, [r3]	@ movhi
 314 0162 9BB2     		uxth	r3, r3
 315 0164 23F00103 		bic	r3, r3, #1
 316 0168 9AB2     		uxth	r2, r3
 317 016a 7B68     		ldr	r3, [r7, #4]
 318 016c 1A80     		strh	r2, [r3]	@ movhi
 207:lib/chip/STM32F4xx_StdPeriph_Driver/src/stm32f4xx_i2c.c ****   /* Reset tmpreg value */
 208:lib/chip/STM32F4xx_StdPeriph_Driver/src/stm32f4xx_i2c.c ****   /* Clear F/S, DUTY and CCR[11:0] bits */
 209:lib/chip/STM32F4xx_StdPeriph_Driver/src/stm32f4xx_i2c.c ****   tmpreg = 0;
 319              		.loc 1 209 0
 320 016e 0023     		movs	r3, #0
 321 0170 FB84     		strh	r3, [r7, #38]	@ movhi
 210:lib/chip/STM32F4xx_StdPeriph_Driver/src/stm32f4xx_i2c.c **** 
 211:lib/chip/STM32F4xx_StdPeriph_Driver/src/stm32f4xx_i2c.c ****   /* Configure speed in standard mode */
 212:lib/chip/STM32F4xx_StdPeriph_Driver/src/stm32f4xx_i2c.c ****   if (I2C_InitStruct->I2C_ClockSpeed <= 100000)
 322              		.loc 1 212 0
 323 0172 3B68     		ldr	r3, [r7]
 324 0174 1A68     		ldr	r2, [r3]
 325 0176 48F2A063 		movw	r3, #34464
 326 017a C0F20103 		movt	r3, 1
 327 017e 9A42     		cmp	r2, r3
 328 0180 15D8     		bhi	.L15
 213:lib/chip/STM32F4xx_StdPeriph_Driver/src/stm32f4xx_i2c.c ****   {
 214:lib/chip/STM32F4xx_StdPeriph_Driver/src/stm32f4xx_i2c.c ****     /* Standard mode speed calculate */
 215:lib/chip/STM32F4xx_StdPeriph_Driver/src/stm32f4xx_i2c.c ****     result = (uint16_t)(pclk1 / (I2C_InitStruct->I2C_ClockSpeed << 1));
 329              		.loc 1 215 0
 330 0182 3B68     		ldr	r3, [r7]
 331 0184 1B68     		ldr	r3, [r3]
 332 0186 5B00     		lsls	r3, r3, #1
 333 0188 FA69     		ldr	r2, [r7, #28]
 334 018a B2FBF3F3 		udiv	r3, r2, r3
 335 018e BB84     		strh	r3, [r7, #36]	@ movhi
 216:lib/chip/STM32F4xx_StdPeriph_Driver/src/stm32f4xx_i2c.c ****     /* Test if CCR value is under 0x4*/
 217:lib/chip/STM32F4xx_StdPeriph_Driver/src/stm32f4xx_i2c.c ****     if (result < 0x04)
 336              		.loc 1 217 0
 337 0190 BB8C     		ldrh	r3, [r7, #36]
 338 0192 032B     		cmp	r3, #3
 339 0194 01D8     		bhi	.L16
 218:lib/chip/STM32F4xx_StdPeriph_Driver/src/stm32f4xx_i2c.c ****     {
 219:lib/chip/STM32F4xx_StdPeriph_Driver/src/stm32f4xx_i2c.c ****       /* Set minimum allowed value */
 220:lib/chip/STM32F4xx_StdPeriph_Driver/src/stm32f4xx_i2c.c ****       result = 0x04;  
 340              		.loc 1 220 0
 341 0196 0423     		movs	r3, #4
 342 0198 BB84     		strh	r3, [r7, #36]	@ movhi
 343              	.L16:
 221:lib/chip/STM32F4xx_StdPeriph_Driver/src/stm32f4xx_i2c.c ****     }
 222:lib/chip/STM32F4xx_StdPeriph_Driver/src/stm32f4xx_i2c.c ****     /* Set speed value for standard mode */
 223:lib/chip/STM32F4xx_StdPeriph_Driver/src/stm32f4xx_i2c.c ****     tmpreg |= result;	  
 344              		.loc 1 223 0
 345 019a FA8C     		ldrh	r2, [r7, #38]	@ movhi
 346 019c BB8C     		ldrh	r3, [r7, #36]	@ movhi
 347 019e 1343     		orrs	r3, r3, r2
 348 01a0 FB84     		strh	r3, [r7, #38]	@ movhi
 224:lib/chip/STM32F4xx_StdPeriph_Driver/src/stm32f4xx_i2c.c ****     /* Set Maximum Rise Time for standard mode */
 225:lib/chip/STM32F4xx_StdPeriph_Driver/src/stm32f4xx_i2c.c ****     I2Cx->TRISE = freqrange + 1; 
 349              		.loc 1 225 0
 350 01a2 7B8C     		ldrh	r3, [r7, #34]	@ movhi
 351 01a4 0133     		adds	r3, r3, #1
 352 01a6 9AB2     		uxth	r2, r3
 353 01a8 7B68     		ldr	r3, [r7, #4]
 354 01aa 1A84     		strh	r2, [r3, #32]	@ movhi
 355 01ac 43E0     		b	.L17
 356              	.L15:
 226:lib/chip/STM32F4xx_StdPeriph_Driver/src/stm32f4xx_i2c.c ****   }
 227:lib/chip/STM32F4xx_StdPeriph_Driver/src/stm32f4xx_i2c.c ****   /* Configure speed in fast mode */
 228:lib/chip/STM32F4xx_StdPeriph_Driver/src/stm32f4xx_i2c.c ****   /* To use the I2C at 400 KHz (in fast mode), the PCLK1 frequency (I2C peripheral
 229:lib/chip/STM32F4xx_StdPeriph_Driver/src/stm32f4xx_i2c.c ****      input clock) must be a multiple of 10 MHz */
 230:lib/chip/STM32F4xx_StdPeriph_Driver/src/stm32f4xx_i2c.c ****   else /*(I2C_InitStruct->I2C_ClockSpeed <= 400000)*/
 231:lib/chip/STM32F4xx_StdPeriph_Driver/src/stm32f4xx_i2c.c ****   {
 232:lib/chip/STM32F4xx_StdPeriph_Driver/src/stm32f4xx_i2c.c ****     if (I2C_InitStruct->I2C_DutyCycle == I2C_DutyCycle_2)
 357              		.loc 1 232 0
 358 01ae 3B68     		ldr	r3, [r7]
 359 01b0 DA88     		ldrh	r2, [r3, #6]
 360 01b2 4BF6FF73 		movw	r3, #49151
 361 01b6 9A42     		cmp	r2, r3
 362 01b8 09D1     		bne	.L18
 233:lib/chip/STM32F4xx_StdPeriph_Driver/src/stm32f4xx_i2c.c ****     {
 234:lib/chip/STM32F4xx_StdPeriph_Driver/src/stm32f4xx_i2c.c ****       /* Fast mode speed calculate: Tlow/Thigh = 2 */
 235:lib/chip/STM32F4xx_StdPeriph_Driver/src/stm32f4xx_i2c.c ****       result = (uint16_t)(pclk1 / (I2C_InitStruct->I2C_ClockSpeed * 3));
 363              		.loc 1 235 0
 364 01ba 3B68     		ldr	r3, [r7]
 365 01bc 1A68     		ldr	r2, [r3]
 366 01be 1346     		mov	r3, r2
 367 01c0 5B00     		lsls	r3, r3, #1
 368 01c2 1344     		add	r3, r3, r2
 369 01c4 FA69     		ldr	r2, [r7, #28]
 370 01c6 B2FBF3F3 		udiv	r3, r2, r3
 371 01ca BB84     		strh	r3, [r7, #36]	@ movhi
 372 01cc 0EE0     		b	.L19
 373              	.L18:
 236:lib/chip/STM32F4xx_StdPeriph_Driver/src/stm32f4xx_i2c.c ****     }
 237:lib/chip/STM32F4xx_StdPeriph_Driver/src/stm32f4xx_i2c.c ****     else /*I2C_InitStruct->I2C_DutyCycle == I2C_DutyCycle_16_9*/
 238:lib/chip/STM32F4xx_StdPeriph_Driver/src/stm32f4xx_i2c.c ****     {
 239:lib/chip/STM32F4xx_StdPeriph_Driver/src/stm32f4xx_i2c.c ****       /* Fast mode speed calculate: Tlow/Thigh = 16/9 */
 240:lib/chip/STM32F4xx_StdPeriph_Driver/src/stm32f4xx_i2c.c ****       result = (uint16_t)(pclk1 / (I2C_InitStruct->I2C_ClockSpeed * 25));
 374              		.loc 1 240 0
 375 01ce 3B68     		ldr	r3, [r7]
 376 01d0 1A68     		ldr	r2, [r3]
 377 01d2 1346     		mov	r3, r2
 378 01d4 9B00     		lsls	r3, r3, #2
 379 01d6 1344     		add	r3, r3, r2
 380 01d8 9A00     		lsls	r2, r3, #2
 381 01da 1344     		add	r3, r3, r2
 382 01dc FA69     		ldr	r2, [r7, #28]
 383 01de B2FBF3F3 		udiv	r3, r2, r3
 384 01e2 BB84     		strh	r3, [r7, #36]	@ movhi
 241:lib/chip/STM32F4xx_StdPeriph_Driver/src/stm32f4xx_i2c.c ****       /* Set DUTY bit */
 242:lib/chip/STM32F4xx_StdPeriph_Driver/src/stm32f4xx_i2c.c ****       result |= I2C_DutyCycle_16_9;
 385              		.loc 1 242 0
 386 01e4 BB8C     		ldrh	r3, [r7, #36]	@ movhi
 387 01e6 43F48043 		orr	r3, r3, #16384
 388 01ea BB84     		strh	r3, [r7, #36]	@ movhi
 389              	.L19:
 243:lib/chip/STM32F4xx_StdPeriph_Driver/src/stm32f4xx_i2c.c ****     }
 244:lib/chip/STM32F4xx_StdPeriph_Driver/src/stm32f4xx_i2c.c **** 
 245:lib/chip/STM32F4xx_StdPeriph_Driver/src/stm32f4xx_i2c.c ****     /* Test if CCR value is under 0x1*/
 246:lib/chip/STM32F4xx_StdPeriph_Driver/src/stm32f4xx_i2c.c ****     if ((result & I2C_CCR_CCR) == 0)
 390              		.loc 1 246 0
 391 01ec BB8C     		ldrh	r3, [r7, #36]
 392 01ee C3F30B03 		ubfx	r3, r3, #0, #12
 393 01f2 002B     		cmp	r3, #0
 394 01f4 03D1     		bne	.L20
 247:lib/chip/STM32F4xx_StdPeriph_Driver/src/stm32f4xx_i2c.c ****     {
 248:lib/chip/STM32F4xx_StdPeriph_Driver/src/stm32f4xx_i2c.c ****       /* Set minimum allowed value */
 249:lib/chip/STM32F4xx_StdPeriph_Driver/src/stm32f4xx_i2c.c ****       result |= (uint16_t)0x0001;  
 395              		.loc 1 249 0
 396 01f6 BB8C     		ldrh	r3, [r7, #36]	@ movhi
 397 01f8 43F00103 		orr	r3, r3, #1
 398 01fc BB84     		strh	r3, [r7, #36]	@ movhi
 399              	.L20:
 250:lib/chip/STM32F4xx_StdPeriph_Driver/src/stm32f4xx_i2c.c ****     }
 251:lib/chip/STM32F4xx_StdPeriph_Driver/src/stm32f4xx_i2c.c ****     /* Set speed value and set F/S bit for fast mode */
 252:lib/chip/STM32F4xx_StdPeriph_Driver/src/stm32f4xx_i2c.c ****     tmpreg |= (uint16_t)(result | I2C_CCR_FS);
 400              		.loc 1 252 0
 401 01fe BA8C     		ldrh	r2, [r7, #36]	@ movhi
 402 0200 FB8C     		ldrh	r3, [r7, #38]	@ movhi
 403 0202 1343     		orrs	r3, r3, r2
 404 0204 9BB2     		uxth	r3, r3
 405 0206 6FEA4343 		mvn	r3, r3, lsl #17
 406 020a 6FEA5343 		mvn	r3, r3, lsr #17
 407 020e FB84     		strh	r3, [r7, #38]	@ movhi
 253:lib/chip/STM32F4xx_StdPeriph_Driver/src/stm32f4xx_i2c.c ****     /* Set Maximum Rise Time for fast mode */
 254:lib/chip/STM32F4xx_StdPeriph_Driver/src/stm32f4xx_i2c.c ****     I2Cx->TRISE = (uint16_t)(((freqrange * (uint16_t)300) / (uint16_t)1000) + (uint16_t)1);  
 408              		.loc 1 254 0
 409 0210 7B8C     		ldrh	r3, [r7, #34]
 410 0212 4FF49672 		mov	r2, #300
 411 0216 02FB03F2 		mul	r2, r2, r3
 412 021a 44F6D353 		movw	r3, #19923
 413 021e C1F26203 		movt	r3, 4194
 414 0222 83FB0213 		smull	r1, r3, r3, r2
 415 0226 9911     		asrs	r1, r3, #6
 416 0228 D317     		asrs	r3, r2, #31
 417 022a CB1A     		subs	r3, r1, r3
 418 022c 9BB2     		uxth	r3, r3
 419 022e 0133     		adds	r3, r3, #1
 420 0230 9AB2     		uxth	r2, r3
 421 0232 7B68     		ldr	r3, [r7, #4]
 422 0234 1A84     		strh	r2, [r3, #32]	@ movhi
 423              	.L17:
 255:lib/chip/STM32F4xx_StdPeriph_Driver/src/stm32f4xx_i2c.c ****   }
 256:lib/chip/STM32F4xx_StdPeriph_Driver/src/stm32f4xx_i2c.c **** 
 257:lib/chip/STM32F4xx_StdPeriph_Driver/src/stm32f4xx_i2c.c ****   /* Write to I2Cx CCR */
 258:lib/chip/STM32F4xx_StdPeriph_Driver/src/stm32f4xx_i2c.c ****   I2Cx->CCR = tmpreg;
 424              		.loc 1 258 0
 425 0236 7B68     		ldr	r3, [r7, #4]
 426 0238 FA8C     		ldrh	r2, [r7, #38]	@ movhi
 427 023a 9A83     		strh	r2, [r3, #28]	@ movhi
 259:lib/chip/STM32F4xx_StdPeriph_Driver/src/stm32f4xx_i2c.c ****   /* Enable the selected I2C peripheral */
 260:lib/chip/STM32F4xx_StdPeriph_Driver/src/stm32f4xx_i2c.c ****   I2Cx->CR1 |= I2C_CR1_PE;
 428              		.loc 1 260 0
 429 023c 7B68     		ldr	r3, [r7, #4]
 430 023e 1B88     		ldrh	r3, [r3]	@ movhi
 431 0240 9BB2     		uxth	r3, r3
 432 0242 43F00103 		orr	r3, r3, #1
 433 0246 9AB2     		uxth	r2, r3
 434 0248 7B68     		ldr	r3, [r7, #4]
 435 024a 1A80     		strh	r2, [r3]	@ movhi
 261:lib/chip/STM32F4xx_StdPeriph_Driver/src/stm32f4xx_i2c.c **** 
 262:lib/chip/STM32F4xx_StdPeriph_Driver/src/stm32f4xx_i2c.c **** /*---------------------------- I2Cx CR1 Configuration ------------------------*/
 263:lib/chip/STM32F4xx_StdPeriph_Driver/src/stm32f4xx_i2c.c ****   /* Get the I2Cx CR1 value */
 264:lib/chip/STM32F4xx_StdPeriph_Driver/src/stm32f4xx_i2c.c ****   tmpreg = I2Cx->CR1;
 436              		.loc 1 264 0
 437 024c 7B68     		ldr	r3, [r7, #4]
 438 024e 1B88     		ldrh	r3, [r3]	@ movhi
 439 0250 FB84     		strh	r3, [r7, #38]	@ movhi
 265:lib/chip/STM32F4xx_StdPeriph_Driver/src/stm32f4xx_i2c.c ****   /* Clear ACK, SMBTYPE and  SMBUS bits */
 266:lib/chip/STM32F4xx_StdPeriph_Driver/src/stm32f4xx_i2c.c ****   tmpreg &= CR1_CLEAR_MASK;
 440              		.loc 1 266 0
 441 0252 FB8C     		ldrh	r3, [r7, #38]	@ movhi
 442 0254 23F48163 		bic	r3, r3, #1032
 443 0258 23F00203 		bic	r3, r3, #2
 444 025c FB84     		strh	r3, [r7, #38]	@ movhi
 267:lib/chip/STM32F4xx_StdPeriph_Driver/src/stm32f4xx_i2c.c ****   /* Configure I2Cx: mode and acknowledgement */
 268:lib/chip/STM32F4xx_StdPeriph_Driver/src/stm32f4xx_i2c.c ****   /* Set SMBTYPE and SMBUS bits according to I2C_Mode value */
 269:lib/chip/STM32F4xx_StdPeriph_Driver/src/stm32f4xx_i2c.c ****   /* Set ACK bit according to I2C_Ack value */
 270:lib/chip/STM32F4xx_StdPeriph_Driver/src/stm32f4xx_i2c.c ****   tmpreg |= (uint16_t)((uint32_t)I2C_InitStruct->I2C_Mode | I2C_InitStruct->I2C_Ack);
 445              		.loc 1 270 0
 446 025e 3B68     		ldr	r3, [r7]
 447 0260 9A88     		ldrh	r2, [r3, #4]
 448 0262 3B68     		ldr	r3, [r7]
 449 0264 5B89     		ldrh	r3, [r3, #10]
 450 0266 1343     		orrs	r3, r3, r2
 451 0268 9AB2     		uxth	r2, r3
 452 026a FB8C     		ldrh	r3, [r7, #38]	@ movhi
 453 026c 1343     		orrs	r3, r3, r2
 454 026e FB84     		strh	r3, [r7, #38]	@ movhi
 271:lib/chip/STM32F4xx_StdPeriph_Driver/src/stm32f4xx_i2c.c ****   /* Write to I2Cx CR1 */
 272:lib/chip/STM32F4xx_StdPeriph_Driver/src/stm32f4xx_i2c.c ****   I2Cx->CR1 = tmpreg;
 455              		.loc 1 272 0
 456 0270 7B68     		ldr	r3, [r7, #4]
 457 0272 FA8C     		ldrh	r2, [r7, #38]	@ movhi
 458 0274 1A80     		strh	r2, [r3]	@ movhi
 273:lib/chip/STM32F4xx_StdPeriph_Driver/src/stm32f4xx_i2c.c **** 
 274:lib/chip/STM32F4xx_StdPeriph_Driver/src/stm32f4xx_i2c.c **** /*---------------------------- I2Cx OAR1 Configuration -----------------------*/
 275:lib/chip/STM32F4xx_StdPeriph_Driver/src/stm32f4xx_i2c.c ****   /* Set I2Cx Own Address1 and acknowledged address */
 276:lib/chip/STM32F4xx_StdPeriph_Driver/src/stm32f4xx_i2c.c ****   I2Cx->OAR1 = (I2C_InitStruct->I2C_AcknowledgedAddress | I2C_InitStruct->I2C_OwnAddress1);
 459              		.loc 1 276 0
 460 0276 3B68     		ldr	r3, [r7]
 461 0278 9A89     		ldrh	r2, [r3, #12]
 462 027a 3B68     		ldr	r3, [r7]
 463 027c 1B89     		ldrh	r3, [r3, #8]
 464 027e 1343     		orrs	r3, r3, r2
 465 0280 9AB2     		uxth	r2, r3
 466 0282 7B68     		ldr	r3, [r7, #4]
 467 0284 1A81     		strh	r2, [r3, #8]	@ movhi
 277:lib/chip/STM32F4xx_StdPeriph_Driver/src/stm32f4xx_i2c.c **** }
 468              		.loc 1 277 0
 469 0286 2837     		adds	r7, r7, #40
 470 0288 BD46     		mov	sp, r7
 471              		@ sp needed
 472 028a 80BD     		pop	{r7, pc}
 473              		.cfi_endproc
 474              	.LFE111:
 476              		.section	.text.I2C_StructInit,"ax",%progbits
 477              		.align	2
 478              		.global	I2C_StructInit
 479              		.thumb
 480              		.thumb_func
 482              	I2C_StructInit:
 483              	.LFB112:
 278:lib/chip/STM32F4xx_StdPeriph_Driver/src/stm32f4xx_i2c.c **** 
 279:lib/chip/STM32F4xx_StdPeriph_Driver/src/stm32f4xx_i2c.c **** /**
 280:lib/chip/STM32F4xx_StdPeriph_Driver/src/stm32f4xx_i2c.c ****   * @brief  Fills each I2C_InitStruct member with its default value.
 281:lib/chip/STM32F4xx_StdPeriph_Driver/src/stm32f4xx_i2c.c ****   * @param  I2C_InitStruct: pointer to an I2C_InitTypeDef structure which will be initialized.
 282:lib/chip/STM32F4xx_StdPeriph_Driver/src/stm32f4xx_i2c.c ****   * @retval None
 283:lib/chip/STM32F4xx_StdPeriph_Driver/src/stm32f4xx_i2c.c ****   */
 284:lib/chip/STM32F4xx_StdPeriph_Driver/src/stm32f4xx_i2c.c **** void I2C_StructInit(I2C_InitTypeDef* I2C_InitStruct)
 285:lib/chip/STM32F4xx_StdPeriph_Driver/src/stm32f4xx_i2c.c **** {
 484              		.loc 1 285 0
 485              		.cfi_startproc
 486              		@ args = 0, pretend = 0, frame = 8
 487              		@ frame_needed = 1, uses_anonymous_args = 0
 488              		@ link register save eliminated.
 489 0000 80B4     		push	{r7}
 490              	.LCFI6:
 491              		.cfi_def_cfa_offset 4
 492              		.cfi_offset 7, -4
 493 0002 83B0     		sub	sp, sp, #12
 494              	.LCFI7:
 495              		.cfi_def_cfa_offset 16
 496 0004 00AF     		add	r7, sp, #0
 497              	.LCFI8:
 498              		.cfi_def_cfa_register 7
 499 0006 7860     		str	r0, [r7, #4]
 286:lib/chip/STM32F4xx_StdPeriph_Driver/src/stm32f4xx_i2c.c **** /*---------------- Reset I2C init structure parameters values ----------------*/
 287:lib/chip/STM32F4xx_StdPeriph_Driver/src/stm32f4xx_i2c.c ****   /* initialize the I2C_ClockSpeed member */
 288:lib/chip/STM32F4xx_StdPeriph_Driver/src/stm32f4xx_i2c.c ****   I2C_InitStruct->I2C_ClockSpeed = 5000;
 500              		.loc 1 288 0
 501 0008 7B68     		ldr	r3, [r7, #4]
 502 000a 41F28832 		movw	r2, #5000
 503 000e 1A60     		str	r2, [r3]
 289:lib/chip/STM32F4xx_StdPeriph_Driver/src/stm32f4xx_i2c.c ****   /* Initialize the I2C_Mode member */
 290:lib/chip/STM32F4xx_StdPeriph_Driver/src/stm32f4xx_i2c.c ****   I2C_InitStruct->I2C_Mode = I2C_Mode_I2C;
 504              		.loc 1 290 0
 505 0010 7B68     		ldr	r3, [r7, #4]
 506 0012 0022     		movs	r2, #0
 507 0014 9A80     		strh	r2, [r3, #4]	@ movhi
 291:lib/chip/STM32F4xx_StdPeriph_Driver/src/stm32f4xx_i2c.c ****   /* Initialize the I2C_DutyCycle member */
 292:lib/chip/STM32F4xx_StdPeriph_Driver/src/stm32f4xx_i2c.c ****   I2C_InitStruct->I2C_DutyCycle = I2C_DutyCycle_2;
 508              		.loc 1 292 0
 509 0016 7B68     		ldr	r3, [r7, #4]
 510 0018 4BF6FF72 		movw	r2, #49151
 511 001c DA80     		strh	r2, [r3, #6]	@ movhi
 293:lib/chip/STM32F4xx_StdPeriph_Driver/src/stm32f4xx_i2c.c ****   /* Initialize the I2C_OwnAddress1 member */
 294:lib/chip/STM32F4xx_StdPeriph_Driver/src/stm32f4xx_i2c.c ****   I2C_InitStruct->I2C_OwnAddress1 = 0;
 512              		.loc 1 294 0
 513 001e 7B68     		ldr	r3, [r7, #4]
 514 0020 0022     		movs	r2, #0
 515 0022 1A81     		strh	r2, [r3, #8]	@ movhi
 295:lib/chip/STM32F4xx_StdPeriph_Driver/src/stm32f4xx_i2c.c ****   /* Initialize the I2C_Ack member */
 296:lib/chip/STM32F4xx_StdPeriph_Driver/src/stm32f4xx_i2c.c ****   I2C_InitStruct->I2C_Ack = I2C_Ack_Disable;
 516              		.loc 1 296 0
 517 0024 7B68     		ldr	r3, [r7, #4]
 518 0026 0022     		movs	r2, #0
 519 0028 5A81     		strh	r2, [r3, #10]	@ movhi
 297:lib/chip/STM32F4xx_StdPeriph_Driver/src/stm32f4xx_i2c.c ****   /* Initialize the I2C_AcknowledgedAddress member */
 298:lib/chip/STM32F4xx_StdPeriph_Driver/src/stm32f4xx_i2c.c ****   I2C_InitStruct->I2C_AcknowledgedAddress = I2C_AcknowledgedAddress_7bit;
 520              		.loc 1 298 0
 521 002a 7B68     		ldr	r3, [r7, #4]
 522 002c 4FF48042 		mov	r2, #16384
 523 0030 9A81     		strh	r2, [r3, #12]	@ movhi
 299:lib/chip/STM32F4xx_StdPeriph_Driver/src/stm32f4xx_i2c.c **** }
 524              		.loc 1 299 0
 525 0032 0C37     		adds	r7, r7, #12
 526 0034 BD46     		mov	sp, r7
 527              		@ sp needed
 528 0036 5DF8047B 		ldr	r7, [sp], #4
 529 003a 7047     		bx	lr
 530              		.cfi_endproc
 531              	.LFE112:
 533              		.section	.text.I2C_Cmd,"ax",%progbits
 534              		.align	2
 535              		.global	I2C_Cmd
 536              		.thumb
 537              		.thumb_func
 539              	I2C_Cmd:
 540              	.LFB113:
 300:lib/chip/STM32F4xx_StdPeriph_Driver/src/stm32f4xx_i2c.c **** 
 301:lib/chip/STM32F4xx_StdPeriph_Driver/src/stm32f4xx_i2c.c **** /**
 302:lib/chip/STM32F4xx_StdPeriph_Driver/src/stm32f4xx_i2c.c ****   * @brief  Enables or disables the specified I2C peripheral.
 303:lib/chip/STM32F4xx_StdPeriph_Driver/src/stm32f4xx_i2c.c ****   * @param  I2Cx: where x can be 1, 2 or 3 to select the I2C peripheral.
 304:lib/chip/STM32F4xx_StdPeriph_Driver/src/stm32f4xx_i2c.c ****   * @param  NewState: new state of the I2Cx peripheral. 
 305:lib/chip/STM32F4xx_StdPeriph_Driver/src/stm32f4xx_i2c.c ****   *          This parameter can be: ENABLE or DISABLE.
 306:lib/chip/STM32F4xx_StdPeriph_Driver/src/stm32f4xx_i2c.c ****   * @retval None
 307:lib/chip/STM32F4xx_StdPeriph_Driver/src/stm32f4xx_i2c.c ****   */
 308:lib/chip/STM32F4xx_StdPeriph_Driver/src/stm32f4xx_i2c.c **** void I2C_Cmd(I2C_TypeDef* I2Cx, FunctionalState NewState)
 309:lib/chip/STM32F4xx_StdPeriph_Driver/src/stm32f4xx_i2c.c **** {
 541              		.loc 1 309 0
 542              		.cfi_startproc
 543              		@ args = 0, pretend = 0, frame = 8
 544              		@ frame_needed = 1, uses_anonymous_args = 0
 545 0000 80B5     		push	{r7, lr}
 546              	.LCFI9:
 547              		.cfi_def_cfa_offset 8
 548              		.cfi_offset 7, -8
 549              		.cfi_offset 14, -4
 550 0002 82B0     		sub	sp, sp, #8
 551              	.LCFI10:
 552              		.cfi_def_cfa_offset 16
 553 0004 00AF     		add	r7, sp, #0
 554              	.LCFI11:
 555              		.cfi_def_cfa_register 7
 556 0006 7860     		str	r0, [r7, #4]
 557 0008 0B46     		mov	r3, r1
 558 000a FB70     		strb	r3, [r7, #3]
 310:lib/chip/STM32F4xx_StdPeriph_Driver/src/stm32f4xx_i2c.c ****   /* Check the parameters */
 311:lib/chip/STM32F4xx_StdPeriph_Driver/src/stm32f4xx_i2c.c ****   assert_param(IS_I2C_ALL_PERIPH(I2Cx));
 559              		.loc 1 311 0
 560 000c 7A68     		ldr	r2, [r7, #4]
 561 000e 4FF4A843 		mov	r3, #21504
 562 0012 C4F20003 		movt	r3, 16384
 563 0016 9A42     		cmp	r2, r3
 564 0018 15D0     		beq	.L23
 565              		.loc 1 311 0 is_stmt 0 discriminator 1
 566 001a 7A68     		ldr	r2, [r7, #4]
 567 001c 4FF4B043 		mov	r3, #22528
 568 0020 C4F20003 		movt	r3, 16384
 569 0024 9A42     		cmp	r2, r3
 570 0026 0ED0     		beq	.L23
 571 0028 7A68     		ldr	r2, [r7, #4]
 572 002a 4FF4B843 		mov	r3, #23552
 573 002e C4F20003 		movt	r3, 16384
 574 0032 9A42     		cmp	r2, r3
 575 0034 07D0     		beq	.L23
 576 0036 40F20000 		movw	r0, #:lower16:.LC0
 577 003a C0F20000 		movt	r0, #:upper16:.LC0
 578 003e 40F23711 		movw	r1, #311
 579 0042 FFF7FEFF 		bl	assert_failed
 580              	.L23:
 312:lib/chip/STM32F4xx_StdPeriph_Driver/src/stm32f4xx_i2c.c ****   assert_param(IS_FUNCTIONAL_STATE(NewState));
 581              		.loc 1 312 0 is_stmt 1
 582 0046 FB78     		ldrb	r3, [r7, #3]	@ zero_extendqisi2
 583 0048 002B     		cmp	r3, #0
 584 004a 0AD0     		beq	.L24
 585              		.loc 1 312 0 is_stmt 0 discriminator 1
 586 004c FB78     		ldrb	r3, [r7, #3]	@ zero_extendqisi2
 587 004e 012B     		cmp	r3, #1
 588 0050 07D0     		beq	.L24
 589 0052 40F20000 		movw	r0, #:lower16:.LC0
 590 0056 C0F20000 		movt	r0, #:upper16:.LC0
 591 005a 4FF49C71 		mov	r1, #312
 592 005e FFF7FEFF 		bl	assert_failed
 593              	.L24:
 313:lib/chip/STM32F4xx_StdPeriph_Driver/src/stm32f4xx_i2c.c ****   if (NewState != DISABLE)
 594              		.loc 1 313 0 is_stmt 1
 595 0062 FB78     		ldrb	r3, [r7, #3]	@ zero_extendqisi2
 596 0064 002B     		cmp	r3, #0
 597 0066 08D0     		beq	.L25
 314:lib/chip/STM32F4xx_StdPeriph_Driver/src/stm32f4xx_i2c.c ****   {
 315:lib/chip/STM32F4xx_StdPeriph_Driver/src/stm32f4xx_i2c.c ****     /* Enable the selected I2C peripheral */
 316:lib/chip/STM32F4xx_StdPeriph_Driver/src/stm32f4xx_i2c.c ****     I2Cx->CR1 |= I2C_CR1_PE;
 598              		.loc 1 316 0
 599 0068 7B68     		ldr	r3, [r7, #4]
 600 006a 1B88     		ldrh	r3, [r3]	@ movhi
 601 006c 9BB2     		uxth	r3, r3
 602 006e 43F00103 		orr	r3, r3, #1
 603 0072 9AB2     		uxth	r2, r3
 604 0074 7B68     		ldr	r3, [r7, #4]
 605 0076 1A80     		strh	r2, [r3]	@ movhi
 606 0078 07E0     		b	.L22
 607              	.L25:
 317:lib/chip/STM32F4xx_StdPeriph_Driver/src/stm32f4xx_i2c.c ****   }
 318:lib/chip/STM32F4xx_StdPeriph_Driver/src/stm32f4xx_i2c.c ****   else
 319:lib/chip/STM32F4xx_StdPeriph_Driver/src/stm32f4xx_i2c.c ****   {
 320:lib/chip/STM32F4xx_StdPeriph_Driver/src/stm32f4xx_i2c.c ****     /* Disable the selected I2C peripheral */
 321:lib/chip/STM32F4xx_StdPeriph_Driver/src/stm32f4xx_i2c.c ****     I2Cx->CR1 &= (uint16_t)~((uint16_t)I2C_CR1_PE);
 608              		.loc 1 321 0
 609 007a 7B68     		ldr	r3, [r7, #4]
 610 007c 1B88     		ldrh	r3, [r3]	@ movhi
 611 007e 9BB2     		uxth	r3, r3
 612 0080 23F00103 		bic	r3, r3, #1
 613 0084 9AB2     		uxth	r2, r3
 614 0086 7B68     		ldr	r3, [r7, #4]
 615 0088 1A80     		strh	r2, [r3]	@ movhi
 616              	.L22:
 322:lib/chip/STM32F4xx_StdPeriph_Driver/src/stm32f4xx_i2c.c ****   }
 323:lib/chip/STM32F4xx_StdPeriph_Driver/src/stm32f4xx_i2c.c **** }
 617              		.loc 1 323 0
 618 008a 0837     		adds	r7, r7, #8
 619 008c BD46     		mov	sp, r7
 620              		@ sp needed
 621 008e 80BD     		pop	{r7, pc}
 622              		.cfi_endproc
 623              	.LFE113:
 625              		.section	.text.I2C_GenerateSTART,"ax",%progbits
 626              		.align	2
 627              		.global	I2C_GenerateSTART
 628              		.thumb
 629              		.thumb_func
 631              	I2C_GenerateSTART:
 632              	.LFB114:
 324:lib/chip/STM32F4xx_StdPeriph_Driver/src/stm32f4xx_i2c.c **** 
 325:lib/chip/STM32F4xx_StdPeriph_Driver/src/stm32f4xx_i2c.c **** /**
 326:lib/chip/STM32F4xx_StdPeriph_Driver/src/stm32f4xx_i2c.c ****   * @brief  Generates I2Cx communication START condition.
 327:lib/chip/STM32F4xx_StdPeriph_Driver/src/stm32f4xx_i2c.c ****   * @param  I2Cx: where x can be 1, 2 or 3 to select the I2C peripheral.
 328:lib/chip/STM32F4xx_StdPeriph_Driver/src/stm32f4xx_i2c.c ****   * @param  NewState: new state of the I2C START condition generation.
 329:lib/chip/STM32F4xx_StdPeriph_Driver/src/stm32f4xx_i2c.c ****   *          This parameter can be: ENABLE or DISABLE.
 330:lib/chip/STM32F4xx_StdPeriph_Driver/src/stm32f4xx_i2c.c ****   * @retval None.
 331:lib/chip/STM32F4xx_StdPeriph_Driver/src/stm32f4xx_i2c.c ****   */
 332:lib/chip/STM32F4xx_StdPeriph_Driver/src/stm32f4xx_i2c.c **** void I2C_GenerateSTART(I2C_TypeDef* I2Cx, FunctionalState NewState)
 333:lib/chip/STM32F4xx_StdPeriph_Driver/src/stm32f4xx_i2c.c **** {
 633              		.loc 1 333 0
 634              		.cfi_startproc
 635              		@ args = 0, pretend = 0, frame = 8
 636              		@ frame_needed = 1, uses_anonymous_args = 0
 637 0000 80B5     		push	{r7, lr}
 638              	.LCFI12:
 639              		.cfi_def_cfa_offset 8
 640              		.cfi_offset 7, -8
 641              		.cfi_offset 14, -4
 642 0002 82B0     		sub	sp, sp, #8
 643              	.LCFI13:
 644              		.cfi_def_cfa_offset 16
 645 0004 00AF     		add	r7, sp, #0
 646              	.LCFI14:
 647              		.cfi_def_cfa_register 7
 648 0006 7860     		str	r0, [r7, #4]
 649 0008 0B46     		mov	r3, r1
 650 000a FB70     		strb	r3, [r7, #3]
 334:lib/chip/STM32F4xx_StdPeriph_Driver/src/stm32f4xx_i2c.c ****   /* Check the parameters */
 335:lib/chip/STM32F4xx_StdPeriph_Driver/src/stm32f4xx_i2c.c ****   assert_param(IS_I2C_ALL_PERIPH(I2Cx));
 651              		.loc 1 335 0
 652 000c 7A68     		ldr	r2, [r7, #4]
 653 000e 4FF4A843 		mov	r3, #21504
 654 0012 C4F20003 		movt	r3, 16384
 655 0016 9A42     		cmp	r2, r3
 656 0018 15D0     		beq	.L28
 657              		.loc 1 335 0 is_stmt 0 discriminator 1
 658 001a 7A68     		ldr	r2, [r7, #4]
 659 001c 4FF4B043 		mov	r3, #22528
 660 0020 C4F20003 		movt	r3, 16384
 661 0024 9A42     		cmp	r2, r3
 662 0026 0ED0     		beq	.L28
 663 0028 7A68     		ldr	r2, [r7, #4]
 664 002a 4FF4B843 		mov	r3, #23552
 665 002e C4F20003 		movt	r3, 16384
 666 0032 9A42     		cmp	r2, r3
 667 0034 07D0     		beq	.L28
 668 0036 40F20000 		movw	r0, #:lower16:.LC0
 669 003a C0F20000 		movt	r0, #:upper16:.LC0
 670 003e 40F24F11 		movw	r1, #335
 671 0042 FFF7FEFF 		bl	assert_failed
 672              	.L28:
 336:lib/chip/STM32F4xx_StdPeriph_Driver/src/stm32f4xx_i2c.c ****   assert_param(IS_FUNCTIONAL_STATE(NewState));
 673              		.loc 1 336 0 is_stmt 1
 674 0046 FB78     		ldrb	r3, [r7, #3]	@ zero_extendqisi2
 675 0048 002B     		cmp	r3, #0
 676 004a 0AD0     		beq	.L29
 677              		.loc 1 336 0 is_stmt 0 discriminator 1
 678 004c FB78     		ldrb	r3, [r7, #3]	@ zero_extendqisi2
 679 004e 012B     		cmp	r3, #1
 680 0050 07D0     		beq	.L29
 681 0052 40F20000 		movw	r0, #:lower16:.LC0
 682 0056 C0F20000 		movt	r0, #:upper16:.LC0
 683 005a 4FF4A871 		mov	r1, #336
 684 005e FFF7FEFF 		bl	assert_failed
 685              	.L29:
 337:lib/chip/STM32F4xx_StdPeriph_Driver/src/stm32f4xx_i2c.c ****   if (NewState != DISABLE)
 686              		.loc 1 337 0 is_stmt 1
 687 0062 FB78     		ldrb	r3, [r7, #3]	@ zero_extendqisi2
 688 0064 002B     		cmp	r3, #0
 689 0066 08D0     		beq	.L30
 338:lib/chip/STM32F4xx_StdPeriph_Driver/src/stm32f4xx_i2c.c ****   {
 339:lib/chip/STM32F4xx_StdPeriph_Driver/src/stm32f4xx_i2c.c ****     /* Generate a START condition */
 340:lib/chip/STM32F4xx_StdPeriph_Driver/src/stm32f4xx_i2c.c ****     I2Cx->CR1 |= I2C_CR1_START;
 690              		.loc 1 340 0
 691 0068 7B68     		ldr	r3, [r7, #4]
 692 006a 1B88     		ldrh	r3, [r3]	@ movhi
 693 006c 9BB2     		uxth	r3, r3
 694 006e 43F48073 		orr	r3, r3, #256
 695 0072 9AB2     		uxth	r2, r3
 696 0074 7B68     		ldr	r3, [r7, #4]
 697 0076 1A80     		strh	r2, [r3]	@ movhi
 698 0078 07E0     		b	.L27
 699              	.L30:
 341:lib/chip/STM32F4xx_StdPeriph_Driver/src/stm32f4xx_i2c.c ****   }
 342:lib/chip/STM32F4xx_StdPeriph_Driver/src/stm32f4xx_i2c.c ****   else
 343:lib/chip/STM32F4xx_StdPeriph_Driver/src/stm32f4xx_i2c.c ****   {
 344:lib/chip/STM32F4xx_StdPeriph_Driver/src/stm32f4xx_i2c.c ****     /* Disable the START condition generation */
 345:lib/chip/STM32F4xx_StdPeriph_Driver/src/stm32f4xx_i2c.c ****     I2Cx->CR1 &= (uint16_t)~((uint16_t)I2C_CR1_START);
 700              		.loc 1 345 0
 701 007a 7B68     		ldr	r3, [r7, #4]
 702 007c 1B88     		ldrh	r3, [r3]	@ movhi
 703 007e 9BB2     		uxth	r3, r3
 704 0080 23F48073 		bic	r3, r3, #256
 705 0084 9AB2     		uxth	r2, r3
 706 0086 7B68     		ldr	r3, [r7, #4]
 707 0088 1A80     		strh	r2, [r3]	@ movhi
 708              	.L27:
 346:lib/chip/STM32F4xx_StdPeriph_Driver/src/stm32f4xx_i2c.c ****   }
 347:lib/chip/STM32F4xx_StdPeriph_Driver/src/stm32f4xx_i2c.c **** }
 709              		.loc 1 347 0
 710 008a 0837     		adds	r7, r7, #8
 711 008c BD46     		mov	sp, r7
 712              		@ sp needed
 713 008e 80BD     		pop	{r7, pc}
 714              		.cfi_endproc
 715              	.LFE114:
 717              		.section	.text.I2C_GenerateSTOP,"ax",%progbits
 718              		.align	2
 719              		.global	I2C_GenerateSTOP
 720              		.thumb
 721              		.thumb_func
 723              	I2C_GenerateSTOP:
 724              	.LFB115:
 348:lib/chip/STM32F4xx_StdPeriph_Driver/src/stm32f4xx_i2c.c **** 
 349:lib/chip/STM32F4xx_StdPeriph_Driver/src/stm32f4xx_i2c.c **** /**
 350:lib/chip/STM32F4xx_StdPeriph_Driver/src/stm32f4xx_i2c.c ****   * @brief  Generates I2Cx communication STOP condition.
 351:lib/chip/STM32F4xx_StdPeriph_Driver/src/stm32f4xx_i2c.c ****   * @param  I2Cx: where x can be 1, 2 or 3 to select the I2C peripheral.
 352:lib/chip/STM32F4xx_StdPeriph_Driver/src/stm32f4xx_i2c.c ****   * @param  NewState: new state of the I2C STOP condition generation.
 353:lib/chip/STM32F4xx_StdPeriph_Driver/src/stm32f4xx_i2c.c ****   *          This parameter can be: ENABLE or DISABLE.
 354:lib/chip/STM32F4xx_StdPeriph_Driver/src/stm32f4xx_i2c.c ****   * @retval None.
 355:lib/chip/STM32F4xx_StdPeriph_Driver/src/stm32f4xx_i2c.c ****   */
 356:lib/chip/STM32F4xx_StdPeriph_Driver/src/stm32f4xx_i2c.c **** void I2C_GenerateSTOP(I2C_TypeDef* I2Cx, FunctionalState NewState)
 357:lib/chip/STM32F4xx_StdPeriph_Driver/src/stm32f4xx_i2c.c **** {
 725              		.loc 1 357 0
 726              		.cfi_startproc
 727              		@ args = 0, pretend = 0, frame = 8
 728              		@ frame_needed = 1, uses_anonymous_args = 0
 729 0000 80B5     		push	{r7, lr}
 730              	.LCFI15:
 731              		.cfi_def_cfa_offset 8
 732              		.cfi_offset 7, -8
 733              		.cfi_offset 14, -4
 734 0002 82B0     		sub	sp, sp, #8
 735              	.LCFI16:
 736              		.cfi_def_cfa_offset 16
 737 0004 00AF     		add	r7, sp, #0
 738              	.LCFI17:
 739              		.cfi_def_cfa_register 7
 740 0006 7860     		str	r0, [r7, #4]
 741 0008 0B46     		mov	r3, r1
 742 000a FB70     		strb	r3, [r7, #3]
 358:lib/chip/STM32F4xx_StdPeriph_Driver/src/stm32f4xx_i2c.c ****   /* Check the parameters */
 359:lib/chip/STM32F4xx_StdPeriph_Driver/src/stm32f4xx_i2c.c ****   assert_param(IS_I2C_ALL_PERIPH(I2Cx));
 743              		.loc 1 359 0
 744 000c 7A68     		ldr	r2, [r7, #4]
 745 000e 4FF4A843 		mov	r3, #21504
 746 0012 C4F20003 		movt	r3, 16384
 747 0016 9A42     		cmp	r2, r3
 748 0018 15D0     		beq	.L33
 749              		.loc 1 359 0 is_stmt 0 discriminator 1
 750 001a 7A68     		ldr	r2, [r7, #4]
 751 001c 4FF4B043 		mov	r3, #22528
 752 0020 C4F20003 		movt	r3, 16384
 753 0024 9A42     		cmp	r2, r3
 754 0026 0ED0     		beq	.L33
 755 0028 7A68     		ldr	r2, [r7, #4]
 756 002a 4FF4B843 		mov	r3, #23552
 757 002e C4F20003 		movt	r3, 16384
 758 0032 9A42     		cmp	r2, r3
 759 0034 07D0     		beq	.L33
 760 0036 40F20000 		movw	r0, #:lower16:.LC0
 761 003a C0F20000 		movt	r0, #:upper16:.LC0
 762 003e 40F26711 		movw	r1, #359
 763 0042 FFF7FEFF 		bl	assert_failed
 764              	.L33:
 360:lib/chip/STM32F4xx_StdPeriph_Driver/src/stm32f4xx_i2c.c ****   assert_param(IS_FUNCTIONAL_STATE(NewState));
 765              		.loc 1 360 0 is_stmt 1
 766 0046 FB78     		ldrb	r3, [r7, #3]	@ zero_extendqisi2
 767 0048 002B     		cmp	r3, #0
 768 004a 0AD0     		beq	.L34
 769              		.loc 1 360 0 is_stmt 0 discriminator 1
 770 004c FB78     		ldrb	r3, [r7, #3]	@ zero_extendqisi2
 771 004e 012B     		cmp	r3, #1
 772 0050 07D0     		beq	.L34
 773 0052 40F20000 		movw	r0, #:lower16:.LC0
 774 0056 C0F20000 		movt	r0, #:upper16:.LC0
 775 005a 4FF4B471 		mov	r1, #360
 776 005e FFF7FEFF 		bl	assert_failed
 777              	.L34:
 361:lib/chip/STM32F4xx_StdPeriph_Driver/src/stm32f4xx_i2c.c ****   if (NewState != DISABLE)
 778              		.loc 1 361 0 is_stmt 1
 779 0062 FB78     		ldrb	r3, [r7, #3]	@ zero_extendqisi2
 780 0064 002B     		cmp	r3, #0
 781 0066 08D0     		beq	.L35
 362:lib/chip/STM32F4xx_StdPeriph_Driver/src/stm32f4xx_i2c.c ****   {
 363:lib/chip/STM32F4xx_StdPeriph_Driver/src/stm32f4xx_i2c.c ****     /* Generate a STOP condition */
 364:lib/chip/STM32F4xx_StdPeriph_Driver/src/stm32f4xx_i2c.c ****     I2Cx->CR1 |= I2C_CR1_STOP;
 782              		.loc 1 364 0
 783 0068 7B68     		ldr	r3, [r7, #4]
 784 006a 1B88     		ldrh	r3, [r3]	@ movhi
 785 006c 9BB2     		uxth	r3, r3
 786 006e 43F40073 		orr	r3, r3, #512
 787 0072 9AB2     		uxth	r2, r3
 788 0074 7B68     		ldr	r3, [r7, #4]
 789 0076 1A80     		strh	r2, [r3]	@ movhi
 790 0078 07E0     		b	.L32
 791              	.L35:
 365:lib/chip/STM32F4xx_StdPeriph_Driver/src/stm32f4xx_i2c.c ****   }
 366:lib/chip/STM32F4xx_StdPeriph_Driver/src/stm32f4xx_i2c.c ****   else
 367:lib/chip/STM32F4xx_StdPeriph_Driver/src/stm32f4xx_i2c.c ****   {
 368:lib/chip/STM32F4xx_StdPeriph_Driver/src/stm32f4xx_i2c.c ****     /* Disable the STOP condition generation */
 369:lib/chip/STM32F4xx_StdPeriph_Driver/src/stm32f4xx_i2c.c ****     I2Cx->CR1 &= (uint16_t)~((uint16_t)I2C_CR1_STOP);
 792              		.loc 1 369 0
 793 007a 7B68     		ldr	r3, [r7, #4]
 794 007c 1B88     		ldrh	r3, [r3]	@ movhi
 795 007e 9BB2     		uxth	r3, r3
 796 0080 23F40073 		bic	r3, r3, #512
 797 0084 9AB2     		uxth	r2, r3
 798 0086 7B68     		ldr	r3, [r7, #4]
 799 0088 1A80     		strh	r2, [r3]	@ movhi
 800              	.L32:
 370:lib/chip/STM32F4xx_StdPeriph_Driver/src/stm32f4xx_i2c.c ****   }
 371:lib/chip/STM32F4xx_StdPeriph_Driver/src/stm32f4xx_i2c.c **** }
 801              		.loc 1 371 0
 802 008a 0837     		adds	r7, r7, #8
 803 008c BD46     		mov	sp, r7
 804              		@ sp needed
 805 008e 80BD     		pop	{r7, pc}
 806              		.cfi_endproc
 807              	.LFE115:
 809              		.section	.text.I2C_Send7bitAddress,"ax",%progbits
 810              		.align	2
 811              		.global	I2C_Send7bitAddress
 812              		.thumb
 813              		.thumb_func
 815              	I2C_Send7bitAddress:
 816              	.LFB116:
 372:lib/chip/STM32F4xx_StdPeriph_Driver/src/stm32f4xx_i2c.c **** 
 373:lib/chip/STM32F4xx_StdPeriph_Driver/src/stm32f4xx_i2c.c **** /**
 374:lib/chip/STM32F4xx_StdPeriph_Driver/src/stm32f4xx_i2c.c ****   * @brief  Transmits the address byte to select the slave device.
 375:lib/chip/STM32F4xx_StdPeriph_Driver/src/stm32f4xx_i2c.c ****   * @param  I2Cx: where x can be 1, 2 or 3 to select the I2C peripheral.
 376:lib/chip/STM32F4xx_StdPeriph_Driver/src/stm32f4xx_i2c.c ****   * @param  Address: specifies the slave address which will be transmitted
 377:lib/chip/STM32F4xx_StdPeriph_Driver/src/stm32f4xx_i2c.c ****   * @param  I2C_Direction: specifies whether the I2C device will be a Transmitter
 378:lib/chip/STM32F4xx_StdPeriph_Driver/src/stm32f4xx_i2c.c ****   *         or a Receiver. 
 379:lib/chip/STM32F4xx_StdPeriph_Driver/src/stm32f4xx_i2c.c ****   *          This parameter can be one of the following values
 380:lib/chip/STM32F4xx_StdPeriph_Driver/src/stm32f4xx_i2c.c ****   *            @arg I2C_Direction_Transmitter: Transmitter mode
 381:lib/chip/STM32F4xx_StdPeriph_Driver/src/stm32f4xx_i2c.c ****   *            @arg I2C_Direction_Receiver: Receiver mode
 382:lib/chip/STM32F4xx_StdPeriph_Driver/src/stm32f4xx_i2c.c ****   * @retval None.
 383:lib/chip/STM32F4xx_StdPeriph_Driver/src/stm32f4xx_i2c.c ****   */
 384:lib/chip/STM32F4xx_StdPeriph_Driver/src/stm32f4xx_i2c.c **** void I2C_Send7bitAddress(I2C_TypeDef* I2Cx, uint8_t Address, uint8_t I2C_Direction)
 385:lib/chip/STM32F4xx_StdPeriph_Driver/src/stm32f4xx_i2c.c **** {
 817              		.loc 1 385 0
 818              		.cfi_startproc
 819              		@ args = 0, pretend = 0, frame = 8
 820              		@ frame_needed = 1, uses_anonymous_args = 0
 821 0000 80B5     		push	{r7, lr}
 822              	.LCFI18:
 823              		.cfi_def_cfa_offset 8
 824              		.cfi_offset 7, -8
 825              		.cfi_offset 14, -4
 826 0002 82B0     		sub	sp, sp, #8
 827              	.LCFI19:
 828              		.cfi_def_cfa_offset 16
 829 0004 00AF     		add	r7, sp, #0
 830              	.LCFI20:
 831              		.cfi_def_cfa_register 7
 832 0006 7860     		str	r0, [r7, #4]
 833 0008 1346     		mov	r3, r2
 834 000a 0A46     		mov	r2, r1
 835 000c FA70     		strb	r2, [r7, #3]
 836 000e BB70     		strb	r3, [r7, #2]
 386:lib/chip/STM32F4xx_StdPeriph_Driver/src/stm32f4xx_i2c.c ****   /* Check the parameters */
 387:lib/chip/STM32F4xx_StdPeriph_Driver/src/stm32f4xx_i2c.c ****   assert_param(IS_I2C_ALL_PERIPH(I2Cx));
 837              		.loc 1 387 0
 838 0010 7A68     		ldr	r2, [r7, #4]
 839 0012 4FF4A843 		mov	r3, #21504
 840 0016 C4F20003 		movt	r3, 16384
 841 001a 9A42     		cmp	r2, r3
 842 001c 15D0     		beq	.L38
 843              		.loc 1 387 0 is_stmt 0 discriminator 1
 844 001e 7A68     		ldr	r2, [r7, #4]
 845 0020 4FF4B043 		mov	r3, #22528
 846 0024 C4F20003 		movt	r3, 16384
 847 0028 9A42     		cmp	r2, r3
 848 002a 0ED0     		beq	.L38
 849 002c 7A68     		ldr	r2, [r7, #4]
 850 002e 4FF4B843 		mov	r3, #23552
 851 0032 C4F20003 		movt	r3, 16384
 852 0036 9A42     		cmp	r2, r3
 853 0038 07D0     		beq	.L38
 854 003a 40F20000 		movw	r0, #:lower16:.LC0
 855 003e C0F20000 		movt	r0, #:upper16:.LC0
 856 0042 40F28311 		movw	r1, #387
 857 0046 FFF7FEFF 		bl	assert_failed
 858              	.L38:
 388:lib/chip/STM32F4xx_StdPeriph_Driver/src/stm32f4xx_i2c.c ****   assert_param(IS_I2C_DIRECTION(I2C_Direction));
 859              		.loc 1 388 0 is_stmt 1
 860 004a BB78     		ldrb	r3, [r7, #2]	@ zero_extendqisi2
 861 004c 002B     		cmp	r3, #0
 862 004e 0AD0     		beq	.L39
 863              		.loc 1 388 0 is_stmt 0 discriminator 1
 864 0050 BB78     		ldrb	r3, [r7, #2]	@ zero_extendqisi2
 865 0052 012B     		cmp	r3, #1
 866 0054 07D0     		beq	.L39
 867 0056 40F20000 		movw	r0, #:lower16:.LC0
 868 005a C0F20000 		movt	r0, #:upper16:.LC0
 869 005e 4FF4C271 		mov	r1, #388
 870 0062 FFF7FEFF 		bl	assert_failed
 871              	.L39:
 389:lib/chip/STM32F4xx_StdPeriph_Driver/src/stm32f4xx_i2c.c ****   /* Test on the direction to set/reset the read/write bit */
 390:lib/chip/STM32F4xx_StdPeriph_Driver/src/stm32f4xx_i2c.c ****   if (I2C_Direction != I2C_Direction_Transmitter)
 872              		.loc 1 390 0 is_stmt 1
 873 0066 BB78     		ldrb	r3, [r7, #2]	@ zero_extendqisi2
 874 0068 002B     		cmp	r3, #0
 875 006a 04D0     		beq	.L40
 391:lib/chip/STM32F4xx_StdPeriph_Driver/src/stm32f4xx_i2c.c ****   {
 392:lib/chip/STM32F4xx_StdPeriph_Driver/src/stm32f4xx_i2c.c ****     /* Set the address bit0 for read */
 393:lib/chip/STM32F4xx_StdPeriph_Driver/src/stm32f4xx_i2c.c ****     Address |= I2C_OAR1_ADD0;
 876              		.loc 1 393 0
 877 006c FB78     		ldrb	r3, [r7, #3]
 878 006e 43F00103 		orr	r3, r3, #1
 879 0072 FB70     		strb	r3, [r7, #3]
 880 0074 03E0     		b	.L41
 881              	.L40:
 394:lib/chip/STM32F4xx_StdPeriph_Driver/src/stm32f4xx_i2c.c ****   }
 395:lib/chip/STM32F4xx_StdPeriph_Driver/src/stm32f4xx_i2c.c ****   else
 396:lib/chip/STM32F4xx_StdPeriph_Driver/src/stm32f4xx_i2c.c ****   {
 397:lib/chip/STM32F4xx_StdPeriph_Driver/src/stm32f4xx_i2c.c ****     /* Reset the address bit0 for write */
 398:lib/chip/STM32F4xx_StdPeriph_Driver/src/stm32f4xx_i2c.c ****     Address &= (uint8_t)~((uint8_t)I2C_OAR1_ADD0);
 882              		.loc 1 398 0
 883 0076 FB78     		ldrb	r3, [r7, #3]
 884 0078 23F00103 		bic	r3, r3, #1
 885 007c FB70     		strb	r3, [r7, #3]
 886              	.L41:
 399:lib/chip/STM32F4xx_StdPeriph_Driver/src/stm32f4xx_i2c.c ****   }
 400:lib/chip/STM32F4xx_StdPeriph_Driver/src/stm32f4xx_i2c.c ****   /* Send the address */
 401:lib/chip/STM32F4xx_StdPeriph_Driver/src/stm32f4xx_i2c.c ****   I2Cx->DR = Address;
 887              		.loc 1 401 0
 888 007e FB78     		ldrb	r3, [r7, #3]	@ zero_extendqisi2
 889 0080 9AB2     		uxth	r2, r3
 890 0082 7B68     		ldr	r3, [r7, #4]
 891 0084 1A82     		strh	r2, [r3, #16]	@ movhi
 402:lib/chip/STM32F4xx_StdPeriph_Driver/src/stm32f4xx_i2c.c **** }
 892              		.loc 1 402 0
 893 0086 0837     		adds	r7, r7, #8
 894 0088 BD46     		mov	sp, r7
 895              		@ sp needed
 896 008a 80BD     		pop	{r7, pc}
 897              		.cfi_endproc
 898              	.LFE116:
 900              		.section	.text.I2C_AcknowledgeConfig,"ax",%progbits
 901              		.align	2
 902              		.global	I2C_AcknowledgeConfig
 903              		.thumb
 904              		.thumb_func
 906              	I2C_AcknowledgeConfig:
 907              	.LFB117:
 403:lib/chip/STM32F4xx_StdPeriph_Driver/src/stm32f4xx_i2c.c **** 
 404:lib/chip/STM32F4xx_StdPeriph_Driver/src/stm32f4xx_i2c.c **** /**
 405:lib/chip/STM32F4xx_StdPeriph_Driver/src/stm32f4xx_i2c.c ****   * @brief  Enables or disables the specified I2C acknowledge feature.
 406:lib/chip/STM32F4xx_StdPeriph_Driver/src/stm32f4xx_i2c.c ****   * @param  I2Cx: where x can be 1, 2 or 3 to select the I2C peripheral.
 407:lib/chip/STM32F4xx_StdPeriph_Driver/src/stm32f4xx_i2c.c ****   * @param  NewState: new state of the I2C Acknowledgement.
 408:lib/chip/STM32F4xx_StdPeriph_Driver/src/stm32f4xx_i2c.c ****   *          This parameter can be: ENABLE or DISABLE.
 409:lib/chip/STM32F4xx_StdPeriph_Driver/src/stm32f4xx_i2c.c ****   * @retval None.
 410:lib/chip/STM32F4xx_StdPeriph_Driver/src/stm32f4xx_i2c.c ****   */
 411:lib/chip/STM32F4xx_StdPeriph_Driver/src/stm32f4xx_i2c.c **** void I2C_AcknowledgeConfig(I2C_TypeDef* I2Cx, FunctionalState NewState)
 412:lib/chip/STM32F4xx_StdPeriph_Driver/src/stm32f4xx_i2c.c **** {
 908              		.loc 1 412 0
 909              		.cfi_startproc
 910              		@ args = 0, pretend = 0, frame = 8
 911              		@ frame_needed = 1, uses_anonymous_args = 0
 912 0000 80B5     		push	{r7, lr}
 913              	.LCFI21:
 914              		.cfi_def_cfa_offset 8
 915              		.cfi_offset 7, -8
 916              		.cfi_offset 14, -4
 917 0002 82B0     		sub	sp, sp, #8
 918              	.LCFI22:
 919              		.cfi_def_cfa_offset 16
 920 0004 00AF     		add	r7, sp, #0
 921              	.LCFI23:
 922              		.cfi_def_cfa_register 7
 923 0006 7860     		str	r0, [r7, #4]
 924 0008 0B46     		mov	r3, r1
 925 000a FB70     		strb	r3, [r7, #3]
 413:lib/chip/STM32F4xx_StdPeriph_Driver/src/stm32f4xx_i2c.c ****   /* Check the parameters */
 414:lib/chip/STM32F4xx_StdPeriph_Driver/src/stm32f4xx_i2c.c ****   assert_param(IS_I2C_ALL_PERIPH(I2Cx));
 926              		.loc 1 414 0
 927 000c 7A68     		ldr	r2, [r7, #4]
 928 000e 4FF4A843 		mov	r3, #21504
 929 0012 C4F20003 		movt	r3, 16384
 930 0016 9A42     		cmp	r2, r3
 931 0018 15D0     		beq	.L43
 932              		.loc 1 414 0 is_stmt 0 discriminator 1
 933 001a 7A68     		ldr	r2, [r7, #4]
 934 001c 4FF4B043 		mov	r3, #22528
 935 0020 C4F20003 		movt	r3, 16384
 936 0024 9A42     		cmp	r2, r3
 937 0026 0ED0     		beq	.L43
 938 0028 7A68     		ldr	r2, [r7, #4]
 939 002a 4FF4B843 		mov	r3, #23552
 940 002e C4F20003 		movt	r3, 16384
 941 0032 9A42     		cmp	r2, r3
 942 0034 07D0     		beq	.L43
 943 0036 40F20000 		movw	r0, #:lower16:.LC0
 944 003a C0F20000 		movt	r0, #:upper16:.LC0
 945 003e 4FF4CF71 		mov	r1, #414
 946 0042 FFF7FEFF 		bl	assert_failed
 947              	.L43:
 415:lib/chip/STM32F4xx_StdPeriph_Driver/src/stm32f4xx_i2c.c ****   assert_param(IS_FUNCTIONAL_STATE(NewState));
 948              		.loc 1 415 0 is_stmt 1
 949 0046 FB78     		ldrb	r3, [r7, #3]	@ zero_extendqisi2
 950 0048 002B     		cmp	r3, #0
 951 004a 0AD0     		beq	.L44
 952              		.loc 1 415 0 is_stmt 0 discriminator 1
 953 004c FB78     		ldrb	r3, [r7, #3]	@ zero_extendqisi2
 954 004e 012B     		cmp	r3, #1
 955 0050 07D0     		beq	.L44
 956 0052 40F20000 		movw	r0, #:lower16:.LC0
 957 0056 C0F20000 		movt	r0, #:upper16:.LC0
 958 005a 40F29F11 		movw	r1, #415
 959 005e FFF7FEFF 		bl	assert_failed
 960              	.L44:
 416:lib/chip/STM32F4xx_StdPeriph_Driver/src/stm32f4xx_i2c.c ****   if (NewState != DISABLE)
 961              		.loc 1 416 0 is_stmt 1
 962 0062 FB78     		ldrb	r3, [r7, #3]	@ zero_extendqisi2
 963 0064 002B     		cmp	r3, #0
 964 0066 08D0     		beq	.L45
 417:lib/chip/STM32F4xx_StdPeriph_Driver/src/stm32f4xx_i2c.c ****   {
 418:lib/chip/STM32F4xx_StdPeriph_Driver/src/stm32f4xx_i2c.c ****     /* Enable the acknowledgement */
 419:lib/chip/STM32F4xx_StdPeriph_Driver/src/stm32f4xx_i2c.c ****     I2Cx->CR1 |= I2C_CR1_ACK;
 965              		.loc 1 419 0
 966 0068 7B68     		ldr	r3, [r7, #4]
 967 006a 1B88     		ldrh	r3, [r3]	@ movhi
 968 006c 9BB2     		uxth	r3, r3
 969 006e 43F48063 		orr	r3, r3, #1024
 970 0072 9AB2     		uxth	r2, r3
 971 0074 7B68     		ldr	r3, [r7, #4]
 972 0076 1A80     		strh	r2, [r3]	@ movhi
 973 0078 07E0     		b	.L42
 974              	.L45:
 420:lib/chip/STM32F4xx_StdPeriph_Driver/src/stm32f4xx_i2c.c ****   }
 421:lib/chip/STM32F4xx_StdPeriph_Driver/src/stm32f4xx_i2c.c ****   else
 422:lib/chip/STM32F4xx_StdPeriph_Driver/src/stm32f4xx_i2c.c ****   {
 423:lib/chip/STM32F4xx_StdPeriph_Driver/src/stm32f4xx_i2c.c ****     /* Disable the acknowledgement */
 424:lib/chip/STM32F4xx_StdPeriph_Driver/src/stm32f4xx_i2c.c ****     I2Cx->CR1 &= (uint16_t)~((uint16_t)I2C_CR1_ACK);
 975              		.loc 1 424 0
 976 007a 7B68     		ldr	r3, [r7, #4]
 977 007c 1B88     		ldrh	r3, [r3]	@ movhi
 978 007e 9BB2     		uxth	r3, r3
 979 0080 23F48063 		bic	r3, r3, #1024
 980 0084 9AB2     		uxth	r2, r3
 981 0086 7B68     		ldr	r3, [r7, #4]
 982 0088 1A80     		strh	r2, [r3]	@ movhi
 983              	.L42:
 425:lib/chip/STM32F4xx_StdPeriph_Driver/src/stm32f4xx_i2c.c ****   }
 426:lib/chip/STM32F4xx_StdPeriph_Driver/src/stm32f4xx_i2c.c **** }
 984              		.loc 1 426 0
 985 008a 0837     		adds	r7, r7, #8
 986 008c BD46     		mov	sp, r7
 987              		@ sp needed
 988 008e 80BD     		pop	{r7, pc}
 989              		.cfi_endproc
 990              	.LFE117:
 992              		.section	.text.I2C_OwnAddress2Config,"ax",%progbits
 993              		.align	2
 994              		.global	I2C_OwnAddress2Config
 995              		.thumb
 996              		.thumb_func
 998              	I2C_OwnAddress2Config:
 999              	.LFB118:
 427:lib/chip/STM32F4xx_StdPeriph_Driver/src/stm32f4xx_i2c.c **** 
 428:lib/chip/STM32F4xx_StdPeriph_Driver/src/stm32f4xx_i2c.c **** /**
 429:lib/chip/STM32F4xx_StdPeriph_Driver/src/stm32f4xx_i2c.c ****   * @brief  Configures the specified I2C own address2.
 430:lib/chip/STM32F4xx_StdPeriph_Driver/src/stm32f4xx_i2c.c ****   * @param  I2Cx: where x can be 1, 2 or 3 to select the I2C peripheral.
 431:lib/chip/STM32F4xx_StdPeriph_Driver/src/stm32f4xx_i2c.c ****   * @param  Address: specifies the 7bit I2C own address2.
 432:lib/chip/STM32F4xx_StdPeriph_Driver/src/stm32f4xx_i2c.c ****   * @retval None.
 433:lib/chip/STM32F4xx_StdPeriph_Driver/src/stm32f4xx_i2c.c ****   */
 434:lib/chip/STM32F4xx_StdPeriph_Driver/src/stm32f4xx_i2c.c **** void I2C_OwnAddress2Config(I2C_TypeDef* I2Cx, uint8_t Address)
 435:lib/chip/STM32F4xx_StdPeriph_Driver/src/stm32f4xx_i2c.c **** {
 1000              		.loc 1 435 0
 1001              		.cfi_startproc
 1002              		@ args = 0, pretend = 0, frame = 16
 1003              		@ frame_needed = 1, uses_anonymous_args = 0
 1004 0000 80B5     		push	{r7, lr}
 1005              	.LCFI24:
 1006              		.cfi_def_cfa_offset 8
 1007              		.cfi_offset 7, -8
 1008              		.cfi_offset 14, -4
 1009 0002 84B0     		sub	sp, sp, #16
 1010              	.LCFI25:
 1011              		.cfi_def_cfa_offset 24
 1012 0004 00AF     		add	r7, sp, #0
 1013              	.LCFI26:
 1014              		.cfi_def_cfa_register 7
 1015 0006 7860     		str	r0, [r7, #4]
 1016 0008 0B46     		mov	r3, r1
 1017 000a FB70     		strb	r3, [r7, #3]
 436:lib/chip/STM32F4xx_StdPeriph_Driver/src/stm32f4xx_i2c.c ****   uint16_t tmpreg = 0;
 1018              		.loc 1 436 0
 1019 000c 0023     		movs	r3, #0
 1020 000e FB81     		strh	r3, [r7, #14]	@ movhi
 437:lib/chip/STM32F4xx_StdPeriph_Driver/src/stm32f4xx_i2c.c **** 
 438:lib/chip/STM32F4xx_StdPeriph_Driver/src/stm32f4xx_i2c.c ****   /* Check the parameters */
 439:lib/chip/STM32F4xx_StdPeriph_Driver/src/stm32f4xx_i2c.c ****   assert_param(IS_I2C_ALL_PERIPH(I2Cx));
 1021              		.loc 1 439 0
 1022 0010 7A68     		ldr	r2, [r7, #4]
 1023 0012 4FF4A843 		mov	r3, #21504
 1024 0016 C4F20003 		movt	r3, 16384
 1025 001a 9A42     		cmp	r2, r3
 1026 001c 15D0     		beq	.L48
 1027              		.loc 1 439 0 is_stmt 0 discriminator 1
 1028 001e 7A68     		ldr	r2, [r7, #4]
 1029 0020 4FF4B043 		mov	r3, #22528
 1030 0024 C4F20003 		movt	r3, 16384
 1031 0028 9A42     		cmp	r2, r3
 1032 002a 0ED0     		beq	.L48
 1033 002c 7A68     		ldr	r2, [r7, #4]
 1034 002e 4FF4B843 		mov	r3, #23552
 1035 0032 C4F20003 		movt	r3, 16384
 1036 0036 9A42     		cmp	r2, r3
 1037 0038 07D0     		beq	.L48
 1038 003a 40F20000 		movw	r0, #:lower16:.LC0
 1039 003e C0F20000 		movt	r0, #:upper16:.LC0
 1040 0042 40F2B711 		movw	r1, #439
 1041 0046 FFF7FEFF 		bl	assert_failed
 1042              	.L48:
 440:lib/chip/STM32F4xx_StdPeriph_Driver/src/stm32f4xx_i2c.c **** 
 441:lib/chip/STM32F4xx_StdPeriph_Driver/src/stm32f4xx_i2c.c ****   /* Get the old register value */
 442:lib/chip/STM32F4xx_StdPeriph_Driver/src/stm32f4xx_i2c.c ****   tmpreg = I2Cx->OAR2;
 1043              		.loc 1 442 0 is_stmt 1
 1044 004a 7B68     		ldr	r3, [r7, #4]
 1045 004c 9B89     		ldrh	r3, [r3, #12]	@ movhi
 1046 004e FB81     		strh	r3, [r7, #14]	@ movhi
 443:lib/chip/STM32F4xx_StdPeriph_Driver/src/stm32f4xx_i2c.c **** 
 444:lib/chip/STM32F4xx_StdPeriph_Driver/src/stm32f4xx_i2c.c ****   /* Reset I2Cx Own address2 bit [7:1] */
 445:lib/chip/STM32F4xx_StdPeriph_Driver/src/stm32f4xx_i2c.c ****   tmpreg &= (uint16_t)~((uint16_t)I2C_OAR2_ADD2);
 1047              		.loc 1 445 0
 1048 0050 FB89     		ldrh	r3, [r7, #14]	@ movhi
 1049 0052 23F0FE03 		bic	r3, r3, #254
 1050 0056 FB81     		strh	r3, [r7, #14]	@ movhi
 446:lib/chip/STM32F4xx_StdPeriph_Driver/src/stm32f4xx_i2c.c **** 
 447:lib/chip/STM32F4xx_StdPeriph_Driver/src/stm32f4xx_i2c.c ****   /* Set I2Cx Own address2 */
 448:lib/chip/STM32F4xx_StdPeriph_Driver/src/stm32f4xx_i2c.c ****   tmpreg |= (uint16_t)((uint16_t)Address & (uint16_t)0x00FE);
 1051              		.loc 1 448 0
 1052 0058 FB78     		ldrb	r3, [r7, #3]	@ zero_extendqisi2
 1053 005a 9BB2     		uxth	r3, r3
 1054 005c 03F0FE03 		and	r3, r3, #254
 1055 0060 9AB2     		uxth	r2, r3
 1056 0062 FB89     		ldrh	r3, [r7, #14]
 1057 0064 1343     		orrs	r3, r3, r2
 1058 0066 9BB2     		uxth	r3, r3
 1059 0068 FB81     		strh	r3, [r7, #14]	@ movhi
 449:lib/chip/STM32F4xx_StdPeriph_Driver/src/stm32f4xx_i2c.c **** 
 450:lib/chip/STM32F4xx_StdPeriph_Driver/src/stm32f4xx_i2c.c ****   /* Store the new register value */
 451:lib/chip/STM32F4xx_StdPeriph_Driver/src/stm32f4xx_i2c.c ****   I2Cx->OAR2 = tmpreg;
 1060              		.loc 1 451 0
 1061 006a 7B68     		ldr	r3, [r7, #4]
 1062 006c FA89     		ldrh	r2, [r7, #14]	@ movhi
 1063 006e 9A81     		strh	r2, [r3, #12]	@ movhi
 452:lib/chip/STM32F4xx_StdPeriph_Driver/src/stm32f4xx_i2c.c **** }
 1064              		.loc 1 452 0
 1065 0070 1037     		adds	r7, r7, #16
 1066 0072 BD46     		mov	sp, r7
 1067              		@ sp needed
 1068 0074 80BD     		pop	{r7, pc}
 1069              		.cfi_endproc
 1070              	.LFE118:
 1072 0076 00BF     		.section	.text.I2C_DualAddressCmd,"ax",%progbits
 1073              		.align	2
 1074              		.global	I2C_DualAddressCmd
 1075              		.thumb
 1076              		.thumb_func
 1078              	I2C_DualAddressCmd:
 1079              	.LFB119:
 453:lib/chip/STM32F4xx_StdPeriph_Driver/src/stm32f4xx_i2c.c **** 
 454:lib/chip/STM32F4xx_StdPeriph_Driver/src/stm32f4xx_i2c.c **** /**
 455:lib/chip/STM32F4xx_StdPeriph_Driver/src/stm32f4xx_i2c.c ****   * @brief  Enables or disables the specified I2C dual addressing mode.
 456:lib/chip/STM32F4xx_StdPeriph_Driver/src/stm32f4xx_i2c.c ****   * @param  I2Cx: where x can be 1, 2 or 3 to select the I2C peripheral.
 457:lib/chip/STM32F4xx_StdPeriph_Driver/src/stm32f4xx_i2c.c ****   * @param  NewState: new state of the I2C dual addressing mode.
 458:lib/chip/STM32F4xx_StdPeriph_Driver/src/stm32f4xx_i2c.c ****   *          This parameter can be: ENABLE or DISABLE.
 459:lib/chip/STM32F4xx_StdPeriph_Driver/src/stm32f4xx_i2c.c ****   * @retval None
 460:lib/chip/STM32F4xx_StdPeriph_Driver/src/stm32f4xx_i2c.c ****   */
 461:lib/chip/STM32F4xx_StdPeriph_Driver/src/stm32f4xx_i2c.c **** void I2C_DualAddressCmd(I2C_TypeDef* I2Cx, FunctionalState NewState)
 462:lib/chip/STM32F4xx_StdPeriph_Driver/src/stm32f4xx_i2c.c **** {
 1080              		.loc 1 462 0
 1081              		.cfi_startproc
 1082              		@ args = 0, pretend = 0, frame = 8
 1083              		@ frame_needed = 1, uses_anonymous_args = 0
 1084 0000 80B5     		push	{r7, lr}
 1085              	.LCFI27:
 1086              		.cfi_def_cfa_offset 8
 1087              		.cfi_offset 7, -8
 1088              		.cfi_offset 14, -4
 1089 0002 82B0     		sub	sp, sp, #8
 1090              	.LCFI28:
 1091              		.cfi_def_cfa_offset 16
 1092 0004 00AF     		add	r7, sp, #0
 1093              	.LCFI29:
 1094              		.cfi_def_cfa_register 7
 1095 0006 7860     		str	r0, [r7, #4]
 1096 0008 0B46     		mov	r3, r1
 1097 000a FB70     		strb	r3, [r7, #3]
 463:lib/chip/STM32F4xx_StdPeriph_Driver/src/stm32f4xx_i2c.c ****   /* Check the parameters */
 464:lib/chip/STM32F4xx_StdPeriph_Driver/src/stm32f4xx_i2c.c ****   assert_param(IS_I2C_ALL_PERIPH(I2Cx));
 1098              		.loc 1 464 0
 1099 000c 7A68     		ldr	r2, [r7, #4]
 1100 000e 4FF4A843 		mov	r3, #21504
 1101 0012 C4F20003 		movt	r3, 16384
 1102 0016 9A42     		cmp	r2, r3
 1103 0018 15D0     		beq	.L50
 1104              		.loc 1 464 0 is_stmt 0 discriminator 1
 1105 001a 7A68     		ldr	r2, [r7, #4]
 1106 001c 4FF4B043 		mov	r3, #22528
 1107 0020 C4F20003 		movt	r3, 16384
 1108 0024 9A42     		cmp	r2, r3
 1109 0026 0ED0     		beq	.L50
 1110 0028 7A68     		ldr	r2, [r7, #4]
 1111 002a 4FF4B843 		mov	r3, #23552
 1112 002e C4F20003 		movt	r3, 16384
 1113 0032 9A42     		cmp	r2, r3
 1114 0034 07D0     		beq	.L50
 1115 0036 40F20000 		movw	r0, #:lower16:.LC0
 1116 003a C0F20000 		movt	r0, #:upper16:.LC0
 1117 003e 4FF4E871 		mov	r1, #464
 1118 0042 FFF7FEFF 		bl	assert_failed
 1119              	.L50:
 465:lib/chip/STM32F4xx_StdPeriph_Driver/src/stm32f4xx_i2c.c ****   assert_param(IS_FUNCTIONAL_STATE(NewState));
 1120              		.loc 1 465 0 is_stmt 1
 1121 0046 FB78     		ldrb	r3, [r7, #3]	@ zero_extendqisi2
 1122 0048 002B     		cmp	r3, #0
 1123 004a 0AD0     		beq	.L51
 1124              		.loc 1 465 0 is_stmt 0 discriminator 1
 1125 004c FB78     		ldrb	r3, [r7, #3]	@ zero_extendqisi2
 1126 004e 012B     		cmp	r3, #1
 1127 0050 07D0     		beq	.L51
 1128 0052 40F20000 		movw	r0, #:lower16:.LC0
 1129 0056 C0F20000 		movt	r0, #:upper16:.LC0
 1130 005a 40F2D111 		movw	r1, #465
 1131 005e FFF7FEFF 		bl	assert_failed
 1132              	.L51:
 466:lib/chip/STM32F4xx_StdPeriph_Driver/src/stm32f4xx_i2c.c ****   if (NewState != DISABLE)
 1133              		.loc 1 466 0 is_stmt 1
 1134 0062 FB78     		ldrb	r3, [r7, #3]	@ zero_extendqisi2
 1135 0064 002B     		cmp	r3, #0
 1136 0066 08D0     		beq	.L52
 467:lib/chip/STM32F4xx_StdPeriph_Driver/src/stm32f4xx_i2c.c ****   {
 468:lib/chip/STM32F4xx_StdPeriph_Driver/src/stm32f4xx_i2c.c ****     /* Enable dual addressing mode */
 469:lib/chip/STM32F4xx_StdPeriph_Driver/src/stm32f4xx_i2c.c ****     I2Cx->OAR2 |= I2C_OAR2_ENDUAL;
 1137              		.loc 1 469 0
 1138 0068 7B68     		ldr	r3, [r7, #4]
 1139 006a 9B89     		ldrh	r3, [r3, #12]	@ movhi
 1140 006c 9BB2     		uxth	r3, r3
 1141 006e 43F00103 		orr	r3, r3, #1
 1142 0072 9AB2     		uxth	r2, r3
 1143 0074 7B68     		ldr	r3, [r7, #4]
 1144 0076 9A81     		strh	r2, [r3, #12]	@ movhi
 1145 0078 07E0     		b	.L49
 1146              	.L52:
 470:lib/chip/STM32F4xx_StdPeriph_Driver/src/stm32f4xx_i2c.c ****   }
 471:lib/chip/STM32F4xx_StdPeriph_Driver/src/stm32f4xx_i2c.c ****   else
 472:lib/chip/STM32F4xx_StdPeriph_Driver/src/stm32f4xx_i2c.c ****   {
 473:lib/chip/STM32F4xx_StdPeriph_Driver/src/stm32f4xx_i2c.c ****     /* Disable dual addressing mode */
 474:lib/chip/STM32F4xx_StdPeriph_Driver/src/stm32f4xx_i2c.c ****     I2Cx->OAR2 &= (uint16_t)~((uint16_t)I2C_OAR2_ENDUAL);
 1147              		.loc 1 474 0
 1148 007a 7B68     		ldr	r3, [r7, #4]
 1149 007c 9B89     		ldrh	r3, [r3, #12]	@ movhi
 1150 007e 9BB2     		uxth	r3, r3
 1151 0080 23F00103 		bic	r3, r3, #1
 1152 0084 9AB2     		uxth	r2, r3
 1153 0086 7B68     		ldr	r3, [r7, #4]
 1154 0088 9A81     		strh	r2, [r3, #12]	@ movhi
 1155              	.L49:
 475:lib/chip/STM32F4xx_StdPeriph_Driver/src/stm32f4xx_i2c.c ****   }
 476:lib/chip/STM32F4xx_StdPeriph_Driver/src/stm32f4xx_i2c.c **** }
 1156              		.loc 1 476 0
 1157 008a 0837     		adds	r7, r7, #8
 1158 008c BD46     		mov	sp, r7
 1159              		@ sp needed
 1160 008e 80BD     		pop	{r7, pc}
 1161              		.cfi_endproc
 1162              	.LFE119:
 1164              		.section	.text.I2C_GeneralCallCmd,"ax",%progbits
 1165              		.align	2
 1166              		.global	I2C_GeneralCallCmd
 1167              		.thumb
 1168              		.thumb_func
 1170              	I2C_GeneralCallCmd:
 1171              	.LFB120:
 477:lib/chip/STM32F4xx_StdPeriph_Driver/src/stm32f4xx_i2c.c **** 
 478:lib/chip/STM32F4xx_StdPeriph_Driver/src/stm32f4xx_i2c.c **** /**
 479:lib/chip/STM32F4xx_StdPeriph_Driver/src/stm32f4xx_i2c.c ****   * @brief  Enables or disables the specified I2C general call feature.
 480:lib/chip/STM32F4xx_StdPeriph_Driver/src/stm32f4xx_i2c.c ****   * @param  I2Cx: where x can be 1, 2 or 3 to select the I2C peripheral.
 481:lib/chip/STM32F4xx_StdPeriph_Driver/src/stm32f4xx_i2c.c ****   * @param  NewState: new state of the I2C General call.
 482:lib/chip/STM32F4xx_StdPeriph_Driver/src/stm32f4xx_i2c.c ****   *          This parameter can be: ENABLE or DISABLE.
 483:lib/chip/STM32F4xx_StdPeriph_Driver/src/stm32f4xx_i2c.c ****   * @retval None
 484:lib/chip/STM32F4xx_StdPeriph_Driver/src/stm32f4xx_i2c.c ****   */
 485:lib/chip/STM32F4xx_StdPeriph_Driver/src/stm32f4xx_i2c.c **** void I2C_GeneralCallCmd(I2C_TypeDef* I2Cx, FunctionalState NewState)
 486:lib/chip/STM32F4xx_StdPeriph_Driver/src/stm32f4xx_i2c.c **** {
 1172              		.loc 1 486 0
 1173              		.cfi_startproc
 1174              		@ args = 0, pretend = 0, frame = 8
 1175              		@ frame_needed = 1, uses_anonymous_args = 0
 1176 0000 80B5     		push	{r7, lr}
 1177              	.LCFI30:
 1178              		.cfi_def_cfa_offset 8
 1179              		.cfi_offset 7, -8
 1180              		.cfi_offset 14, -4
 1181 0002 82B0     		sub	sp, sp, #8
 1182              	.LCFI31:
 1183              		.cfi_def_cfa_offset 16
 1184 0004 00AF     		add	r7, sp, #0
 1185              	.LCFI32:
 1186              		.cfi_def_cfa_register 7
 1187 0006 7860     		str	r0, [r7, #4]
 1188 0008 0B46     		mov	r3, r1
 1189 000a FB70     		strb	r3, [r7, #3]
 487:lib/chip/STM32F4xx_StdPeriph_Driver/src/stm32f4xx_i2c.c ****   /* Check the parameters */
 488:lib/chip/STM32F4xx_StdPeriph_Driver/src/stm32f4xx_i2c.c ****   assert_param(IS_I2C_ALL_PERIPH(I2Cx));
 1190              		.loc 1 488 0
 1191 000c 7A68     		ldr	r2, [r7, #4]
 1192 000e 4FF4A843 		mov	r3, #21504
 1193 0012 C4F20003 		movt	r3, 16384
 1194 0016 9A42     		cmp	r2, r3
 1195 0018 15D0     		beq	.L55
 1196              		.loc 1 488 0 is_stmt 0 discriminator 1
 1197 001a 7A68     		ldr	r2, [r7, #4]
 1198 001c 4FF4B043 		mov	r3, #22528
 1199 0020 C4F20003 		movt	r3, 16384
 1200 0024 9A42     		cmp	r2, r3
 1201 0026 0ED0     		beq	.L55
 1202 0028 7A68     		ldr	r2, [r7, #4]
 1203 002a 4FF4B843 		mov	r3, #23552
 1204 002e C4F20003 		movt	r3, 16384
 1205 0032 9A42     		cmp	r2, r3
 1206 0034 07D0     		beq	.L55
 1207 0036 40F20000 		movw	r0, #:lower16:.LC0
 1208 003a C0F20000 		movt	r0, #:upper16:.LC0
 1209 003e 4FF4F471 		mov	r1, #488
 1210 0042 FFF7FEFF 		bl	assert_failed
 1211              	.L55:
 489:lib/chip/STM32F4xx_StdPeriph_Driver/src/stm32f4xx_i2c.c ****   assert_param(IS_FUNCTIONAL_STATE(NewState));
 1212              		.loc 1 489 0 is_stmt 1
 1213 0046 FB78     		ldrb	r3, [r7, #3]	@ zero_extendqisi2
 1214 0048 002B     		cmp	r3, #0
 1215 004a 0AD0     		beq	.L56
 1216              		.loc 1 489 0 is_stmt 0 discriminator 1
 1217 004c FB78     		ldrb	r3, [r7, #3]	@ zero_extendqisi2
 1218 004e 012B     		cmp	r3, #1
 1219 0050 07D0     		beq	.L56
 1220 0052 40F20000 		movw	r0, #:lower16:.LC0
 1221 0056 C0F20000 		movt	r0, #:upper16:.LC0
 1222 005a 40F2E911 		movw	r1, #489
 1223 005e FFF7FEFF 		bl	assert_failed
 1224              	.L56:
 490:lib/chip/STM32F4xx_StdPeriph_Driver/src/stm32f4xx_i2c.c ****   if (NewState != DISABLE)
 1225              		.loc 1 490 0 is_stmt 1
 1226 0062 FB78     		ldrb	r3, [r7, #3]	@ zero_extendqisi2
 1227 0064 002B     		cmp	r3, #0
 1228 0066 08D0     		beq	.L57
 491:lib/chip/STM32F4xx_StdPeriph_Driver/src/stm32f4xx_i2c.c ****   {
 492:lib/chip/STM32F4xx_StdPeriph_Driver/src/stm32f4xx_i2c.c ****     /* Enable generall call */
 493:lib/chip/STM32F4xx_StdPeriph_Driver/src/stm32f4xx_i2c.c ****     I2Cx->CR1 |= I2C_CR1_ENGC;
 1229              		.loc 1 493 0
 1230 0068 7B68     		ldr	r3, [r7, #4]
 1231 006a 1B88     		ldrh	r3, [r3]	@ movhi
 1232 006c 9BB2     		uxth	r3, r3
 1233 006e 43F04003 		orr	r3, r3, #64
 1234 0072 9AB2     		uxth	r2, r3
 1235 0074 7B68     		ldr	r3, [r7, #4]
 1236 0076 1A80     		strh	r2, [r3]	@ movhi
 1237 0078 07E0     		b	.L54
 1238              	.L57:
 494:lib/chip/STM32F4xx_StdPeriph_Driver/src/stm32f4xx_i2c.c ****   }
 495:lib/chip/STM32F4xx_StdPeriph_Driver/src/stm32f4xx_i2c.c ****   else
 496:lib/chip/STM32F4xx_StdPeriph_Driver/src/stm32f4xx_i2c.c ****   {
 497:lib/chip/STM32F4xx_StdPeriph_Driver/src/stm32f4xx_i2c.c ****     /* Disable generall call */
 498:lib/chip/STM32F4xx_StdPeriph_Driver/src/stm32f4xx_i2c.c ****     I2Cx->CR1 &= (uint16_t)~((uint16_t)I2C_CR1_ENGC);
 1239              		.loc 1 498 0
 1240 007a 7B68     		ldr	r3, [r7, #4]
 1241 007c 1B88     		ldrh	r3, [r3]	@ movhi
 1242 007e 9BB2     		uxth	r3, r3
 1243 0080 23F04003 		bic	r3, r3, #64
 1244 0084 9AB2     		uxth	r2, r3
 1245 0086 7B68     		ldr	r3, [r7, #4]
 1246 0088 1A80     		strh	r2, [r3]	@ movhi
 1247              	.L54:
 499:lib/chip/STM32F4xx_StdPeriph_Driver/src/stm32f4xx_i2c.c ****   }
 500:lib/chip/STM32F4xx_StdPeriph_Driver/src/stm32f4xx_i2c.c **** }
 1248              		.loc 1 500 0
 1249 008a 0837     		adds	r7, r7, #8
 1250 008c BD46     		mov	sp, r7
 1251              		@ sp needed
 1252 008e 80BD     		pop	{r7, pc}
 1253              		.cfi_endproc
 1254              	.LFE120:
 1256              		.section	.text.I2C_SoftwareResetCmd,"ax",%progbits
 1257              		.align	2
 1258              		.global	I2C_SoftwareResetCmd
 1259              		.thumb
 1260              		.thumb_func
 1262              	I2C_SoftwareResetCmd:
 1263              	.LFB121:
 501:lib/chip/STM32F4xx_StdPeriph_Driver/src/stm32f4xx_i2c.c **** 
 502:lib/chip/STM32F4xx_StdPeriph_Driver/src/stm32f4xx_i2c.c **** /**
 503:lib/chip/STM32F4xx_StdPeriph_Driver/src/stm32f4xx_i2c.c ****   * @brief  Enables or disables the specified I2C software reset.
 504:lib/chip/STM32F4xx_StdPeriph_Driver/src/stm32f4xx_i2c.c ****   * @note   When software reset is enabled, the I2C IOs are released (this can
 505:lib/chip/STM32F4xx_StdPeriph_Driver/src/stm32f4xx_i2c.c ****   *         be useful to recover from bus errors).  
 506:lib/chip/STM32F4xx_StdPeriph_Driver/src/stm32f4xx_i2c.c ****   * @param  I2Cx: where x can be 1, 2 or 3 to select the I2C peripheral.
 507:lib/chip/STM32F4xx_StdPeriph_Driver/src/stm32f4xx_i2c.c ****   * @param  NewState: new state of the I2C software reset.
 508:lib/chip/STM32F4xx_StdPeriph_Driver/src/stm32f4xx_i2c.c ****   *          This parameter can be: ENABLE or DISABLE.
 509:lib/chip/STM32F4xx_StdPeriph_Driver/src/stm32f4xx_i2c.c ****   * @retval None
 510:lib/chip/STM32F4xx_StdPeriph_Driver/src/stm32f4xx_i2c.c ****   */
 511:lib/chip/STM32F4xx_StdPeriph_Driver/src/stm32f4xx_i2c.c **** void I2C_SoftwareResetCmd(I2C_TypeDef* I2Cx, FunctionalState NewState)
 512:lib/chip/STM32F4xx_StdPeriph_Driver/src/stm32f4xx_i2c.c **** {
 1264              		.loc 1 512 0
 1265              		.cfi_startproc
 1266              		@ args = 0, pretend = 0, frame = 8
 1267              		@ frame_needed = 1, uses_anonymous_args = 0
 1268 0000 80B5     		push	{r7, lr}
 1269              	.LCFI33:
 1270              		.cfi_def_cfa_offset 8
 1271              		.cfi_offset 7, -8
 1272              		.cfi_offset 14, -4
 1273 0002 82B0     		sub	sp, sp, #8
 1274              	.LCFI34:
 1275              		.cfi_def_cfa_offset 16
 1276 0004 00AF     		add	r7, sp, #0
 1277              	.LCFI35:
 1278              		.cfi_def_cfa_register 7
 1279 0006 7860     		str	r0, [r7, #4]
 1280 0008 0B46     		mov	r3, r1
 1281 000a FB70     		strb	r3, [r7, #3]
 513:lib/chip/STM32F4xx_StdPeriph_Driver/src/stm32f4xx_i2c.c ****   /* Check the parameters */
 514:lib/chip/STM32F4xx_StdPeriph_Driver/src/stm32f4xx_i2c.c ****   assert_param(IS_I2C_ALL_PERIPH(I2Cx));
 1282              		.loc 1 514 0
 1283 000c 7A68     		ldr	r2, [r7, #4]
 1284 000e 4FF4A843 		mov	r3, #21504
 1285 0012 C4F20003 		movt	r3, 16384
 1286 0016 9A42     		cmp	r2, r3
 1287 0018 15D0     		beq	.L60
 1288              		.loc 1 514 0 is_stmt 0 discriminator 1
 1289 001a 7A68     		ldr	r2, [r7, #4]
 1290 001c 4FF4B043 		mov	r3, #22528
 1291 0020 C4F20003 		movt	r3, 16384
 1292 0024 9A42     		cmp	r2, r3
 1293 0026 0ED0     		beq	.L60
 1294 0028 7A68     		ldr	r2, [r7, #4]
 1295 002a 4FF4B843 		mov	r3, #23552
 1296 002e C4F20003 		movt	r3, 16384
 1297 0032 9A42     		cmp	r2, r3
 1298 0034 07D0     		beq	.L60
 1299 0036 40F20000 		movw	r0, #:lower16:.LC0
 1300 003a C0F20000 		movt	r0, #:upper16:.LC0
 1301 003e 40F20221 		movw	r1, #514
 1302 0042 FFF7FEFF 		bl	assert_failed
 1303              	.L60:
 515:lib/chip/STM32F4xx_StdPeriph_Driver/src/stm32f4xx_i2c.c ****   assert_param(IS_FUNCTIONAL_STATE(NewState));
 1304              		.loc 1 515 0 is_stmt 1
 1305 0046 FB78     		ldrb	r3, [r7, #3]	@ zero_extendqisi2
 1306 0048 002B     		cmp	r3, #0
 1307 004a 0AD0     		beq	.L61
 1308              		.loc 1 515 0 is_stmt 0 discriminator 1
 1309 004c FB78     		ldrb	r3, [r7, #3]	@ zero_extendqisi2
 1310 004e 012B     		cmp	r3, #1
 1311 0050 07D0     		beq	.L61
 1312 0052 40F20000 		movw	r0, #:lower16:.LC0
 1313 0056 C0F20000 		movt	r0, #:upper16:.LC0
 1314 005a 40F20321 		movw	r1, #515
 1315 005e FFF7FEFF 		bl	assert_failed
 1316              	.L61:
 516:lib/chip/STM32F4xx_StdPeriph_Driver/src/stm32f4xx_i2c.c ****   if (NewState != DISABLE)
 1317              		.loc 1 516 0 is_stmt 1
 1318 0062 FB78     		ldrb	r3, [r7, #3]	@ zero_extendqisi2
 1319 0064 002B     		cmp	r3, #0
 1320 0066 0AD0     		beq	.L62
 517:lib/chip/STM32F4xx_StdPeriph_Driver/src/stm32f4xx_i2c.c ****   {
 518:lib/chip/STM32F4xx_StdPeriph_Driver/src/stm32f4xx_i2c.c ****     /* Peripheral under reset */
 519:lib/chip/STM32F4xx_StdPeriph_Driver/src/stm32f4xx_i2c.c ****     I2Cx->CR1 |= I2C_CR1_SWRST;
 1321              		.loc 1 519 0
 1322 0068 7B68     		ldr	r3, [r7, #4]
 1323 006a 1B88     		ldrh	r3, [r3]	@ movhi
 1324 006c 9BB2     		uxth	r3, r3
 1325 006e 6FEA4343 		mvn	r3, r3, lsl #17
 1326 0072 6FEA5343 		mvn	r3, r3, lsr #17
 1327 0076 9AB2     		uxth	r2, r3
 1328 0078 7B68     		ldr	r3, [r7, #4]
 1329 007a 1A80     		strh	r2, [r3]	@ movhi
 1330 007c 07E0     		b	.L59
 1331              	.L62:
 520:lib/chip/STM32F4xx_StdPeriph_Driver/src/stm32f4xx_i2c.c ****   }
 521:lib/chip/STM32F4xx_StdPeriph_Driver/src/stm32f4xx_i2c.c ****   else
 522:lib/chip/STM32F4xx_StdPeriph_Driver/src/stm32f4xx_i2c.c ****   {
 523:lib/chip/STM32F4xx_StdPeriph_Driver/src/stm32f4xx_i2c.c ****     /* Peripheral not under reset */
 524:lib/chip/STM32F4xx_StdPeriph_Driver/src/stm32f4xx_i2c.c ****     I2Cx->CR1 &= (uint16_t)~((uint16_t)I2C_CR1_SWRST);
 1332              		.loc 1 524 0
 1333 007e 7B68     		ldr	r3, [r7, #4]
 1334 0080 1B88     		ldrh	r3, [r3]	@ movhi
 1335 0082 9BB2     		uxth	r3, r3
 1336 0084 C3F30E03 		ubfx	r3, r3, #0, #15
 1337 0088 9AB2     		uxth	r2, r3
 1338 008a 7B68     		ldr	r3, [r7, #4]
 1339 008c 1A80     		strh	r2, [r3]	@ movhi
 1340              	.L59:
 525:lib/chip/STM32F4xx_StdPeriph_Driver/src/stm32f4xx_i2c.c ****   }
 526:lib/chip/STM32F4xx_StdPeriph_Driver/src/stm32f4xx_i2c.c **** }
 1341              		.loc 1 526 0
 1342 008e 0837     		adds	r7, r7, #8
 1343 0090 BD46     		mov	sp, r7
 1344              		@ sp needed
 1345 0092 80BD     		pop	{r7, pc}
 1346              		.cfi_endproc
 1347              	.LFE121:
 1349              		.section	.text.I2C_StretchClockCmd,"ax",%progbits
 1350              		.align	2
 1351              		.global	I2C_StretchClockCmd
 1352              		.thumb
 1353              		.thumb_func
 1355              	I2C_StretchClockCmd:
 1356              	.LFB122:
 527:lib/chip/STM32F4xx_StdPeriph_Driver/src/stm32f4xx_i2c.c **** 
 528:lib/chip/STM32F4xx_StdPeriph_Driver/src/stm32f4xx_i2c.c **** /**
 529:lib/chip/STM32F4xx_StdPeriph_Driver/src/stm32f4xx_i2c.c ****   * @brief  Enables or disables the specified I2C Clock stretching.
 530:lib/chip/STM32F4xx_StdPeriph_Driver/src/stm32f4xx_i2c.c ****   * @param  I2Cx: where x can be 1, 2 or 3 to select the I2C peripheral.
 531:lib/chip/STM32F4xx_StdPeriph_Driver/src/stm32f4xx_i2c.c ****   * @param  NewState: new state of the I2Cx Clock stretching.
 532:lib/chip/STM32F4xx_StdPeriph_Driver/src/stm32f4xx_i2c.c ****   *          This parameter can be: ENABLE or DISABLE.
 533:lib/chip/STM32F4xx_StdPeriph_Driver/src/stm32f4xx_i2c.c ****   * @retval None
 534:lib/chip/STM32F4xx_StdPeriph_Driver/src/stm32f4xx_i2c.c ****   */
 535:lib/chip/STM32F4xx_StdPeriph_Driver/src/stm32f4xx_i2c.c **** void I2C_StretchClockCmd(I2C_TypeDef* I2Cx, FunctionalState NewState)
 536:lib/chip/STM32F4xx_StdPeriph_Driver/src/stm32f4xx_i2c.c **** {
 1357              		.loc 1 536 0
 1358              		.cfi_startproc
 1359              		@ args = 0, pretend = 0, frame = 8
 1360              		@ frame_needed = 1, uses_anonymous_args = 0
 1361 0000 80B5     		push	{r7, lr}
 1362              	.LCFI36:
 1363              		.cfi_def_cfa_offset 8
 1364              		.cfi_offset 7, -8
 1365              		.cfi_offset 14, -4
 1366 0002 82B0     		sub	sp, sp, #8
 1367              	.LCFI37:
 1368              		.cfi_def_cfa_offset 16
 1369 0004 00AF     		add	r7, sp, #0
 1370              	.LCFI38:
 1371              		.cfi_def_cfa_register 7
 1372 0006 7860     		str	r0, [r7, #4]
 1373 0008 0B46     		mov	r3, r1
 1374 000a FB70     		strb	r3, [r7, #3]
 537:lib/chip/STM32F4xx_StdPeriph_Driver/src/stm32f4xx_i2c.c ****   /* Check the parameters */
 538:lib/chip/STM32F4xx_StdPeriph_Driver/src/stm32f4xx_i2c.c ****   assert_param(IS_I2C_ALL_PERIPH(I2Cx));
 1375              		.loc 1 538 0
 1376 000c 7A68     		ldr	r2, [r7, #4]
 1377 000e 4FF4A843 		mov	r3, #21504
 1378 0012 C4F20003 		movt	r3, 16384
 1379 0016 9A42     		cmp	r2, r3
 1380 0018 15D0     		beq	.L65
 1381              		.loc 1 538 0 is_stmt 0 discriminator 1
 1382 001a 7A68     		ldr	r2, [r7, #4]
 1383 001c 4FF4B043 		mov	r3, #22528
 1384 0020 C4F20003 		movt	r3, 16384
 1385 0024 9A42     		cmp	r2, r3
 1386 0026 0ED0     		beq	.L65
 1387 0028 7A68     		ldr	r2, [r7, #4]
 1388 002a 4FF4B843 		mov	r3, #23552
 1389 002e C4F20003 		movt	r3, 16384
 1390 0032 9A42     		cmp	r2, r3
 1391 0034 07D0     		beq	.L65
 1392 0036 40F20000 		movw	r0, #:lower16:.LC0
 1393 003a C0F20000 		movt	r0, #:upper16:.LC0
 1394 003e 40F21A21 		movw	r1, #538
 1395 0042 FFF7FEFF 		bl	assert_failed
 1396              	.L65:
 539:lib/chip/STM32F4xx_StdPeriph_Driver/src/stm32f4xx_i2c.c ****   assert_param(IS_FUNCTIONAL_STATE(NewState));
 1397              		.loc 1 539 0 is_stmt 1
 1398 0046 FB78     		ldrb	r3, [r7, #3]	@ zero_extendqisi2
 1399 0048 002B     		cmp	r3, #0
 1400 004a 0AD0     		beq	.L66
 1401              		.loc 1 539 0 is_stmt 0 discriminator 1
 1402 004c FB78     		ldrb	r3, [r7, #3]	@ zero_extendqisi2
 1403 004e 012B     		cmp	r3, #1
 1404 0050 07D0     		beq	.L66
 1405 0052 40F20000 		movw	r0, #:lower16:.LC0
 1406 0056 C0F20000 		movt	r0, #:upper16:.LC0
 1407 005a 40F21B21 		movw	r1, #539
 1408 005e FFF7FEFF 		bl	assert_failed
 1409              	.L66:
 540:lib/chip/STM32F4xx_StdPeriph_Driver/src/stm32f4xx_i2c.c ****   if (NewState == DISABLE)
 1410              		.loc 1 540 0 is_stmt 1
 1411 0062 FB78     		ldrb	r3, [r7, #3]	@ zero_extendqisi2
 1412 0064 002B     		cmp	r3, #0
 1413 0066 08D1     		bne	.L67
 541:lib/chip/STM32F4xx_StdPeriph_Driver/src/stm32f4xx_i2c.c ****   {
 542:lib/chip/STM32F4xx_StdPeriph_Driver/src/stm32f4xx_i2c.c ****     /* Enable the selected I2C Clock stretching */
 543:lib/chip/STM32F4xx_StdPeriph_Driver/src/stm32f4xx_i2c.c ****     I2Cx->CR1 |= I2C_CR1_NOSTRETCH;
 1414              		.loc 1 543 0
 1415 0068 7B68     		ldr	r3, [r7, #4]
 1416 006a 1B88     		ldrh	r3, [r3]	@ movhi
 1417 006c 9BB2     		uxth	r3, r3
 1418 006e 43F08003 		orr	r3, r3, #128
 1419 0072 9AB2     		uxth	r2, r3
 1420 0074 7B68     		ldr	r3, [r7, #4]
 1421 0076 1A80     		strh	r2, [r3]	@ movhi
 1422 0078 07E0     		b	.L64
 1423              	.L67:
 544:lib/chip/STM32F4xx_StdPeriph_Driver/src/stm32f4xx_i2c.c ****   }
 545:lib/chip/STM32F4xx_StdPeriph_Driver/src/stm32f4xx_i2c.c ****   else
 546:lib/chip/STM32F4xx_StdPeriph_Driver/src/stm32f4xx_i2c.c ****   {
 547:lib/chip/STM32F4xx_StdPeriph_Driver/src/stm32f4xx_i2c.c ****     /* Disable the selected I2C Clock stretching */
 548:lib/chip/STM32F4xx_StdPeriph_Driver/src/stm32f4xx_i2c.c ****     I2Cx->CR1 &= (uint16_t)~((uint16_t)I2C_CR1_NOSTRETCH);
 1424              		.loc 1 548 0
 1425 007a 7B68     		ldr	r3, [r7, #4]
 1426 007c 1B88     		ldrh	r3, [r3]	@ movhi
 1427 007e 9BB2     		uxth	r3, r3
 1428 0080 23F08003 		bic	r3, r3, #128
 1429 0084 9AB2     		uxth	r2, r3
 1430 0086 7B68     		ldr	r3, [r7, #4]
 1431 0088 1A80     		strh	r2, [r3]	@ movhi
 1432              	.L64:
 549:lib/chip/STM32F4xx_StdPeriph_Driver/src/stm32f4xx_i2c.c ****   }
 550:lib/chip/STM32F4xx_StdPeriph_Driver/src/stm32f4xx_i2c.c **** }
 1433              		.loc 1 550 0
 1434 008a 0837     		adds	r7, r7, #8
 1435 008c BD46     		mov	sp, r7
 1436              		@ sp needed
 1437 008e 80BD     		pop	{r7, pc}
 1438              		.cfi_endproc
 1439              	.LFE122:
 1441              		.section	.text.I2C_FastModeDutyCycleConfig,"ax",%progbits
 1442              		.align	2
 1443              		.global	I2C_FastModeDutyCycleConfig
 1444              		.thumb
 1445              		.thumb_func
 1447              	I2C_FastModeDutyCycleConfig:
 1448              	.LFB123:
 551:lib/chip/STM32F4xx_StdPeriph_Driver/src/stm32f4xx_i2c.c **** 
 552:lib/chip/STM32F4xx_StdPeriph_Driver/src/stm32f4xx_i2c.c **** /**
 553:lib/chip/STM32F4xx_StdPeriph_Driver/src/stm32f4xx_i2c.c ****   * @brief  Selects the specified I2C fast mode duty cycle.
 554:lib/chip/STM32F4xx_StdPeriph_Driver/src/stm32f4xx_i2c.c ****   * @param  I2Cx: where x can be 1, 2 or 3 to select the I2C peripheral.
 555:lib/chip/STM32F4xx_StdPeriph_Driver/src/stm32f4xx_i2c.c ****   * @param  I2C_DutyCycle: specifies the fast mode duty cycle.
 556:lib/chip/STM32F4xx_StdPeriph_Driver/src/stm32f4xx_i2c.c ****   *          This parameter can be one of the following values:
 557:lib/chip/STM32F4xx_StdPeriph_Driver/src/stm32f4xx_i2c.c ****   *            @arg I2C_DutyCycle_2: I2C fast mode Tlow/Thigh = 2
 558:lib/chip/STM32F4xx_StdPeriph_Driver/src/stm32f4xx_i2c.c ****   *            @arg I2C_DutyCycle_16_9: I2C fast mode Tlow/Thigh = 16/9
 559:lib/chip/STM32F4xx_StdPeriph_Driver/src/stm32f4xx_i2c.c ****   * @retval None
 560:lib/chip/STM32F4xx_StdPeriph_Driver/src/stm32f4xx_i2c.c ****   */
 561:lib/chip/STM32F4xx_StdPeriph_Driver/src/stm32f4xx_i2c.c **** void I2C_FastModeDutyCycleConfig(I2C_TypeDef* I2Cx, uint16_t I2C_DutyCycle)
 562:lib/chip/STM32F4xx_StdPeriph_Driver/src/stm32f4xx_i2c.c **** {
 1449              		.loc 1 562 0
 1450              		.cfi_startproc
 1451              		@ args = 0, pretend = 0, frame = 8
 1452              		@ frame_needed = 1, uses_anonymous_args = 0
 1453 0000 80B5     		push	{r7, lr}
 1454              	.LCFI39:
 1455              		.cfi_def_cfa_offset 8
 1456              		.cfi_offset 7, -8
 1457              		.cfi_offset 14, -4
 1458 0002 82B0     		sub	sp, sp, #8
 1459              	.LCFI40:
 1460              		.cfi_def_cfa_offset 16
 1461 0004 00AF     		add	r7, sp, #0
 1462              	.LCFI41:
 1463              		.cfi_def_cfa_register 7
 1464 0006 7860     		str	r0, [r7, #4]
 1465 0008 0B46     		mov	r3, r1
 1466 000a 7B80     		strh	r3, [r7, #2]	@ movhi
 563:lib/chip/STM32F4xx_StdPeriph_Driver/src/stm32f4xx_i2c.c ****   /* Check the parameters */
 564:lib/chip/STM32F4xx_StdPeriph_Driver/src/stm32f4xx_i2c.c ****   assert_param(IS_I2C_ALL_PERIPH(I2Cx));
 1467              		.loc 1 564 0
 1468 000c 7A68     		ldr	r2, [r7, #4]
 1469 000e 4FF4A843 		mov	r3, #21504
 1470 0012 C4F20003 		movt	r3, 16384
 1471 0016 9A42     		cmp	r2, r3
 1472 0018 15D0     		beq	.L70
 1473              		.loc 1 564 0 is_stmt 0 discriminator 1
 1474 001a 7A68     		ldr	r2, [r7, #4]
 1475 001c 4FF4B043 		mov	r3, #22528
 1476 0020 C4F20003 		movt	r3, 16384
 1477 0024 9A42     		cmp	r2, r3
 1478 0026 0ED0     		beq	.L70
 1479 0028 7A68     		ldr	r2, [r7, #4]
 1480 002a 4FF4B843 		mov	r3, #23552
 1481 002e C4F20003 		movt	r3, 16384
 1482 0032 9A42     		cmp	r2, r3
 1483 0034 07D0     		beq	.L70
 1484 0036 40F20000 		movw	r0, #:lower16:.LC0
 1485 003a C0F20000 		movt	r0, #:upper16:.LC0
 1486 003e 4FF40D71 		mov	r1, #564
 1487 0042 FFF7FEFF 		bl	assert_failed
 1488              	.L70:
 565:lib/chip/STM32F4xx_StdPeriph_Driver/src/stm32f4xx_i2c.c ****   assert_param(IS_I2C_DUTY_CYCLE(I2C_DutyCycle));
 1489              		.loc 1 565 0 is_stmt 1
 1490 0046 7B88     		ldrh	r3, [r7, #2]
 1491 0048 B3F5804F 		cmp	r3, #16384
 1492 004c 0CD0     		beq	.L71
 1493              		.loc 1 565 0 is_stmt 0 discriminator 1
 1494 004e 7A88     		ldrh	r2, [r7, #2]
 1495 0050 4BF6FF73 		movw	r3, #49151
 1496 0054 9A42     		cmp	r2, r3
 1497 0056 07D0     		beq	.L71
 1498 0058 40F20000 		movw	r0, #:lower16:.LC0
 1499 005c C0F20000 		movt	r0, #:upper16:.LC0
 1500 0060 40F23521 		movw	r1, #565
 1501 0064 FFF7FEFF 		bl	assert_failed
 1502              	.L71:
 566:lib/chip/STM32F4xx_StdPeriph_Driver/src/stm32f4xx_i2c.c ****   if (I2C_DutyCycle != I2C_DutyCycle_16_9)
 1503              		.loc 1 566 0 is_stmt 1
 1504 0068 7B88     		ldrh	r3, [r7, #2]
 1505 006a B3F5804F 		cmp	r3, #16384
 1506 006e 08D0     		beq	.L72
 567:lib/chip/STM32F4xx_StdPeriph_Driver/src/stm32f4xx_i2c.c ****   {
 568:lib/chip/STM32F4xx_StdPeriph_Driver/src/stm32f4xx_i2c.c ****     /* I2C fast mode Tlow/Thigh=2 */
 569:lib/chip/STM32F4xx_StdPeriph_Driver/src/stm32f4xx_i2c.c ****     I2Cx->CCR &= I2C_DutyCycle_2;
 1507              		.loc 1 569 0
 1508 0070 7B68     		ldr	r3, [r7, #4]
 1509 0072 9B8B     		ldrh	r3, [r3, #28]	@ movhi
 1510 0074 9BB2     		uxth	r3, r3
 1511 0076 23F48043 		bic	r3, r3, #16384
 1512 007a 9AB2     		uxth	r2, r3
 1513 007c 7B68     		ldr	r3, [r7, #4]
 1514 007e 9A83     		strh	r2, [r3, #28]	@ movhi
 1515 0080 07E0     		b	.L69
 1516              	.L72:
 570:lib/chip/STM32F4xx_StdPeriph_Driver/src/stm32f4xx_i2c.c ****   }
 571:lib/chip/STM32F4xx_StdPeriph_Driver/src/stm32f4xx_i2c.c ****   else
 572:lib/chip/STM32F4xx_StdPeriph_Driver/src/stm32f4xx_i2c.c ****   {
 573:lib/chip/STM32F4xx_StdPeriph_Driver/src/stm32f4xx_i2c.c ****     /* I2C fast mode Tlow/Thigh=16/9 */
 574:lib/chip/STM32F4xx_StdPeriph_Driver/src/stm32f4xx_i2c.c ****     I2Cx->CCR |= I2C_DutyCycle_16_9;
 1517              		.loc 1 574 0
 1518 0082 7B68     		ldr	r3, [r7, #4]
 1519 0084 9B8B     		ldrh	r3, [r3, #28]	@ movhi
 1520 0086 9BB2     		uxth	r3, r3
 1521 0088 43F48043 		orr	r3, r3, #16384
 1522 008c 9AB2     		uxth	r2, r3
 1523 008e 7B68     		ldr	r3, [r7, #4]
 1524 0090 9A83     		strh	r2, [r3, #28]	@ movhi
 1525              	.L69:
 575:lib/chip/STM32F4xx_StdPeriph_Driver/src/stm32f4xx_i2c.c ****   }
 576:lib/chip/STM32F4xx_StdPeriph_Driver/src/stm32f4xx_i2c.c **** }
 1526              		.loc 1 576 0
 1527 0092 0837     		adds	r7, r7, #8
 1528 0094 BD46     		mov	sp, r7
 1529              		@ sp needed
 1530 0096 80BD     		pop	{r7, pc}
 1531              		.cfi_endproc
 1532              	.LFE123:
 1534              		.section	.text.I2C_NACKPositionConfig,"ax",%progbits
 1535              		.align	2
 1536              		.global	I2C_NACKPositionConfig
 1537              		.thumb
 1538              		.thumb_func
 1540              	I2C_NACKPositionConfig:
 1541              	.LFB124:
 577:lib/chip/STM32F4xx_StdPeriph_Driver/src/stm32f4xx_i2c.c **** 
 578:lib/chip/STM32F4xx_StdPeriph_Driver/src/stm32f4xx_i2c.c **** /**
 579:lib/chip/STM32F4xx_StdPeriph_Driver/src/stm32f4xx_i2c.c ****   * @brief  Selects the specified I2C NACK position in master receiver mode.
 580:lib/chip/STM32F4xx_StdPeriph_Driver/src/stm32f4xx_i2c.c ****   * @note   This function is useful in I2C Master Receiver mode when the number
 581:lib/chip/STM32F4xx_StdPeriph_Driver/src/stm32f4xx_i2c.c ****   *         of data to be received is equal to 2. In this case, this function 
 582:lib/chip/STM32F4xx_StdPeriph_Driver/src/stm32f4xx_i2c.c ****   *         should be called (with parameter I2C_NACKPosition_Next) before data 
 583:lib/chip/STM32F4xx_StdPeriph_Driver/src/stm32f4xx_i2c.c ****   *         reception starts,as described in the 2-byte reception procedure 
 584:lib/chip/STM32F4xx_StdPeriph_Driver/src/stm32f4xx_i2c.c ****   *         recommended in Reference Manual in Section: Master receiver.                
 585:lib/chip/STM32F4xx_StdPeriph_Driver/src/stm32f4xx_i2c.c ****   * @param  I2Cx: where x can be 1, 2 or 3 to select the I2C peripheral.
 586:lib/chip/STM32F4xx_StdPeriph_Driver/src/stm32f4xx_i2c.c ****   * @param  I2C_NACKPosition: specifies the NACK position. 
 587:lib/chip/STM32F4xx_StdPeriph_Driver/src/stm32f4xx_i2c.c ****   *          This parameter can be one of the following values:
 588:lib/chip/STM32F4xx_StdPeriph_Driver/src/stm32f4xx_i2c.c ****   *            @arg I2C_NACKPosition_Next: indicates that the next byte will be the last
 589:lib/chip/STM32F4xx_StdPeriph_Driver/src/stm32f4xx_i2c.c ****   *                                        received byte.  
 590:lib/chip/STM32F4xx_StdPeriph_Driver/src/stm32f4xx_i2c.c ****   *            @arg I2C_NACKPosition_Current: indicates that current byte is the last 
 591:lib/chip/STM32F4xx_StdPeriph_Driver/src/stm32f4xx_i2c.c ****   *                                           received byte.
 592:lib/chip/STM32F4xx_StdPeriph_Driver/src/stm32f4xx_i2c.c ****   *            
 593:lib/chip/STM32F4xx_StdPeriph_Driver/src/stm32f4xx_i2c.c ****   * @note    This function configures the same bit (POS) as I2C_PECPositionConfig() 
 594:lib/chip/STM32F4xx_StdPeriph_Driver/src/stm32f4xx_i2c.c ****   *          but is intended to be used in I2C mode while I2C_PECPositionConfig() 
 595:lib/chip/STM32F4xx_StdPeriph_Driver/src/stm32f4xx_i2c.c ****   *          is intended to used in SMBUS mode. 
 596:lib/chip/STM32F4xx_StdPeriph_Driver/src/stm32f4xx_i2c.c ****   *            
 597:lib/chip/STM32F4xx_StdPeriph_Driver/src/stm32f4xx_i2c.c ****   * @retval None
 598:lib/chip/STM32F4xx_StdPeriph_Driver/src/stm32f4xx_i2c.c ****   */
 599:lib/chip/STM32F4xx_StdPeriph_Driver/src/stm32f4xx_i2c.c **** void I2C_NACKPositionConfig(I2C_TypeDef* I2Cx, uint16_t I2C_NACKPosition)
 600:lib/chip/STM32F4xx_StdPeriph_Driver/src/stm32f4xx_i2c.c **** {
 1542              		.loc 1 600 0
 1543              		.cfi_startproc
 1544              		@ args = 0, pretend = 0, frame = 8
 1545              		@ frame_needed = 1, uses_anonymous_args = 0
 1546 0000 80B5     		push	{r7, lr}
 1547              	.LCFI42:
 1548              		.cfi_def_cfa_offset 8
 1549              		.cfi_offset 7, -8
 1550              		.cfi_offset 14, -4
 1551 0002 82B0     		sub	sp, sp, #8
 1552              	.LCFI43:
 1553              		.cfi_def_cfa_offset 16
 1554 0004 00AF     		add	r7, sp, #0
 1555              	.LCFI44:
 1556              		.cfi_def_cfa_register 7
 1557 0006 7860     		str	r0, [r7, #4]
 1558 0008 0B46     		mov	r3, r1
 1559 000a 7B80     		strh	r3, [r7, #2]	@ movhi
 601:lib/chip/STM32F4xx_StdPeriph_Driver/src/stm32f4xx_i2c.c ****   /* Check the parameters */
 602:lib/chip/STM32F4xx_StdPeriph_Driver/src/stm32f4xx_i2c.c ****   assert_param(IS_I2C_ALL_PERIPH(I2Cx));
 1560              		.loc 1 602 0
 1561 000c 7A68     		ldr	r2, [r7, #4]
 1562 000e 4FF4A843 		mov	r3, #21504
 1563 0012 C4F20003 		movt	r3, 16384
 1564 0016 9A42     		cmp	r2, r3
 1565 0018 15D0     		beq	.L75
 1566              		.loc 1 602 0 is_stmt 0 discriminator 1
 1567 001a 7A68     		ldr	r2, [r7, #4]
 1568 001c 4FF4B043 		mov	r3, #22528
 1569 0020 C4F20003 		movt	r3, 16384
 1570 0024 9A42     		cmp	r2, r3
 1571 0026 0ED0     		beq	.L75
 1572 0028 7A68     		ldr	r2, [r7, #4]
 1573 002a 4FF4B843 		mov	r3, #23552
 1574 002e C4F20003 		movt	r3, 16384
 1575 0032 9A42     		cmp	r2, r3
 1576 0034 07D0     		beq	.L75
 1577 0036 40F20000 		movw	r0, #:lower16:.LC0
 1578 003a C0F20000 		movt	r0, #:upper16:.LC0
 1579 003e 40F25A21 		movw	r1, #602
 1580 0042 FFF7FEFF 		bl	assert_failed
 1581              	.L75:
 603:lib/chip/STM32F4xx_StdPeriph_Driver/src/stm32f4xx_i2c.c ****   assert_param(IS_I2C_NACK_POSITION(I2C_NACKPosition));
 1582              		.loc 1 603 0 is_stmt 1
 1583 0046 7B88     		ldrh	r3, [r7, #2]
 1584 0048 B3F5006F 		cmp	r3, #2048
 1585 004c 0CD0     		beq	.L76
 1586              		.loc 1 603 0 is_stmt 0 discriminator 1
 1587 004e 7A88     		ldrh	r2, [r7, #2]
 1588 0050 4FF2FF73 		movw	r3, #63487
 1589 0054 9A42     		cmp	r2, r3
 1590 0056 07D0     		beq	.L76
 1591 0058 40F20000 		movw	r0, #:lower16:.LC0
 1592 005c C0F20000 		movt	r0, #:upper16:.LC0
 1593 0060 40F25B21 		movw	r1, #603
 1594 0064 FFF7FEFF 		bl	assert_failed
 1595              	.L76:
 604:lib/chip/STM32F4xx_StdPeriph_Driver/src/stm32f4xx_i2c.c ****   
 605:lib/chip/STM32F4xx_StdPeriph_Driver/src/stm32f4xx_i2c.c ****   /* Check the input parameter */
 606:lib/chip/STM32F4xx_StdPeriph_Driver/src/stm32f4xx_i2c.c ****   if (I2C_NACKPosition == I2C_NACKPosition_Next)
 1596              		.loc 1 606 0 is_stmt 1
 1597 0068 7B88     		ldrh	r3, [r7, #2]
 1598 006a B3F5006F 		cmp	r3, #2048
 1599 006e 08D1     		bne	.L77
 607:lib/chip/STM32F4xx_StdPeriph_Driver/src/stm32f4xx_i2c.c ****   {
 608:lib/chip/STM32F4xx_StdPeriph_Driver/src/stm32f4xx_i2c.c ****     /* Next byte in shift register is the last received byte */
 609:lib/chip/STM32F4xx_StdPeriph_Driver/src/stm32f4xx_i2c.c ****     I2Cx->CR1 |= I2C_NACKPosition_Next;
 1600              		.loc 1 609 0
 1601 0070 7B68     		ldr	r3, [r7, #4]
 1602 0072 1B88     		ldrh	r3, [r3]	@ movhi
 1603 0074 9BB2     		uxth	r3, r3
 1604 0076 43F40063 		orr	r3, r3, #2048
 1605 007a 9AB2     		uxth	r2, r3
 1606 007c 7B68     		ldr	r3, [r7, #4]
 1607 007e 1A80     		strh	r2, [r3]	@ movhi
 1608 0080 07E0     		b	.L74
 1609              	.L77:
 610:lib/chip/STM32F4xx_StdPeriph_Driver/src/stm32f4xx_i2c.c ****   }
 611:lib/chip/STM32F4xx_StdPeriph_Driver/src/stm32f4xx_i2c.c ****   else
 612:lib/chip/STM32F4xx_StdPeriph_Driver/src/stm32f4xx_i2c.c ****   {
 613:lib/chip/STM32F4xx_StdPeriph_Driver/src/stm32f4xx_i2c.c ****     /* Current byte in shift register is the last received byte */
 614:lib/chip/STM32F4xx_StdPeriph_Driver/src/stm32f4xx_i2c.c ****     I2Cx->CR1 &= I2C_NACKPosition_Current;
 1610              		.loc 1 614 0
 1611 0082 7B68     		ldr	r3, [r7, #4]
 1612 0084 1B88     		ldrh	r3, [r3]	@ movhi
 1613 0086 9BB2     		uxth	r3, r3
 1614 0088 23F40063 		bic	r3, r3, #2048
 1615 008c 9AB2     		uxth	r2, r3
 1616 008e 7B68     		ldr	r3, [r7, #4]
 1617 0090 1A80     		strh	r2, [r3]	@ movhi
 1618              	.L74:
 615:lib/chip/STM32F4xx_StdPeriph_Driver/src/stm32f4xx_i2c.c ****   }
 616:lib/chip/STM32F4xx_StdPeriph_Driver/src/stm32f4xx_i2c.c **** }
 1619              		.loc 1 616 0
 1620 0092 0837     		adds	r7, r7, #8
 1621 0094 BD46     		mov	sp, r7
 1622              		@ sp needed
 1623 0096 80BD     		pop	{r7, pc}
 1624              		.cfi_endproc
 1625              	.LFE124:
 1627              		.section	.text.I2C_SMBusAlertConfig,"ax",%progbits
 1628              		.align	2
 1629              		.global	I2C_SMBusAlertConfig
 1630              		.thumb
 1631              		.thumb_func
 1633              	I2C_SMBusAlertConfig:
 1634              	.LFB125:
 617:lib/chip/STM32F4xx_StdPeriph_Driver/src/stm32f4xx_i2c.c **** 
 618:lib/chip/STM32F4xx_StdPeriph_Driver/src/stm32f4xx_i2c.c **** /**
 619:lib/chip/STM32F4xx_StdPeriph_Driver/src/stm32f4xx_i2c.c ****   * @brief  Drives the SMBusAlert pin high or low for the specified I2C.
 620:lib/chip/STM32F4xx_StdPeriph_Driver/src/stm32f4xx_i2c.c ****   * @param  I2Cx: where x can be 1, 2 or 3 to select the I2C peripheral.
 621:lib/chip/STM32F4xx_StdPeriph_Driver/src/stm32f4xx_i2c.c ****   * @param  I2C_SMBusAlert: specifies SMBAlert pin level. 
 622:lib/chip/STM32F4xx_StdPeriph_Driver/src/stm32f4xx_i2c.c ****   *          This parameter can be one of the following values:
 623:lib/chip/STM32F4xx_StdPeriph_Driver/src/stm32f4xx_i2c.c ****   *            @arg I2C_SMBusAlert_Low: SMBAlert pin driven low
 624:lib/chip/STM32F4xx_StdPeriph_Driver/src/stm32f4xx_i2c.c ****   *            @arg I2C_SMBusAlert_High: SMBAlert pin driven high
 625:lib/chip/STM32F4xx_StdPeriph_Driver/src/stm32f4xx_i2c.c ****   * @retval None
 626:lib/chip/STM32F4xx_StdPeriph_Driver/src/stm32f4xx_i2c.c ****   */
 627:lib/chip/STM32F4xx_StdPeriph_Driver/src/stm32f4xx_i2c.c **** void I2C_SMBusAlertConfig(I2C_TypeDef* I2Cx, uint16_t I2C_SMBusAlert)
 628:lib/chip/STM32F4xx_StdPeriph_Driver/src/stm32f4xx_i2c.c **** {
 1635              		.loc 1 628 0
 1636              		.cfi_startproc
 1637              		@ args = 0, pretend = 0, frame = 8
 1638              		@ frame_needed = 1, uses_anonymous_args = 0
 1639 0000 80B5     		push	{r7, lr}
 1640              	.LCFI45:
 1641              		.cfi_def_cfa_offset 8
 1642              		.cfi_offset 7, -8
 1643              		.cfi_offset 14, -4
 1644 0002 82B0     		sub	sp, sp, #8
 1645              	.LCFI46:
 1646              		.cfi_def_cfa_offset 16
 1647 0004 00AF     		add	r7, sp, #0
 1648              	.LCFI47:
 1649              		.cfi_def_cfa_register 7
 1650 0006 7860     		str	r0, [r7, #4]
 1651 0008 0B46     		mov	r3, r1
 1652 000a 7B80     		strh	r3, [r7, #2]	@ movhi
 629:lib/chip/STM32F4xx_StdPeriph_Driver/src/stm32f4xx_i2c.c ****   /* Check the parameters */
 630:lib/chip/STM32F4xx_StdPeriph_Driver/src/stm32f4xx_i2c.c ****   assert_param(IS_I2C_ALL_PERIPH(I2Cx));
 1653              		.loc 1 630 0
 1654 000c 7A68     		ldr	r2, [r7, #4]
 1655 000e 4FF4A843 		mov	r3, #21504
 1656 0012 C4F20003 		movt	r3, 16384
 1657 0016 9A42     		cmp	r2, r3
 1658 0018 15D0     		beq	.L80
 1659              		.loc 1 630 0 is_stmt 0 discriminator 1
 1660 001a 7A68     		ldr	r2, [r7, #4]
 1661 001c 4FF4B043 		mov	r3, #22528
 1662 0020 C4F20003 		movt	r3, 16384
 1663 0024 9A42     		cmp	r2, r3
 1664 0026 0ED0     		beq	.L80
 1665 0028 7A68     		ldr	r2, [r7, #4]
 1666 002a 4FF4B843 		mov	r3, #23552
 1667 002e C4F20003 		movt	r3, 16384
 1668 0032 9A42     		cmp	r2, r3
 1669 0034 07D0     		beq	.L80
 1670 0036 40F20000 		movw	r0, #:lower16:.LC0
 1671 003a C0F20000 		movt	r0, #:upper16:.LC0
 1672 003e 40F27621 		movw	r1, #630
 1673 0042 FFF7FEFF 		bl	assert_failed
 1674              	.L80:
 631:lib/chip/STM32F4xx_StdPeriph_Driver/src/stm32f4xx_i2c.c ****   assert_param(IS_I2C_SMBUS_ALERT(I2C_SMBusAlert));
 1675              		.loc 1 631 0 is_stmt 1
 1676 0046 7B88     		ldrh	r3, [r7, #2]
 1677 0048 B3F5005F 		cmp	r3, #8192
 1678 004c 0CD0     		beq	.L81
 1679              		.loc 1 631 0 is_stmt 0 discriminator 1
 1680 004e 7A88     		ldrh	r2, [r7, #2]
 1681 0050 4DF6FF73 		movw	r3, #57343
 1682 0054 9A42     		cmp	r2, r3
 1683 0056 07D0     		beq	.L81
 1684 0058 40F20000 		movw	r0, #:lower16:.LC0
 1685 005c C0F20000 		movt	r0, #:upper16:.LC0
 1686 0060 40F27721 		movw	r1, #631
 1687 0064 FFF7FEFF 		bl	assert_failed
 1688              	.L81:
 632:lib/chip/STM32F4xx_StdPeriph_Driver/src/stm32f4xx_i2c.c ****   if (I2C_SMBusAlert == I2C_SMBusAlert_Low)
 1689              		.loc 1 632 0 is_stmt 1
 1690 0068 7B88     		ldrh	r3, [r7, #2]
 1691 006a B3F5005F 		cmp	r3, #8192
 1692 006e 08D1     		bne	.L82
 633:lib/chip/STM32F4xx_StdPeriph_Driver/src/stm32f4xx_i2c.c ****   {
 634:lib/chip/STM32F4xx_StdPeriph_Driver/src/stm32f4xx_i2c.c ****     /* Drive the SMBusAlert pin Low */
 635:lib/chip/STM32F4xx_StdPeriph_Driver/src/stm32f4xx_i2c.c ****     I2Cx->CR1 |= I2C_SMBusAlert_Low;
 1693              		.loc 1 635 0
 1694 0070 7B68     		ldr	r3, [r7, #4]
 1695 0072 1B88     		ldrh	r3, [r3]	@ movhi
 1696 0074 9BB2     		uxth	r3, r3
 1697 0076 43F40053 		orr	r3, r3, #8192
 1698 007a 9AB2     		uxth	r2, r3
 1699 007c 7B68     		ldr	r3, [r7, #4]
 1700 007e 1A80     		strh	r2, [r3]	@ movhi
 1701 0080 07E0     		b	.L79
 1702              	.L82:
 636:lib/chip/STM32F4xx_StdPeriph_Driver/src/stm32f4xx_i2c.c ****   }
 637:lib/chip/STM32F4xx_StdPeriph_Driver/src/stm32f4xx_i2c.c ****   else
 638:lib/chip/STM32F4xx_StdPeriph_Driver/src/stm32f4xx_i2c.c ****   {
 639:lib/chip/STM32F4xx_StdPeriph_Driver/src/stm32f4xx_i2c.c ****     /* Drive the SMBusAlert pin High  */
 640:lib/chip/STM32F4xx_StdPeriph_Driver/src/stm32f4xx_i2c.c ****     I2Cx->CR1 &= I2C_SMBusAlert_High;
 1703              		.loc 1 640 0
 1704 0082 7B68     		ldr	r3, [r7, #4]
 1705 0084 1B88     		ldrh	r3, [r3]	@ movhi
 1706 0086 9BB2     		uxth	r3, r3
 1707 0088 23F40053 		bic	r3, r3, #8192
 1708 008c 9AB2     		uxth	r2, r3
 1709 008e 7B68     		ldr	r3, [r7, #4]
 1710 0090 1A80     		strh	r2, [r3]	@ movhi
 1711              	.L79:
 641:lib/chip/STM32F4xx_StdPeriph_Driver/src/stm32f4xx_i2c.c ****   }
 642:lib/chip/STM32F4xx_StdPeriph_Driver/src/stm32f4xx_i2c.c **** }
 1712              		.loc 1 642 0
 1713 0092 0837     		adds	r7, r7, #8
 1714 0094 BD46     		mov	sp, r7
 1715              		@ sp needed
 1716 0096 80BD     		pop	{r7, pc}
 1717              		.cfi_endproc
 1718              	.LFE125:
 1720              		.section	.text.I2C_ARPCmd,"ax",%progbits
 1721              		.align	2
 1722              		.global	I2C_ARPCmd
 1723              		.thumb
 1724              		.thumb_func
 1726              	I2C_ARPCmd:
 1727              	.LFB126:
 643:lib/chip/STM32F4xx_StdPeriph_Driver/src/stm32f4xx_i2c.c **** 
 644:lib/chip/STM32F4xx_StdPeriph_Driver/src/stm32f4xx_i2c.c **** /**
 645:lib/chip/STM32F4xx_StdPeriph_Driver/src/stm32f4xx_i2c.c ****   * @brief  Enables or disables the specified I2C ARP.
 646:lib/chip/STM32F4xx_StdPeriph_Driver/src/stm32f4xx_i2c.c ****   * @param  I2Cx: where x can be 1, 2 or 3 to select the I2C peripheral.
 647:lib/chip/STM32F4xx_StdPeriph_Driver/src/stm32f4xx_i2c.c ****   * @param  NewState: new state of the I2Cx ARP. 
 648:lib/chip/STM32F4xx_StdPeriph_Driver/src/stm32f4xx_i2c.c ****   *          This parameter can be: ENABLE or DISABLE.
 649:lib/chip/STM32F4xx_StdPeriph_Driver/src/stm32f4xx_i2c.c ****   * @retval None
 650:lib/chip/STM32F4xx_StdPeriph_Driver/src/stm32f4xx_i2c.c ****   */
 651:lib/chip/STM32F4xx_StdPeriph_Driver/src/stm32f4xx_i2c.c **** void I2C_ARPCmd(I2C_TypeDef* I2Cx, FunctionalState NewState)
 652:lib/chip/STM32F4xx_StdPeriph_Driver/src/stm32f4xx_i2c.c **** {
 1728              		.loc 1 652 0
 1729              		.cfi_startproc
 1730              		@ args = 0, pretend = 0, frame = 8
 1731              		@ frame_needed = 1, uses_anonymous_args = 0
 1732 0000 80B5     		push	{r7, lr}
 1733              	.LCFI48:
 1734              		.cfi_def_cfa_offset 8
 1735              		.cfi_offset 7, -8
 1736              		.cfi_offset 14, -4
 1737 0002 82B0     		sub	sp, sp, #8
 1738              	.LCFI49:
 1739              		.cfi_def_cfa_offset 16
 1740 0004 00AF     		add	r7, sp, #0
 1741              	.LCFI50:
 1742              		.cfi_def_cfa_register 7
 1743 0006 7860     		str	r0, [r7, #4]
 1744 0008 0B46     		mov	r3, r1
 1745 000a FB70     		strb	r3, [r7, #3]
 653:lib/chip/STM32F4xx_StdPeriph_Driver/src/stm32f4xx_i2c.c ****   /* Check the parameters */
 654:lib/chip/STM32F4xx_StdPeriph_Driver/src/stm32f4xx_i2c.c ****   assert_param(IS_I2C_ALL_PERIPH(I2Cx));
 1746              		.loc 1 654 0
 1747 000c 7A68     		ldr	r2, [r7, #4]
 1748 000e 4FF4A843 		mov	r3, #21504
 1749 0012 C4F20003 		movt	r3, 16384
 1750 0016 9A42     		cmp	r2, r3
 1751 0018 15D0     		beq	.L85
 1752              		.loc 1 654 0 is_stmt 0 discriminator 1
 1753 001a 7A68     		ldr	r2, [r7, #4]
 1754 001c 4FF4B043 		mov	r3, #22528
 1755 0020 C4F20003 		movt	r3, 16384
 1756 0024 9A42     		cmp	r2, r3
 1757 0026 0ED0     		beq	.L85
 1758 0028 7A68     		ldr	r2, [r7, #4]
 1759 002a 4FF4B843 		mov	r3, #23552
 1760 002e C4F20003 		movt	r3, 16384
 1761 0032 9A42     		cmp	r2, r3
 1762 0034 07D0     		beq	.L85
 1763 0036 40F20000 		movw	r0, #:lower16:.LC0
 1764 003a C0F20000 		movt	r0, #:upper16:.LC0
 1765 003e 40F28E21 		movw	r1, #654
 1766 0042 FFF7FEFF 		bl	assert_failed
 1767              	.L85:
 655:lib/chip/STM32F4xx_StdPeriph_Driver/src/stm32f4xx_i2c.c ****   assert_param(IS_FUNCTIONAL_STATE(NewState));
 1768              		.loc 1 655 0 is_stmt 1
 1769 0046 FB78     		ldrb	r3, [r7, #3]	@ zero_extendqisi2
 1770 0048 002B     		cmp	r3, #0
 1771 004a 0AD0     		beq	.L86
 1772              		.loc 1 655 0 is_stmt 0 discriminator 1
 1773 004c FB78     		ldrb	r3, [r7, #3]	@ zero_extendqisi2
 1774 004e 012B     		cmp	r3, #1
 1775 0050 07D0     		beq	.L86
 1776 0052 40F20000 		movw	r0, #:lower16:.LC0
 1777 0056 C0F20000 		movt	r0, #:upper16:.LC0
 1778 005a 40F28F21 		movw	r1, #655
 1779 005e FFF7FEFF 		bl	assert_failed
 1780              	.L86:
 656:lib/chip/STM32F4xx_StdPeriph_Driver/src/stm32f4xx_i2c.c ****   if (NewState != DISABLE)
 1781              		.loc 1 656 0 is_stmt 1
 1782 0062 FB78     		ldrb	r3, [r7, #3]	@ zero_extendqisi2
 1783 0064 002B     		cmp	r3, #0
 1784 0066 08D0     		beq	.L87
 657:lib/chip/STM32F4xx_StdPeriph_Driver/src/stm32f4xx_i2c.c ****   {
 658:lib/chip/STM32F4xx_StdPeriph_Driver/src/stm32f4xx_i2c.c ****     /* Enable the selected I2C ARP */
 659:lib/chip/STM32F4xx_StdPeriph_Driver/src/stm32f4xx_i2c.c ****     I2Cx->CR1 |= I2C_CR1_ENARP;
 1785              		.loc 1 659 0
 1786 0068 7B68     		ldr	r3, [r7, #4]
 1787 006a 1B88     		ldrh	r3, [r3]	@ movhi
 1788 006c 9BB2     		uxth	r3, r3
 1789 006e 43F01003 		orr	r3, r3, #16
 1790 0072 9AB2     		uxth	r2, r3
 1791 0074 7B68     		ldr	r3, [r7, #4]
 1792 0076 1A80     		strh	r2, [r3]	@ movhi
 1793 0078 07E0     		b	.L84
 1794              	.L87:
 660:lib/chip/STM32F4xx_StdPeriph_Driver/src/stm32f4xx_i2c.c ****   }
 661:lib/chip/STM32F4xx_StdPeriph_Driver/src/stm32f4xx_i2c.c ****   else
 662:lib/chip/STM32F4xx_StdPeriph_Driver/src/stm32f4xx_i2c.c ****   {
 663:lib/chip/STM32F4xx_StdPeriph_Driver/src/stm32f4xx_i2c.c ****     /* Disable the selected I2C ARP */
 664:lib/chip/STM32F4xx_StdPeriph_Driver/src/stm32f4xx_i2c.c ****     I2Cx->CR1 &= (uint16_t)~((uint16_t)I2C_CR1_ENARP);
 1795              		.loc 1 664 0
 1796 007a 7B68     		ldr	r3, [r7, #4]
 1797 007c 1B88     		ldrh	r3, [r3]	@ movhi
 1798 007e 9BB2     		uxth	r3, r3
 1799 0080 23F01003 		bic	r3, r3, #16
 1800 0084 9AB2     		uxth	r2, r3
 1801 0086 7B68     		ldr	r3, [r7, #4]
 1802 0088 1A80     		strh	r2, [r3]	@ movhi
 1803              	.L84:
 665:lib/chip/STM32F4xx_StdPeriph_Driver/src/stm32f4xx_i2c.c ****   }
 666:lib/chip/STM32F4xx_StdPeriph_Driver/src/stm32f4xx_i2c.c **** }
 1804              		.loc 1 666 0
 1805 008a 0837     		adds	r7, r7, #8
 1806 008c BD46     		mov	sp, r7
 1807              		@ sp needed
 1808 008e 80BD     		pop	{r7, pc}
 1809              		.cfi_endproc
 1810              	.LFE126:
 1812              		.section	.text.I2C_SendData,"ax",%progbits
 1813              		.align	2
 1814              		.global	I2C_SendData
 1815              		.thumb
 1816              		.thumb_func
 1818              	I2C_SendData:
 1819              	.LFB127:
 667:lib/chip/STM32F4xx_StdPeriph_Driver/src/stm32f4xx_i2c.c **** /**
 668:lib/chip/STM32F4xx_StdPeriph_Driver/src/stm32f4xx_i2c.c ****   * @}
 669:lib/chip/STM32F4xx_StdPeriph_Driver/src/stm32f4xx_i2c.c ****   */
 670:lib/chip/STM32F4xx_StdPeriph_Driver/src/stm32f4xx_i2c.c **** 
 671:lib/chip/STM32F4xx_StdPeriph_Driver/src/stm32f4xx_i2c.c **** /** @defgroup I2C_Group2 Data transfers functions
 672:lib/chip/STM32F4xx_StdPeriph_Driver/src/stm32f4xx_i2c.c ****  *  @brief   Data transfers functions 
 673:lib/chip/STM32F4xx_StdPeriph_Driver/src/stm32f4xx_i2c.c ****  *
 674:lib/chip/STM32F4xx_StdPeriph_Driver/src/stm32f4xx_i2c.c **** @verbatim   
 675:lib/chip/STM32F4xx_StdPeriph_Driver/src/stm32f4xx_i2c.c ****  ===============================================================================
 676:lib/chip/STM32F4xx_StdPeriph_Driver/src/stm32f4xx_i2c.c ****                         Data transfers functions
 677:lib/chip/STM32F4xx_StdPeriph_Driver/src/stm32f4xx_i2c.c ****  ===============================================================================  
 678:lib/chip/STM32F4xx_StdPeriph_Driver/src/stm32f4xx_i2c.c **** 
 679:lib/chip/STM32F4xx_StdPeriph_Driver/src/stm32f4xx_i2c.c **** @endverbatim
 680:lib/chip/STM32F4xx_StdPeriph_Driver/src/stm32f4xx_i2c.c ****   * @{
 681:lib/chip/STM32F4xx_StdPeriph_Driver/src/stm32f4xx_i2c.c ****   */
 682:lib/chip/STM32F4xx_StdPeriph_Driver/src/stm32f4xx_i2c.c **** 
 683:lib/chip/STM32F4xx_StdPeriph_Driver/src/stm32f4xx_i2c.c **** /**
 684:lib/chip/STM32F4xx_StdPeriph_Driver/src/stm32f4xx_i2c.c ****   * @brief  Sends a data byte through the I2Cx peripheral.
 685:lib/chip/STM32F4xx_StdPeriph_Driver/src/stm32f4xx_i2c.c ****   * @param  I2Cx: where x can be 1, 2 or 3 to select the I2C peripheral.
 686:lib/chip/STM32F4xx_StdPeriph_Driver/src/stm32f4xx_i2c.c ****   * @param  Data: Byte to be transmitted..
 687:lib/chip/STM32F4xx_StdPeriph_Driver/src/stm32f4xx_i2c.c ****   * @retval None
 688:lib/chip/STM32F4xx_StdPeriph_Driver/src/stm32f4xx_i2c.c ****   */
 689:lib/chip/STM32F4xx_StdPeriph_Driver/src/stm32f4xx_i2c.c **** void I2C_SendData(I2C_TypeDef* I2Cx, uint8_t Data)
 690:lib/chip/STM32F4xx_StdPeriph_Driver/src/stm32f4xx_i2c.c **** {
 1820              		.loc 1 690 0
 1821              		.cfi_startproc
 1822              		@ args = 0, pretend = 0, frame = 8
 1823              		@ frame_needed = 1, uses_anonymous_args = 0
 1824 0000 80B5     		push	{r7, lr}
 1825              	.LCFI51:
 1826              		.cfi_def_cfa_offset 8
 1827              		.cfi_offset 7, -8
 1828              		.cfi_offset 14, -4
 1829 0002 82B0     		sub	sp, sp, #8
 1830              	.LCFI52:
 1831              		.cfi_def_cfa_offset 16
 1832 0004 00AF     		add	r7, sp, #0
 1833              	.LCFI53:
 1834              		.cfi_def_cfa_register 7
 1835 0006 7860     		str	r0, [r7, #4]
 1836 0008 0B46     		mov	r3, r1
 1837 000a FB70     		strb	r3, [r7, #3]
 691:lib/chip/STM32F4xx_StdPeriph_Driver/src/stm32f4xx_i2c.c ****   /* Check the parameters */
 692:lib/chip/STM32F4xx_StdPeriph_Driver/src/stm32f4xx_i2c.c ****   assert_param(IS_I2C_ALL_PERIPH(I2Cx));
 1838              		.loc 1 692 0
 1839 000c 7A68     		ldr	r2, [r7, #4]
 1840 000e 4FF4A843 		mov	r3, #21504
 1841 0012 C4F20003 		movt	r3, 16384
 1842 0016 9A42     		cmp	r2, r3
 1843 0018 15D0     		beq	.L90
 1844              		.loc 1 692 0 is_stmt 0 discriminator 1
 1845 001a 7A68     		ldr	r2, [r7, #4]
 1846 001c 4FF4B043 		mov	r3, #22528
 1847 0020 C4F20003 		movt	r3, 16384
 1848 0024 9A42     		cmp	r2, r3
 1849 0026 0ED0     		beq	.L90
 1850 0028 7A68     		ldr	r2, [r7, #4]
 1851 002a 4FF4B843 		mov	r3, #23552
 1852 002e C4F20003 		movt	r3, 16384
 1853 0032 9A42     		cmp	r2, r3
 1854 0034 07D0     		beq	.L90
 1855 0036 40F20000 		movw	r0, #:lower16:.LC0
 1856 003a C0F20000 		movt	r0, #:upper16:.LC0
 1857 003e 4FF42D71 		mov	r1, #692
 1858 0042 FFF7FEFF 		bl	assert_failed
 1859              	.L90:
 693:lib/chip/STM32F4xx_StdPeriph_Driver/src/stm32f4xx_i2c.c ****   /* Write in the DR register the data to be sent */
 694:lib/chip/STM32F4xx_StdPeriph_Driver/src/stm32f4xx_i2c.c ****   I2Cx->DR = Data;
 1860              		.loc 1 694 0 is_stmt 1
 1861 0046 FB78     		ldrb	r3, [r7, #3]	@ zero_extendqisi2
 1862 0048 9AB2     		uxth	r2, r3
 1863 004a 7B68     		ldr	r3, [r7, #4]
 1864 004c 1A82     		strh	r2, [r3, #16]	@ movhi
 695:lib/chip/STM32F4xx_StdPeriph_Driver/src/stm32f4xx_i2c.c **** }
 1865              		.loc 1 695 0
 1866 004e 0837     		adds	r7, r7, #8
 1867 0050 BD46     		mov	sp, r7
 1868              		@ sp needed
 1869 0052 80BD     		pop	{r7, pc}
 1870              		.cfi_endproc
 1871              	.LFE127:
 1873              		.section	.text.I2C_ReceiveData,"ax",%progbits
 1874              		.align	2
 1875              		.global	I2C_ReceiveData
 1876              		.thumb
 1877              		.thumb_func
 1879              	I2C_ReceiveData:
 1880              	.LFB128:
 696:lib/chip/STM32F4xx_StdPeriph_Driver/src/stm32f4xx_i2c.c **** 
 697:lib/chip/STM32F4xx_StdPeriph_Driver/src/stm32f4xx_i2c.c **** /**
 698:lib/chip/STM32F4xx_StdPeriph_Driver/src/stm32f4xx_i2c.c ****   * @brief  Returns the most recent received data by the I2Cx peripheral.
 699:lib/chip/STM32F4xx_StdPeriph_Driver/src/stm32f4xx_i2c.c ****   * @param  I2Cx: where x can be 1, 2 or 3 to select the I2C peripheral.
 700:lib/chip/STM32F4xx_StdPeriph_Driver/src/stm32f4xx_i2c.c ****   * @retval The value of the received data.
 701:lib/chip/STM32F4xx_StdPeriph_Driver/src/stm32f4xx_i2c.c ****   */
 702:lib/chip/STM32F4xx_StdPeriph_Driver/src/stm32f4xx_i2c.c **** uint8_t I2C_ReceiveData(I2C_TypeDef* I2Cx)
 703:lib/chip/STM32F4xx_StdPeriph_Driver/src/stm32f4xx_i2c.c **** {
 1881              		.loc 1 703 0
 1882              		.cfi_startproc
 1883              		@ args = 0, pretend = 0, frame = 8
 1884              		@ frame_needed = 1, uses_anonymous_args = 0
 1885 0000 80B5     		push	{r7, lr}
 1886              	.LCFI54:
 1887              		.cfi_def_cfa_offset 8
 1888              		.cfi_offset 7, -8
 1889              		.cfi_offset 14, -4
 1890 0002 82B0     		sub	sp, sp, #8
 1891              	.LCFI55:
 1892              		.cfi_def_cfa_offset 16
 1893 0004 00AF     		add	r7, sp, #0
 1894              	.LCFI56:
 1895              		.cfi_def_cfa_register 7
 1896 0006 7860     		str	r0, [r7, #4]
 704:lib/chip/STM32F4xx_StdPeriph_Driver/src/stm32f4xx_i2c.c ****   /* Check the parameters */
 705:lib/chip/STM32F4xx_StdPeriph_Driver/src/stm32f4xx_i2c.c ****   assert_param(IS_I2C_ALL_PERIPH(I2Cx));
 1897              		.loc 1 705 0
 1898 0008 7A68     		ldr	r2, [r7, #4]
 1899 000a 4FF4A843 		mov	r3, #21504
 1900 000e C4F20003 		movt	r3, 16384
 1901 0012 9A42     		cmp	r2, r3
 1902 0014 15D0     		beq	.L92
 1903              		.loc 1 705 0 is_stmt 0 discriminator 1
 1904 0016 7A68     		ldr	r2, [r7, #4]
 1905 0018 4FF4B043 		mov	r3, #22528
 1906 001c C4F20003 		movt	r3, 16384
 1907 0020 9A42     		cmp	r2, r3
 1908 0022 0ED0     		beq	.L92
 1909 0024 7A68     		ldr	r2, [r7, #4]
 1910 0026 4FF4B843 		mov	r3, #23552
 1911 002a C4F20003 		movt	r3, 16384
 1912 002e 9A42     		cmp	r2, r3
 1913 0030 07D0     		beq	.L92
 1914 0032 40F20000 		movw	r0, #:lower16:.LC0
 1915 0036 C0F20000 		movt	r0, #:upper16:.LC0
 1916 003a 40F2C121 		movw	r1, #705
 1917 003e FFF7FEFF 		bl	assert_failed
 1918              	.L92:
 706:lib/chip/STM32F4xx_StdPeriph_Driver/src/stm32f4xx_i2c.c ****   /* Return the data in the DR register */
 707:lib/chip/STM32F4xx_StdPeriph_Driver/src/stm32f4xx_i2c.c ****   return (uint8_t)I2Cx->DR;
 1919              		.loc 1 707 0 is_stmt 1
 1920 0042 7B68     		ldr	r3, [r7, #4]
 1921 0044 1B8A     		ldrh	r3, [r3, #16]	@ movhi
 1922 0046 9BB2     		uxth	r3, r3
 1923 0048 DBB2     		uxtb	r3, r3
 708:lib/chip/STM32F4xx_StdPeriph_Driver/src/stm32f4xx_i2c.c **** }
 1924              		.loc 1 708 0
 1925 004a 1846     		mov	r0, r3
 1926 004c 0837     		adds	r7, r7, #8
 1927 004e BD46     		mov	sp, r7
 1928              		@ sp needed
 1929 0050 80BD     		pop	{r7, pc}
 1930              		.cfi_endproc
 1931              	.LFE128:
 1933 0052 00BF     		.section	.text.I2C_TransmitPEC,"ax",%progbits
 1934              		.align	2
 1935              		.global	I2C_TransmitPEC
 1936              		.thumb
 1937              		.thumb_func
 1939              	I2C_TransmitPEC:
 1940              	.LFB129:
 709:lib/chip/STM32F4xx_StdPeriph_Driver/src/stm32f4xx_i2c.c **** 
 710:lib/chip/STM32F4xx_StdPeriph_Driver/src/stm32f4xx_i2c.c **** /**
 711:lib/chip/STM32F4xx_StdPeriph_Driver/src/stm32f4xx_i2c.c ****   * @}
 712:lib/chip/STM32F4xx_StdPeriph_Driver/src/stm32f4xx_i2c.c ****   */
 713:lib/chip/STM32F4xx_StdPeriph_Driver/src/stm32f4xx_i2c.c **** 
 714:lib/chip/STM32F4xx_StdPeriph_Driver/src/stm32f4xx_i2c.c **** /** @defgroup I2C_Group3 PEC management functions
 715:lib/chip/STM32F4xx_StdPeriph_Driver/src/stm32f4xx_i2c.c ****  *  @brief   PEC management functions 
 716:lib/chip/STM32F4xx_StdPeriph_Driver/src/stm32f4xx_i2c.c ****  *
 717:lib/chip/STM32F4xx_StdPeriph_Driver/src/stm32f4xx_i2c.c **** @verbatim   
 718:lib/chip/STM32F4xx_StdPeriph_Driver/src/stm32f4xx_i2c.c ****  ===============================================================================
 719:lib/chip/STM32F4xx_StdPeriph_Driver/src/stm32f4xx_i2c.c ****                          PEC management functions
 720:lib/chip/STM32F4xx_StdPeriph_Driver/src/stm32f4xx_i2c.c ****  ===============================================================================  
 721:lib/chip/STM32F4xx_StdPeriph_Driver/src/stm32f4xx_i2c.c **** 
 722:lib/chip/STM32F4xx_StdPeriph_Driver/src/stm32f4xx_i2c.c **** @endverbatim
 723:lib/chip/STM32F4xx_StdPeriph_Driver/src/stm32f4xx_i2c.c ****   * @{
 724:lib/chip/STM32F4xx_StdPeriph_Driver/src/stm32f4xx_i2c.c ****   */
 725:lib/chip/STM32F4xx_StdPeriph_Driver/src/stm32f4xx_i2c.c **** 
 726:lib/chip/STM32F4xx_StdPeriph_Driver/src/stm32f4xx_i2c.c **** /**
 727:lib/chip/STM32F4xx_StdPeriph_Driver/src/stm32f4xx_i2c.c ****   * @brief  Enables or disables the specified I2C PEC transfer.
 728:lib/chip/STM32F4xx_StdPeriph_Driver/src/stm32f4xx_i2c.c ****   * @param  I2Cx: where x can be 1, 2 or 3 to select the I2C peripheral.
 729:lib/chip/STM32F4xx_StdPeriph_Driver/src/stm32f4xx_i2c.c ****   * @param  NewState: new state of the I2C PEC transmission.
 730:lib/chip/STM32F4xx_StdPeriph_Driver/src/stm32f4xx_i2c.c ****   *          This parameter can be: ENABLE or DISABLE.
 731:lib/chip/STM32F4xx_StdPeriph_Driver/src/stm32f4xx_i2c.c ****   * @retval None
 732:lib/chip/STM32F4xx_StdPeriph_Driver/src/stm32f4xx_i2c.c ****   */
 733:lib/chip/STM32F4xx_StdPeriph_Driver/src/stm32f4xx_i2c.c **** void I2C_TransmitPEC(I2C_TypeDef* I2Cx, FunctionalState NewState)
 734:lib/chip/STM32F4xx_StdPeriph_Driver/src/stm32f4xx_i2c.c **** {
 1941              		.loc 1 734 0
 1942              		.cfi_startproc
 1943              		@ args = 0, pretend = 0, frame = 8
 1944              		@ frame_needed = 1, uses_anonymous_args = 0
 1945 0000 80B5     		push	{r7, lr}
 1946              	.LCFI57:
 1947              		.cfi_def_cfa_offset 8
 1948              		.cfi_offset 7, -8
 1949              		.cfi_offset 14, -4
 1950 0002 82B0     		sub	sp, sp, #8
 1951              	.LCFI58:
 1952              		.cfi_def_cfa_offset 16
 1953 0004 00AF     		add	r7, sp, #0
 1954              	.LCFI59:
 1955              		.cfi_def_cfa_register 7
 1956 0006 7860     		str	r0, [r7, #4]
 1957 0008 0B46     		mov	r3, r1
 1958 000a FB70     		strb	r3, [r7, #3]
 735:lib/chip/STM32F4xx_StdPeriph_Driver/src/stm32f4xx_i2c.c ****   /* Check the parameters */
 736:lib/chip/STM32F4xx_StdPeriph_Driver/src/stm32f4xx_i2c.c ****   assert_param(IS_I2C_ALL_PERIPH(I2Cx));
 1959              		.loc 1 736 0
 1960 000c 7A68     		ldr	r2, [r7, #4]
 1961 000e 4FF4A843 		mov	r3, #21504
 1962 0012 C4F20003 		movt	r3, 16384
 1963 0016 9A42     		cmp	r2, r3
 1964 0018 15D0     		beq	.L95
 1965              		.loc 1 736 0 is_stmt 0 discriminator 1
 1966 001a 7A68     		ldr	r2, [r7, #4]
 1967 001c 4FF4B043 		mov	r3, #22528
 1968 0020 C4F20003 		movt	r3, 16384
 1969 0024 9A42     		cmp	r2, r3
 1970 0026 0ED0     		beq	.L95
 1971 0028 7A68     		ldr	r2, [r7, #4]
 1972 002a 4FF4B843 		mov	r3, #23552
 1973 002e C4F20003 		movt	r3, 16384
 1974 0032 9A42     		cmp	r2, r3
 1975 0034 07D0     		beq	.L95
 1976 0036 40F20000 		movw	r0, #:lower16:.LC0
 1977 003a C0F20000 		movt	r0, #:upper16:.LC0
 1978 003e 4FF43871 		mov	r1, #736
 1979 0042 FFF7FEFF 		bl	assert_failed
 1980              	.L95:
 737:lib/chip/STM32F4xx_StdPeriph_Driver/src/stm32f4xx_i2c.c ****   assert_param(IS_FUNCTIONAL_STATE(NewState));
 1981              		.loc 1 737 0 is_stmt 1
 1982 0046 FB78     		ldrb	r3, [r7, #3]	@ zero_extendqisi2
 1983 0048 002B     		cmp	r3, #0
 1984 004a 0AD0     		beq	.L96
 1985              		.loc 1 737 0 is_stmt 0 discriminator 1
 1986 004c FB78     		ldrb	r3, [r7, #3]	@ zero_extendqisi2
 1987 004e 012B     		cmp	r3, #1
 1988 0050 07D0     		beq	.L96
 1989 0052 40F20000 		movw	r0, #:lower16:.LC0
 1990 0056 C0F20000 		movt	r0, #:upper16:.LC0
 1991 005a 40F2E121 		movw	r1, #737
 1992 005e FFF7FEFF 		bl	assert_failed
 1993              	.L96:
 738:lib/chip/STM32F4xx_StdPeriph_Driver/src/stm32f4xx_i2c.c ****   if (NewState != DISABLE)
 1994              		.loc 1 738 0 is_stmt 1
 1995 0062 FB78     		ldrb	r3, [r7, #3]	@ zero_extendqisi2
 1996 0064 002B     		cmp	r3, #0
 1997 0066 08D0     		beq	.L97
 739:lib/chip/STM32F4xx_StdPeriph_Driver/src/stm32f4xx_i2c.c ****   {
 740:lib/chip/STM32F4xx_StdPeriph_Driver/src/stm32f4xx_i2c.c ****     /* Enable the selected I2C PEC transmission */
 741:lib/chip/STM32F4xx_StdPeriph_Driver/src/stm32f4xx_i2c.c ****     I2Cx->CR1 |= I2C_CR1_PEC;
 1998              		.loc 1 741 0
 1999 0068 7B68     		ldr	r3, [r7, #4]
 2000 006a 1B88     		ldrh	r3, [r3]	@ movhi
 2001 006c 9BB2     		uxth	r3, r3
 2002 006e 43F48053 		orr	r3, r3, #4096
 2003 0072 9AB2     		uxth	r2, r3
 2004 0074 7B68     		ldr	r3, [r7, #4]
 2005 0076 1A80     		strh	r2, [r3]	@ movhi
 2006 0078 07E0     		b	.L94
 2007              	.L97:
 742:lib/chip/STM32F4xx_StdPeriph_Driver/src/stm32f4xx_i2c.c ****   }
 743:lib/chip/STM32F4xx_StdPeriph_Driver/src/stm32f4xx_i2c.c ****   else
 744:lib/chip/STM32F4xx_StdPeriph_Driver/src/stm32f4xx_i2c.c ****   {
 745:lib/chip/STM32F4xx_StdPeriph_Driver/src/stm32f4xx_i2c.c ****     /* Disable the selected I2C PEC transmission */
 746:lib/chip/STM32F4xx_StdPeriph_Driver/src/stm32f4xx_i2c.c ****     I2Cx->CR1 &= (uint16_t)~((uint16_t)I2C_CR1_PEC);
 2008              		.loc 1 746 0
 2009 007a 7B68     		ldr	r3, [r7, #4]
 2010 007c 1B88     		ldrh	r3, [r3]	@ movhi
 2011 007e 9BB2     		uxth	r3, r3
 2012 0080 23F48053 		bic	r3, r3, #4096
 2013 0084 9AB2     		uxth	r2, r3
 2014 0086 7B68     		ldr	r3, [r7, #4]
 2015 0088 1A80     		strh	r2, [r3]	@ movhi
 2016              	.L94:
 747:lib/chip/STM32F4xx_StdPeriph_Driver/src/stm32f4xx_i2c.c ****   }
 748:lib/chip/STM32F4xx_StdPeriph_Driver/src/stm32f4xx_i2c.c **** }
 2017              		.loc 1 748 0
 2018 008a 0837     		adds	r7, r7, #8
 2019 008c BD46     		mov	sp, r7
 2020              		@ sp needed
 2021 008e 80BD     		pop	{r7, pc}
 2022              		.cfi_endproc
 2023              	.LFE129:
 2025              		.section	.text.I2C_PECPositionConfig,"ax",%progbits
 2026              		.align	2
 2027              		.global	I2C_PECPositionConfig
 2028              		.thumb
 2029              		.thumb_func
 2031              	I2C_PECPositionConfig:
 2032              	.LFB130:
 749:lib/chip/STM32F4xx_StdPeriph_Driver/src/stm32f4xx_i2c.c **** 
 750:lib/chip/STM32F4xx_StdPeriph_Driver/src/stm32f4xx_i2c.c **** /**
 751:lib/chip/STM32F4xx_StdPeriph_Driver/src/stm32f4xx_i2c.c ****   * @brief  Selects the specified I2C PEC position.
 752:lib/chip/STM32F4xx_StdPeriph_Driver/src/stm32f4xx_i2c.c ****   * @param  I2Cx: where x can be 1, 2 or 3 to select the I2C peripheral.
 753:lib/chip/STM32F4xx_StdPeriph_Driver/src/stm32f4xx_i2c.c ****   * @param  I2C_PECPosition: specifies the PEC position. 
 754:lib/chip/STM32F4xx_StdPeriph_Driver/src/stm32f4xx_i2c.c ****   *          This parameter can be one of the following values:
 755:lib/chip/STM32F4xx_StdPeriph_Driver/src/stm32f4xx_i2c.c ****   *            @arg I2C_PECPosition_Next: indicates that the next byte is PEC
 756:lib/chip/STM32F4xx_StdPeriph_Driver/src/stm32f4xx_i2c.c ****   *            @arg I2C_PECPosition_Current: indicates that current byte is PEC
 757:lib/chip/STM32F4xx_StdPeriph_Driver/src/stm32f4xx_i2c.c ****   *       
 758:lib/chip/STM32F4xx_StdPeriph_Driver/src/stm32f4xx_i2c.c ****   * @note    This function configures the same bit (POS) as I2C_NACKPositionConfig()
 759:lib/chip/STM32F4xx_StdPeriph_Driver/src/stm32f4xx_i2c.c ****   *          but is intended to be used in SMBUS mode while I2C_NACKPositionConfig() 
 760:lib/chip/STM32F4xx_StdPeriph_Driver/src/stm32f4xx_i2c.c ****   *          is intended to used in I2C mode.
 761:lib/chip/STM32F4xx_StdPeriph_Driver/src/stm32f4xx_i2c.c ****   *                
 762:lib/chip/STM32F4xx_StdPeriph_Driver/src/stm32f4xx_i2c.c ****   * @retval None
 763:lib/chip/STM32F4xx_StdPeriph_Driver/src/stm32f4xx_i2c.c ****   */
 764:lib/chip/STM32F4xx_StdPeriph_Driver/src/stm32f4xx_i2c.c **** void I2C_PECPositionConfig(I2C_TypeDef* I2Cx, uint16_t I2C_PECPosition)
 765:lib/chip/STM32F4xx_StdPeriph_Driver/src/stm32f4xx_i2c.c **** {
 2033              		.loc 1 765 0
 2034              		.cfi_startproc
 2035              		@ args = 0, pretend = 0, frame = 8
 2036              		@ frame_needed = 1, uses_anonymous_args = 0
 2037 0000 80B5     		push	{r7, lr}
 2038              	.LCFI60:
 2039              		.cfi_def_cfa_offset 8
 2040              		.cfi_offset 7, -8
 2041              		.cfi_offset 14, -4
 2042 0002 82B0     		sub	sp, sp, #8
 2043              	.LCFI61:
 2044              		.cfi_def_cfa_offset 16
 2045 0004 00AF     		add	r7, sp, #0
 2046              	.LCFI62:
 2047              		.cfi_def_cfa_register 7
 2048 0006 7860     		str	r0, [r7, #4]
 2049 0008 0B46     		mov	r3, r1
 2050 000a 7B80     		strh	r3, [r7, #2]	@ movhi
 766:lib/chip/STM32F4xx_StdPeriph_Driver/src/stm32f4xx_i2c.c ****   /* Check the parameters */
 767:lib/chip/STM32F4xx_StdPeriph_Driver/src/stm32f4xx_i2c.c ****   assert_param(IS_I2C_ALL_PERIPH(I2Cx));
 2051              		.loc 1 767 0
 2052 000c 7A68     		ldr	r2, [r7, #4]
 2053 000e 4FF4A843 		mov	r3, #21504
 2054 0012 C4F20003 		movt	r3, 16384
 2055 0016 9A42     		cmp	r2, r3
 2056 0018 15D0     		beq	.L100
 2057              		.loc 1 767 0 is_stmt 0 discriminator 1
 2058 001a 7A68     		ldr	r2, [r7, #4]
 2059 001c 4FF4B043 		mov	r3, #22528
 2060 0020 C4F20003 		movt	r3, 16384
 2061 0024 9A42     		cmp	r2, r3
 2062 0026 0ED0     		beq	.L100
 2063 0028 7A68     		ldr	r2, [r7, #4]
 2064 002a 4FF4B843 		mov	r3, #23552
 2065 002e C4F20003 		movt	r3, 16384
 2066 0032 9A42     		cmp	r2, r3
 2067 0034 07D0     		beq	.L100
 2068 0036 40F20000 		movw	r0, #:lower16:.LC0
 2069 003a C0F20000 		movt	r0, #:upper16:.LC0
 2070 003e 40F2FF21 		movw	r1, #767
 2071 0042 FFF7FEFF 		bl	assert_failed
 2072              	.L100:
 768:lib/chip/STM32F4xx_StdPeriph_Driver/src/stm32f4xx_i2c.c ****   assert_param(IS_I2C_PEC_POSITION(I2C_PECPosition));
 2073              		.loc 1 768 0 is_stmt 1
 2074 0046 7B88     		ldrh	r3, [r7, #2]
 2075 0048 B3F5006F 		cmp	r3, #2048
 2076 004c 0CD0     		beq	.L101
 2077              		.loc 1 768 0 is_stmt 0 discriminator 1
 2078 004e 7A88     		ldrh	r2, [r7, #2]
 2079 0050 4FF2FF73 		movw	r3, #63487
 2080 0054 9A42     		cmp	r2, r3
 2081 0056 07D0     		beq	.L101
 2082 0058 40F20000 		movw	r0, #:lower16:.LC0
 2083 005c C0F20000 		movt	r0, #:upper16:.LC0
 2084 0060 4FF44071 		mov	r1, #768
 2085 0064 FFF7FEFF 		bl	assert_failed
 2086              	.L101:
 769:lib/chip/STM32F4xx_StdPeriph_Driver/src/stm32f4xx_i2c.c ****   if (I2C_PECPosition == I2C_PECPosition_Next)
 2087              		.loc 1 769 0 is_stmt 1
 2088 0068 7B88     		ldrh	r3, [r7, #2]
 2089 006a B3F5006F 		cmp	r3, #2048
 2090 006e 08D1     		bne	.L102
 770:lib/chip/STM32F4xx_StdPeriph_Driver/src/stm32f4xx_i2c.c ****   {
 771:lib/chip/STM32F4xx_StdPeriph_Driver/src/stm32f4xx_i2c.c ****     /* Next byte in shift register is PEC */
 772:lib/chip/STM32F4xx_StdPeriph_Driver/src/stm32f4xx_i2c.c ****     I2Cx->CR1 |= I2C_PECPosition_Next;
 2091              		.loc 1 772 0
 2092 0070 7B68     		ldr	r3, [r7, #4]
 2093 0072 1B88     		ldrh	r3, [r3]	@ movhi
 2094 0074 9BB2     		uxth	r3, r3
 2095 0076 43F40063 		orr	r3, r3, #2048
 2096 007a 9AB2     		uxth	r2, r3
 2097 007c 7B68     		ldr	r3, [r7, #4]
 2098 007e 1A80     		strh	r2, [r3]	@ movhi
 2099 0080 07E0     		b	.L99
 2100              	.L102:
 773:lib/chip/STM32F4xx_StdPeriph_Driver/src/stm32f4xx_i2c.c ****   }
 774:lib/chip/STM32F4xx_StdPeriph_Driver/src/stm32f4xx_i2c.c ****   else
 775:lib/chip/STM32F4xx_StdPeriph_Driver/src/stm32f4xx_i2c.c ****   {
 776:lib/chip/STM32F4xx_StdPeriph_Driver/src/stm32f4xx_i2c.c ****     /* Current byte in shift register is PEC */
 777:lib/chip/STM32F4xx_StdPeriph_Driver/src/stm32f4xx_i2c.c ****     I2Cx->CR1 &= I2C_PECPosition_Current;
 2101              		.loc 1 777 0
 2102 0082 7B68     		ldr	r3, [r7, #4]
 2103 0084 1B88     		ldrh	r3, [r3]	@ movhi
 2104 0086 9BB2     		uxth	r3, r3
 2105 0088 23F40063 		bic	r3, r3, #2048
 2106 008c 9AB2     		uxth	r2, r3
 2107 008e 7B68     		ldr	r3, [r7, #4]
 2108 0090 1A80     		strh	r2, [r3]	@ movhi
 2109              	.L99:
 778:lib/chip/STM32F4xx_StdPeriph_Driver/src/stm32f4xx_i2c.c ****   }
 779:lib/chip/STM32F4xx_StdPeriph_Driver/src/stm32f4xx_i2c.c **** }
 2110              		.loc 1 779 0
 2111 0092 0837     		adds	r7, r7, #8
 2112 0094 BD46     		mov	sp, r7
 2113              		@ sp needed
 2114 0096 80BD     		pop	{r7, pc}
 2115              		.cfi_endproc
 2116              	.LFE130:
 2118              		.section	.text.I2C_CalculatePEC,"ax",%progbits
 2119              		.align	2
 2120              		.global	I2C_CalculatePEC
 2121              		.thumb
 2122              		.thumb_func
 2124              	I2C_CalculatePEC:
 2125              	.LFB131:
 780:lib/chip/STM32F4xx_StdPeriph_Driver/src/stm32f4xx_i2c.c **** 
 781:lib/chip/STM32F4xx_StdPeriph_Driver/src/stm32f4xx_i2c.c **** /**
 782:lib/chip/STM32F4xx_StdPeriph_Driver/src/stm32f4xx_i2c.c ****   * @brief  Enables or disables the PEC value calculation of the transferred bytes.
 783:lib/chip/STM32F4xx_StdPeriph_Driver/src/stm32f4xx_i2c.c ****   * @param  I2Cx: where x can be 1, 2 or 3 to select the I2C peripheral.
 784:lib/chip/STM32F4xx_StdPeriph_Driver/src/stm32f4xx_i2c.c ****   * @param  NewState: new state of the I2Cx PEC value calculation.
 785:lib/chip/STM32F4xx_StdPeriph_Driver/src/stm32f4xx_i2c.c ****   *          This parameter can be: ENABLE or DISABLE.
 786:lib/chip/STM32F4xx_StdPeriph_Driver/src/stm32f4xx_i2c.c ****   * @retval None
 787:lib/chip/STM32F4xx_StdPeriph_Driver/src/stm32f4xx_i2c.c ****   */
 788:lib/chip/STM32F4xx_StdPeriph_Driver/src/stm32f4xx_i2c.c **** void I2C_CalculatePEC(I2C_TypeDef* I2Cx, FunctionalState NewState)
 789:lib/chip/STM32F4xx_StdPeriph_Driver/src/stm32f4xx_i2c.c **** {
 2126              		.loc 1 789 0
 2127              		.cfi_startproc
 2128              		@ args = 0, pretend = 0, frame = 8
 2129              		@ frame_needed = 1, uses_anonymous_args = 0
 2130 0000 80B5     		push	{r7, lr}
 2131              	.LCFI63:
 2132              		.cfi_def_cfa_offset 8
 2133              		.cfi_offset 7, -8
 2134              		.cfi_offset 14, -4
 2135 0002 82B0     		sub	sp, sp, #8
 2136              	.LCFI64:
 2137              		.cfi_def_cfa_offset 16
 2138 0004 00AF     		add	r7, sp, #0
 2139              	.LCFI65:
 2140              		.cfi_def_cfa_register 7
 2141 0006 7860     		str	r0, [r7, #4]
 2142 0008 0B46     		mov	r3, r1
 2143 000a FB70     		strb	r3, [r7, #3]
 790:lib/chip/STM32F4xx_StdPeriph_Driver/src/stm32f4xx_i2c.c ****   /* Check the parameters */
 791:lib/chip/STM32F4xx_StdPeriph_Driver/src/stm32f4xx_i2c.c ****   assert_param(IS_I2C_ALL_PERIPH(I2Cx));
 2144              		.loc 1 791 0
 2145 000c 7A68     		ldr	r2, [r7, #4]
 2146 000e 4FF4A843 		mov	r3, #21504
 2147 0012 C4F20003 		movt	r3, 16384
 2148 0016 9A42     		cmp	r2, r3
 2149 0018 15D0     		beq	.L105
 2150              		.loc 1 791 0 is_stmt 0 discriminator 1
 2151 001a 7A68     		ldr	r2, [r7, #4]
 2152 001c 4FF4B043 		mov	r3, #22528
 2153 0020 C4F20003 		movt	r3, 16384
 2154 0024 9A42     		cmp	r2, r3
 2155 0026 0ED0     		beq	.L105
 2156 0028 7A68     		ldr	r2, [r7, #4]
 2157 002a 4FF4B843 		mov	r3, #23552
 2158 002e C4F20003 		movt	r3, 16384
 2159 0032 9A42     		cmp	r2, r3
 2160 0034 07D0     		beq	.L105
 2161 0036 40F20000 		movw	r0, #:lower16:.LC0
 2162 003a C0F20000 		movt	r0, #:upper16:.LC0
 2163 003e 40F21731 		movw	r1, #791
 2164 0042 FFF7FEFF 		bl	assert_failed
 2165              	.L105:
 792:lib/chip/STM32F4xx_StdPeriph_Driver/src/stm32f4xx_i2c.c ****   assert_param(IS_FUNCTIONAL_STATE(NewState));
 2166              		.loc 1 792 0 is_stmt 1
 2167 0046 FB78     		ldrb	r3, [r7, #3]	@ zero_extendqisi2
 2168 0048 002B     		cmp	r3, #0
 2169 004a 0AD0     		beq	.L106
 2170              		.loc 1 792 0 is_stmt 0 discriminator 1
 2171 004c FB78     		ldrb	r3, [r7, #3]	@ zero_extendqisi2
 2172 004e 012B     		cmp	r3, #1
 2173 0050 07D0     		beq	.L106
 2174 0052 40F20000 		movw	r0, #:lower16:.LC0
 2175 0056 C0F20000 		movt	r0, #:upper16:.LC0
 2176 005a 4FF44671 		mov	r1, #792
 2177 005e FFF7FEFF 		bl	assert_failed
 2178              	.L106:
 793:lib/chip/STM32F4xx_StdPeriph_Driver/src/stm32f4xx_i2c.c ****   if (NewState != DISABLE)
 2179              		.loc 1 793 0 is_stmt 1
 2180 0062 FB78     		ldrb	r3, [r7, #3]	@ zero_extendqisi2
 2181 0064 002B     		cmp	r3, #0
 2182 0066 08D0     		beq	.L107
 794:lib/chip/STM32F4xx_StdPeriph_Driver/src/stm32f4xx_i2c.c ****   {
 795:lib/chip/STM32F4xx_StdPeriph_Driver/src/stm32f4xx_i2c.c ****     /* Enable the selected I2C PEC calculation */
 796:lib/chip/STM32F4xx_StdPeriph_Driver/src/stm32f4xx_i2c.c ****     I2Cx->CR1 |= I2C_CR1_ENPEC;
 2183              		.loc 1 796 0
 2184 0068 7B68     		ldr	r3, [r7, #4]
 2185 006a 1B88     		ldrh	r3, [r3]	@ movhi
 2186 006c 9BB2     		uxth	r3, r3
 2187 006e 43F02003 		orr	r3, r3, #32
 2188 0072 9AB2     		uxth	r2, r3
 2189 0074 7B68     		ldr	r3, [r7, #4]
 2190 0076 1A80     		strh	r2, [r3]	@ movhi
 2191 0078 07E0     		b	.L104
 2192              	.L107:
 797:lib/chip/STM32F4xx_StdPeriph_Driver/src/stm32f4xx_i2c.c ****   }
 798:lib/chip/STM32F4xx_StdPeriph_Driver/src/stm32f4xx_i2c.c ****   else
 799:lib/chip/STM32F4xx_StdPeriph_Driver/src/stm32f4xx_i2c.c ****   {
 800:lib/chip/STM32F4xx_StdPeriph_Driver/src/stm32f4xx_i2c.c ****     /* Disable the selected I2C PEC calculation */
 801:lib/chip/STM32F4xx_StdPeriph_Driver/src/stm32f4xx_i2c.c ****     I2Cx->CR1 &= (uint16_t)~((uint16_t)I2C_CR1_ENPEC);
 2193              		.loc 1 801 0
 2194 007a 7B68     		ldr	r3, [r7, #4]
 2195 007c 1B88     		ldrh	r3, [r3]	@ movhi
 2196 007e 9BB2     		uxth	r3, r3
 2197 0080 23F02003 		bic	r3, r3, #32
 2198 0084 9AB2     		uxth	r2, r3
 2199 0086 7B68     		ldr	r3, [r7, #4]
 2200 0088 1A80     		strh	r2, [r3]	@ movhi
 2201              	.L104:
 802:lib/chip/STM32F4xx_StdPeriph_Driver/src/stm32f4xx_i2c.c ****   }
 803:lib/chip/STM32F4xx_StdPeriph_Driver/src/stm32f4xx_i2c.c **** }
 2202              		.loc 1 803 0
 2203 008a 0837     		adds	r7, r7, #8
 2204 008c BD46     		mov	sp, r7
 2205              		@ sp needed
 2206 008e 80BD     		pop	{r7, pc}
 2207              		.cfi_endproc
 2208              	.LFE131:
 2210              		.section	.text.I2C_GetPEC,"ax",%progbits
 2211              		.align	2
 2212              		.global	I2C_GetPEC
 2213              		.thumb
 2214              		.thumb_func
 2216              	I2C_GetPEC:
 2217              	.LFB132:
 804:lib/chip/STM32F4xx_StdPeriph_Driver/src/stm32f4xx_i2c.c **** 
 805:lib/chip/STM32F4xx_StdPeriph_Driver/src/stm32f4xx_i2c.c **** /**
 806:lib/chip/STM32F4xx_StdPeriph_Driver/src/stm32f4xx_i2c.c ****   * @brief  Returns the PEC value for the specified I2C.
 807:lib/chip/STM32F4xx_StdPeriph_Driver/src/stm32f4xx_i2c.c ****   * @param  I2Cx: where x can be 1, 2 or 3 to select the I2C peripheral.
 808:lib/chip/STM32F4xx_StdPeriph_Driver/src/stm32f4xx_i2c.c ****   * @retval The PEC value.
 809:lib/chip/STM32F4xx_StdPeriph_Driver/src/stm32f4xx_i2c.c ****   */
 810:lib/chip/STM32F4xx_StdPeriph_Driver/src/stm32f4xx_i2c.c **** uint8_t I2C_GetPEC(I2C_TypeDef* I2Cx)
 811:lib/chip/STM32F4xx_StdPeriph_Driver/src/stm32f4xx_i2c.c **** {
 2218              		.loc 1 811 0
 2219              		.cfi_startproc
 2220              		@ args = 0, pretend = 0, frame = 8
 2221              		@ frame_needed = 1, uses_anonymous_args = 0
 2222 0000 80B5     		push	{r7, lr}
 2223              	.LCFI66:
 2224              		.cfi_def_cfa_offset 8
 2225              		.cfi_offset 7, -8
 2226              		.cfi_offset 14, -4
 2227 0002 82B0     		sub	sp, sp, #8
 2228              	.LCFI67:
 2229              		.cfi_def_cfa_offset 16
 2230 0004 00AF     		add	r7, sp, #0
 2231              	.LCFI68:
 2232              		.cfi_def_cfa_register 7
 2233 0006 7860     		str	r0, [r7, #4]
 812:lib/chip/STM32F4xx_StdPeriph_Driver/src/stm32f4xx_i2c.c ****   /* Check the parameters */
 813:lib/chip/STM32F4xx_StdPeriph_Driver/src/stm32f4xx_i2c.c ****   assert_param(IS_I2C_ALL_PERIPH(I2Cx));
 2234              		.loc 1 813 0
 2235 0008 7A68     		ldr	r2, [r7, #4]
 2236 000a 4FF4A843 		mov	r3, #21504
 2237 000e C4F20003 		movt	r3, 16384
 2238 0012 9A42     		cmp	r2, r3
 2239 0014 15D0     		beq	.L110
 2240              		.loc 1 813 0 is_stmt 0 discriminator 1
 2241 0016 7A68     		ldr	r2, [r7, #4]
 2242 0018 4FF4B043 		mov	r3, #22528
 2243 001c C4F20003 		movt	r3, 16384
 2244 0020 9A42     		cmp	r2, r3
 2245 0022 0ED0     		beq	.L110
 2246 0024 7A68     		ldr	r2, [r7, #4]
 2247 0026 4FF4B843 		mov	r3, #23552
 2248 002a C4F20003 		movt	r3, 16384
 2249 002e 9A42     		cmp	r2, r3
 2250 0030 07D0     		beq	.L110
 2251 0032 40F20000 		movw	r0, #:lower16:.LC0
 2252 0036 C0F20000 		movt	r0, #:upper16:.LC0
 2253 003a 40F22D31 		movw	r1, #813
 2254 003e FFF7FEFF 		bl	assert_failed
 2255              	.L110:
 814:lib/chip/STM32F4xx_StdPeriph_Driver/src/stm32f4xx_i2c.c ****   /* Return the selected I2C PEC value */
 815:lib/chip/STM32F4xx_StdPeriph_Driver/src/stm32f4xx_i2c.c ****   return ((I2Cx->SR2) >> 8);
 2256              		.loc 1 815 0 is_stmt 1
 2257 0042 7B68     		ldr	r3, [r7, #4]
 2258 0044 1B8B     		ldrh	r3, [r3, #24]	@ movhi
 2259 0046 9BB2     		uxth	r3, r3
 2260 0048 1B0A     		lsrs	r3, r3, #8
 2261 004a 9BB2     		uxth	r3, r3
 2262 004c DBB2     		uxtb	r3, r3
 816:lib/chip/STM32F4xx_StdPeriph_Driver/src/stm32f4xx_i2c.c **** }
 2263              		.loc 1 816 0
 2264 004e 1846     		mov	r0, r3
 2265 0050 0837     		adds	r7, r7, #8
 2266 0052 BD46     		mov	sp, r7
 2267              		@ sp needed
 2268 0054 80BD     		pop	{r7, pc}
 2269              		.cfi_endproc
 2270              	.LFE132:
 2272 0056 00BF     		.section	.text.I2C_DMACmd,"ax",%progbits
 2273              		.align	2
 2274              		.global	I2C_DMACmd
 2275              		.thumb
 2276              		.thumb_func
 2278              	I2C_DMACmd:
 2279              	.LFB133:
 817:lib/chip/STM32F4xx_StdPeriph_Driver/src/stm32f4xx_i2c.c **** 
 818:lib/chip/STM32F4xx_StdPeriph_Driver/src/stm32f4xx_i2c.c **** /**
 819:lib/chip/STM32F4xx_StdPeriph_Driver/src/stm32f4xx_i2c.c ****   * @}
 820:lib/chip/STM32F4xx_StdPeriph_Driver/src/stm32f4xx_i2c.c ****   */
 821:lib/chip/STM32F4xx_StdPeriph_Driver/src/stm32f4xx_i2c.c **** 
 822:lib/chip/STM32F4xx_StdPeriph_Driver/src/stm32f4xx_i2c.c **** /** @defgroup I2C_Group4 DMA transfers management functions
 823:lib/chip/STM32F4xx_StdPeriph_Driver/src/stm32f4xx_i2c.c ****  *  @brief   DMA transfers management functions 
 824:lib/chip/STM32F4xx_StdPeriph_Driver/src/stm32f4xx_i2c.c ****  *
 825:lib/chip/STM32F4xx_StdPeriph_Driver/src/stm32f4xx_i2c.c **** @verbatim   
 826:lib/chip/STM32F4xx_StdPeriph_Driver/src/stm32f4xx_i2c.c ****  ===============================================================================
 827:lib/chip/STM32F4xx_StdPeriph_Driver/src/stm32f4xx_i2c.c ****                          DMA transfers management functions
 828:lib/chip/STM32F4xx_StdPeriph_Driver/src/stm32f4xx_i2c.c ****  ===============================================================================  
 829:lib/chip/STM32F4xx_StdPeriph_Driver/src/stm32f4xx_i2c.c ****   This section provides functions allowing to configure the I2C DMA channels 
 830:lib/chip/STM32F4xx_StdPeriph_Driver/src/stm32f4xx_i2c.c ****   requests.
 831:lib/chip/STM32F4xx_StdPeriph_Driver/src/stm32f4xx_i2c.c ****   
 832:lib/chip/STM32F4xx_StdPeriph_Driver/src/stm32f4xx_i2c.c **** @endverbatim
 833:lib/chip/STM32F4xx_StdPeriph_Driver/src/stm32f4xx_i2c.c ****   * @{
 834:lib/chip/STM32F4xx_StdPeriph_Driver/src/stm32f4xx_i2c.c ****   */
 835:lib/chip/STM32F4xx_StdPeriph_Driver/src/stm32f4xx_i2c.c **** 
 836:lib/chip/STM32F4xx_StdPeriph_Driver/src/stm32f4xx_i2c.c **** /**
 837:lib/chip/STM32F4xx_StdPeriph_Driver/src/stm32f4xx_i2c.c ****   * @brief  Enables or disables the specified I2C DMA requests.
 838:lib/chip/STM32F4xx_StdPeriph_Driver/src/stm32f4xx_i2c.c ****   * @param  I2Cx: where x can be 1, 2 or 3 to select the I2C peripheral.
 839:lib/chip/STM32F4xx_StdPeriph_Driver/src/stm32f4xx_i2c.c ****   * @param  NewState: new state of the I2C DMA transfer.
 840:lib/chip/STM32F4xx_StdPeriph_Driver/src/stm32f4xx_i2c.c ****   *          This parameter can be: ENABLE or DISABLE.
 841:lib/chip/STM32F4xx_StdPeriph_Driver/src/stm32f4xx_i2c.c ****   * @retval None
 842:lib/chip/STM32F4xx_StdPeriph_Driver/src/stm32f4xx_i2c.c ****   */
 843:lib/chip/STM32F4xx_StdPeriph_Driver/src/stm32f4xx_i2c.c **** void I2C_DMACmd(I2C_TypeDef* I2Cx, FunctionalState NewState)
 844:lib/chip/STM32F4xx_StdPeriph_Driver/src/stm32f4xx_i2c.c **** {
 2280              		.loc 1 844 0
 2281              		.cfi_startproc
 2282              		@ args = 0, pretend = 0, frame = 8
 2283              		@ frame_needed = 1, uses_anonymous_args = 0
 2284 0000 80B5     		push	{r7, lr}
 2285              	.LCFI69:
 2286              		.cfi_def_cfa_offset 8
 2287              		.cfi_offset 7, -8
 2288              		.cfi_offset 14, -4
 2289 0002 82B0     		sub	sp, sp, #8
 2290              	.LCFI70:
 2291              		.cfi_def_cfa_offset 16
 2292 0004 00AF     		add	r7, sp, #0
 2293              	.LCFI71:
 2294              		.cfi_def_cfa_register 7
 2295 0006 7860     		str	r0, [r7, #4]
 2296 0008 0B46     		mov	r3, r1
 2297 000a FB70     		strb	r3, [r7, #3]
 845:lib/chip/STM32F4xx_StdPeriph_Driver/src/stm32f4xx_i2c.c ****   /* Check the parameters */
 846:lib/chip/STM32F4xx_StdPeriph_Driver/src/stm32f4xx_i2c.c ****   assert_param(IS_I2C_ALL_PERIPH(I2Cx));
 2298              		.loc 1 846 0
 2299 000c 7A68     		ldr	r2, [r7, #4]
 2300 000e 4FF4A843 		mov	r3, #21504
 2301 0012 C4F20003 		movt	r3, 16384
 2302 0016 9A42     		cmp	r2, r3
 2303 0018 15D0     		beq	.L113
 2304              		.loc 1 846 0 is_stmt 0 discriminator 1
 2305 001a 7A68     		ldr	r2, [r7, #4]
 2306 001c 4FF4B043 		mov	r3, #22528
 2307 0020 C4F20003 		movt	r3, 16384
 2308 0024 9A42     		cmp	r2, r3
 2309 0026 0ED0     		beq	.L113
 2310 0028 7A68     		ldr	r2, [r7, #4]
 2311 002a 4FF4B843 		mov	r3, #23552
 2312 002e C4F20003 		movt	r3, 16384
 2313 0032 9A42     		cmp	r2, r3
 2314 0034 07D0     		beq	.L113
 2315 0036 40F20000 		movw	r0, #:lower16:.LC0
 2316 003a C0F20000 		movt	r0, #:upper16:.LC0
 2317 003e 40F24E31 		movw	r1, #846
 2318 0042 FFF7FEFF 		bl	assert_failed
 2319              	.L113:
 847:lib/chip/STM32F4xx_StdPeriph_Driver/src/stm32f4xx_i2c.c ****   assert_param(IS_FUNCTIONAL_STATE(NewState));
 2320              		.loc 1 847 0 is_stmt 1
 2321 0046 FB78     		ldrb	r3, [r7, #3]	@ zero_extendqisi2
 2322 0048 002B     		cmp	r3, #0
 2323 004a 0AD0     		beq	.L114
 2324              		.loc 1 847 0 is_stmt 0 discriminator 1
 2325 004c FB78     		ldrb	r3, [r7, #3]	@ zero_extendqisi2
 2326 004e 012B     		cmp	r3, #1
 2327 0050 07D0     		beq	.L114
 2328 0052 40F20000 		movw	r0, #:lower16:.LC0
 2329 0056 C0F20000 		movt	r0, #:upper16:.LC0
 2330 005a 40F24F31 		movw	r1, #847
 2331 005e FFF7FEFF 		bl	assert_failed
 2332              	.L114:
 848:lib/chip/STM32F4xx_StdPeriph_Driver/src/stm32f4xx_i2c.c ****   if (NewState != DISABLE)
 2333              		.loc 1 848 0 is_stmt 1
 2334 0062 FB78     		ldrb	r3, [r7, #3]	@ zero_extendqisi2
 2335 0064 002B     		cmp	r3, #0
 2336 0066 08D0     		beq	.L115
 849:lib/chip/STM32F4xx_StdPeriph_Driver/src/stm32f4xx_i2c.c ****   {
 850:lib/chip/STM32F4xx_StdPeriph_Driver/src/stm32f4xx_i2c.c ****     /* Enable the selected I2C DMA requests */
 851:lib/chip/STM32F4xx_StdPeriph_Driver/src/stm32f4xx_i2c.c ****     I2Cx->CR2 |= I2C_CR2_DMAEN;
 2337              		.loc 1 851 0
 2338 0068 7B68     		ldr	r3, [r7, #4]
 2339 006a 9B88     		ldrh	r3, [r3, #4]	@ movhi
 2340 006c 9BB2     		uxth	r3, r3
 2341 006e 43F40063 		orr	r3, r3, #2048
 2342 0072 9AB2     		uxth	r2, r3
 2343 0074 7B68     		ldr	r3, [r7, #4]
 2344 0076 9A80     		strh	r2, [r3, #4]	@ movhi
 2345 0078 07E0     		b	.L112
 2346              	.L115:
 852:lib/chip/STM32F4xx_StdPeriph_Driver/src/stm32f4xx_i2c.c ****   }
 853:lib/chip/STM32F4xx_StdPeriph_Driver/src/stm32f4xx_i2c.c ****   else
 854:lib/chip/STM32F4xx_StdPeriph_Driver/src/stm32f4xx_i2c.c ****   {
 855:lib/chip/STM32F4xx_StdPeriph_Driver/src/stm32f4xx_i2c.c ****     /* Disable the selected I2C DMA requests */
 856:lib/chip/STM32F4xx_StdPeriph_Driver/src/stm32f4xx_i2c.c ****     I2Cx->CR2 &= (uint16_t)~((uint16_t)I2C_CR2_DMAEN);
 2347              		.loc 1 856 0
 2348 007a 7B68     		ldr	r3, [r7, #4]
 2349 007c 9B88     		ldrh	r3, [r3, #4]	@ movhi
 2350 007e 9BB2     		uxth	r3, r3
 2351 0080 23F40063 		bic	r3, r3, #2048
 2352 0084 9AB2     		uxth	r2, r3
 2353 0086 7B68     		ldr	r3, [r7, #4]
 2354 0088 9A80     		strh	r2, [r3, #4]	@ movhi
 2355              	.L112:
 857:lib/chip/STM32F4xx_StdPeriph_Driver/src/stm32f4xx_i2c.c ****   }
 858:lib/chip/STM32F4xx_StdPeriph_Driver/src/stm32f4xx_i2c.c **** }
 2356              		.loc 1 858 0
 2357 008a 0837     		adds	r7, r7, #8
 2358 008c BD46     		mov	sp, r7
 2359              		@ sp needed
 2360 008e 80BD     		pop	{r7, pc}
 2361              		.cfi_endproc
 2362              	.LFE133:
 2364              		.section	.text.I2C_DMALastTransferCmd,"ax",%progbits
 2365              		.align	2
 2366              		.global	I2C_DMALastTransferCmd
 2367              		.thumb
 2368              		.thumb_func
 2370              	I2C_DMALastTransferCmd:
 2371              	.LFB134:
 859:lib/chip/STM32F4xx_StdPeriph_Driver/src/stm32f4xx_i2c.c **** 
 860:lib/chip/STM32F4xx_StdPeriph_Driver/src/stm32f4xx_i2c.c **** /**
 861:lib/chip/STM32F4xx_StdPeriph_Driver/src/stm32f4xx_i2c.c ****   * @brief  Specifies that the next DMA transfer is the last one.
 862:lib/chip/STM32F4xx_StdPeriph_Driver/src/stm32f4xx_i2c.c ****   * @param  I2Cx: where x can be 1, 2 or 3 to select the I2C peripheral.
 863:lib/chip/STM32F4xx_StdPeriph_Driver/src/stm32f4xx_i2c.c ****   * @param  NewState: new state of the I2C DMA last transfer.
 864:lib/chip/STM32F4xx_StdPeriph_Driver/src/stm32f4xx_i2c.c ****   *          This parameter can be: ENABLE or DISABLE.
 865:lib/chip/STM32F4xx_StdPeriph_Driver/src/stm32f4xx_i2c.c ****   * @retval None
 866:lib/chip/STM32F4xx_StdPeriph_Driver/src/stm32f4xx_i2c.c ****   */
 867:lib/chip/STM32F4xx_StdPeriph_Driver/src/stm32f4xx_i2c.c **** void I2C_DMALastTransferCmd(I2C_TypeDef* I2Cx, FunctionalState NewState)
 868:lib/chip/STM32F4xx_StdPeriph_Driver/src/stm32f4xx_i2c.c **** {
 2372              		.loc 1 868 0
 2373              		.cfi_startproc
 2374              		@ args = 0, pretend = 0, frame = 8
 2375              		@ frame_needed = 1, uses_anonymous_args = 0
 2376 0000 80B5     		push	{r7, lr}
 2377              	.LCFI72:
 2378              		.cfi_def_cfa_offset 8
 2379              		.cfi_offset 7, -8
 2380              		.cfi_offset 14, -4
 2381 0002 82B0     		sub	sp, sp, #8
 2382              	.LCFI73:
 2383              		.cfi_def_cfa_offset 16
 2384 0004 00AF     		add	r7, sp, #0
 2385              	.LCFI74:
 2386              		.cfi_def_cfa_register 7
 2387 0006 7860     		str	r0, [r7, #4]
 2388 0008 0B46     		mov	r3, r1
 2389 000a FB70     		strb	r3, [r7, #3]
 869:lib/chip/STM32F4xx_StdPeriph_Driver/src/stm32f4xx_i2c.c ****   /* Check the parameters */
 870:lib/chip/STM32F4xx_StdPeriph_Driver/src/stm32f4xx_i2c.c ****   assert_param(IS_I2C_ALL_PERIPH(I2Cx));
 2390              		.loc 1 870 0
 2391 000c 7A68     		ldr	r2, [r7, #4]
 2392 000e 4FF4A843 		mov	r3, #21504
 2393 0012 C4F20003 		movt	r3, 16384
 2394 0016 9A42     		cmp	r2, r3
 2395 0018 15D0     		beq	.L118
 2396              		.loc 1 870 0 is_stmt 0 discriminator 1
 2397 001a 7A68     		ldr	r2, [r7, #4]
 2398 001c 4FF4B043 		mov	r3, #22528
 2399 0020 C4F20003 		movt	r3, 16384
 2400 0024 9A42     		cmp	r2, r3
 2401 0026 0ED0     		beq	.L118
 2402 0028 7A68     		ldr	r2, [r7, #4]
 2403 002a 4FF4B843 		mov	r3, #23552
 2404 002e C4F20003 		movt	r3, 16384
 2405 0032 9A42     		cmp	r2, r3
 2406 0034 07D0     		beq	.L118
 2407 0036 40F20000 		movw	r0, #:lower16:.LC0
 2408 003a C0F20000 		movt	r0, #:upper16:.LC0
 2409 003e 40F26631 		movw	r1, #870
 2410 0042 FFF7FEFF 		bl	assert_failed
 2411              	.L118:
 871:lib/chip/STM32F4xx_StdPeriph_Driver/src/stm32f4xx_i2c.c ****   assert_param(IS_FUNCTIONAL_STATE(NewState));
 2412              		.loc 1 871 0 is_stmt 1
 2413 0046 FB78     		ldrb	r3, [r7, #3]	@ zero_extendqisi2
 2414 0048 002B     		cmp	r3, #0
 2415 004a 0AD0     		beq	.L119
 2416              		.loc 1 871 0 is_stmt 0 discriminator 1
 2417 004c FB78     		ldrb	r3, [r7, #3]	@ zero_extendqisi2
 2418 004e 012B     		cmp	r3, #1
 2419 0050 07D0     		beq	.L119
 2420 0052 40F20000 		movw	r0, #:lower16:.LC0
 2421 0056 C0F20000 		movt	r0, #:upper16:.LC0
 2422 005a 40F26731 		movw	r1, #871
 2423 005e FFF7FEFF 		bl	assert_failed
 2424              	.L119:
 872:lib/chip/STM32F4xx_StdPeriph_Driver/src/stm32f4xx_i2c.c ****   if (NewState != DISABLE)
 2425              		.loc 1 872 0 is_stmt 1
 2426 0062 FB78     		ldrb	r3, [r7, #3]	@ zero_extendqisi2
 2427 0064 002B     		cmp	r3, #0
 2428 0066 08D0     		beq	.L120
 873:lib/chip/STM32F4xx_StdPeriph_Driver/src/stm32f4xx_i2c.c ****   {
 874:lib/chip/STM32F4xx_StdPeriph_Driver/src/stm32f4xx_i2c.c ****     /* Next DMA transfer is the last transfer */
 875:lib/chip/STM32F4xx_StdPeriph_Driver/src/stm32f4xx_i2c.c ****     I2Cx->CR2 |= I2C_CR2_LAST;
 2429              		.loc 1 875 0
 2430 0068 7B68     		ldr	r3, [r7, #4]
 2431 006a 9B88     		ldrh	r3, [r3, #4]	@ movhi
 2432 006c 9BB2     		uxth	r3, r3
 2433 006e 43F48053 		orr	r3, r3, #4096
 2434 0072 9AB2     		uxth	r2, r3
 2435 0074 7B68     		ldr	r3, [r7, #4]
 2436 0076 9A80     		strh	r2, [r3, #4]	@ movhi
 2437 0078 07E0     		b	.L117
 2438              	.L120:
 876:lib/chip/STM32F4xx_StdPeriph_Driver/src/stm32f4xx_i2c.c ****   }
 877:lib/chip/STM32F4xx_StdPeriph_Driver/src/stm32f4xx_i2c.c ****   else
 878:lib/chip/STM32F4xx_StdPeriph_Driver/src/stm32f4xx_i2c.c ****   {
 879:lib/chip/STM32F4xx_StdPeriph_Driver/src/stm32f4xx_i2c.c ****     /* Next DMA transfer is not the last transfer */
 880:lib/chip/STM32F4xx_StdPeriph_Driver/src/stm32f4xx_i2c.c ****     I2Cx->CR2 &= (uint16_t)~((uint16_t)I2C_CR2_LAST);
 2439              		.loc 1 880 0
 2440 007a 7B68     		ldr	r3, [r7, #4]
 2441 007c 9B88     		ldrh	r3, [r3, #4]	@ movhi
 2442 007e 9BB2     		uxth	r3, r3
 2443 0080 23F48053 		bic	r3, r3, #4096
 2444 0084 9AB2     		uxth	r2, r3
 2445 0086 7B68     		ldr	r3, [r7, #4]
 2446 0088 9A80     		strh	r2, [r3, #4]	@ movhi
 2447              	.L117:
 881:lib/chip/STM32F4xx_StdPeriph_Driver/src/stm32f4xx_i2c.c ****   }
 882:lib/chip/STM32F4xx_StdPeriph_Driver/src/stm32f4xx_i2c.c **** }
 2448              		.loc 1 882 0
 2449 008a 0837     		adds	r7, r7, #8
 2450 008c BD46     		mov	sp, r7
 2451              		@ sp needed
 2452 008e 80BD     		pop	{r7, pc}
 2453              		.cfi_endproc
 2454              	.LFE134:
 2456              		.section	.text.I2C_ReadRegister,"ax",%progbits
 2457              		.align	2
 2458              		.global	I2C_ReadRegister
 2459              		.thumb
 2460              		.thumb_func
 2462              	I2C_ReadRegister:
 2463              	.LFB135:
 883:lib/chip/STM32F4xx_StdPeriph_Driver/src/stm32f4xx_i2c.c **** 
 884:lib/chip/STM32F4xx_StdPeriph_Driver/src/stm32f4xx_i2c.c **** /**
 885:lib/chip/STM32F4xx_StdPeriph_Driver/src/stm32f4xx_i2c.c ****   * @}
 886:lib/chip/STM32F4xx_StdPeriph_Driver/src/stm32f4xx_i2c.c ****   */
 887:lib/chip/STM32F4xx_StdPeriph_Driver/src/stm32f4xx_i2c.c **** 
 888:lib/chip/STM32F4xx_StdPeriph_Driver/src/stm32f4xx_i2c.c **** /** @defgroup I2C_Group5 Interrupts events and flags management functions
 889:lib/chip/STM32F4xx_StdPeriph_Driver/src/stm32f4xx_i2c.c ****  *  @brief   Interrupts, events and flags management functions
 890:lib/chip/STM32F4xx_StdPeriph_Driver/src/stm32f4xx_i2c.c ****  *
 891:lib/chip/STM32F4xx_StdPeriph_Driver/src/stm32f4xx_i2c.c **** @verbatim   
 892:lib/chip/STM32F4xx_StdPeriph_Driver/src/stm32f4xx_i2c.c ****  ===============================================================================
 893:lib/chip/STM32F4xx_StdPeriph_Driver/src/stm32f4xx_i2c.c ****                 Interrupts, events and flags management functions
 894:lib/chip/STM32F4xx_StdPeriph_Driver/src/stm32f4xx_i2c.c ****  ===============================================================================  
 895:lib/chip/STM32F4xx_StdPeriph_Driver/src/stm32f4xx_i2c.c ****   This section provides functions allowing to configure the I2C Interrupts 
 896:lib/chip/STM32F4xx_StdPeriph_Driver/src/stm32f4xx_i2c.c ****   sources and check or clear the flags or pending bits status.
 897:lib/chip/STM32F4xx_StdPeriph_Driver/src/stm32f4xx_i2c.c ****   The user should identify which mode will be used in his application to manage 
 898:lib/chip/STM32F4xx_StdPeriph_Driver/src/stm32f4xx_i2c.c ****   the communication: Polling mode, Interrupt mode or DMA mode. 
 899:lib/chip/STM32F4xx_StdPeriph_Driver/src/stm32f4xx_i2c.c **** 
 900:lib/chip/STM32F4xx_StdPeriph_Driver/src/stm32f4xx_i2c.c ****  ===============================================================================
 901:lib/chip/STM32F4xx_StdPeriph_Driver/src/stm32f4xx_i2c.c ****                           I2C State Monitoring Functions                    
 902:lib/chip/STM32F4xx_StdPeriph_Driver/src/stm32f4xx_i2c.c ****  ===============================================================================   
 903:lib/chip/STM32F4xx_StdPeriph_Driver/src/stm32f4xx_i2c.c ****   This I2C driver provides three different ways for I2C state monitoring
 904:lib/chip/STM32F4xx_StdPeriph_Driver/src/stm32f4xx_i2c.c ****   depending on the application requirements and constraints:
 905:lib/chip/STM32F4xx_StdPeriph_Driver/src/stm32f4xx_i2c.c ****          
 906:lib/chip/STM32F4xx_StdPeriph_Driver/src/stm32f4xx_i2c.c ****    
 907:lib/chip/STM32F4xx_StdPeriph_Driver/src/stm32f4xx_i2c.c ****      1. Basic state monitoring (Using I2C_CheckEvent() function)
 908:lib/chip/STM32F4xx_StdPeriph_Driver/src/stm32f4xx_i2c.c ****      -----------------------------------------------------------
 909:lib/chip/STM32F4xx_StdPeriph_Driver/src/stm32f4xx_i2c.c ****         It compares the status registers (SR1 and SR2) content to a given event
 910:lib/chip/STM32F4xx_StdPeriph_Driver/src/stm32f4xx_i2c.c ****         (can be the combination of one or more flags).
 911:lib/chip/STM32F4xx_StdPeriph_Driver/src/stm32f4xx_i2c.c ****         It returns SUCCESS if the current status includes the given flags 
 912:lib/chip/STM32F4xx_StdPeriph_Driver/src/stm32f4xx_i2c.c ****         and returns ERROR if one or more flags are missing in the current status.
 913:lib/chip/STM32F4xx_StdPeriph_Driver/src/stm32f4xx_i2c.c **** 
 914:lib/chip/STM32F4xx_StdPeriph_Driver/src/stm32f4xx_i2c.c ****           - When to use
 915:lib/chip/STM32F4xx_StdPeriph_Driver/src/stm32f4xx_i2c.c ****              - This function is suitable for most applications as well as for startup 
 916:lib/chip/STM32F4xx_StdPeriph_Driver/src/stm32f4xx_i2c.c ****                activity since the events are fully described in the product reference 
 917:lib/chip/STM32F4xx_StdPeriph_Driver/src/stm32f4xx_i2c.c ****                manual (RM0090).
 918:lib/chip/STM32F4xx_StdPeriph_Driver/src/stm32f4xx_i2c.c ****              - It is also suitable for users who need to define their own events.
 919:lib/chip/STM32F4xx_StdPeriph_Driver/src/stm32f4xx_i2c.c **** 
 920:lib/chip/STM32F4xx_StdPeriph_Driver/src/stm32f4xx_i2c.c ****           - Limitations
 921:lib/chip/STM32F4xx_StdPeriph_Driver/src/stm32f4xx_i2c.c ****              - If an error occurs (ie. error flags are set besides to the monitored 
 922:lib/chip/STM32F4xx_StdPeriph_Driver/src/stm32f4xx_i2c.c ****                flags), the I2C_CheckEvent() function may return SUCCESS despite 
 923:lib/chip/STM32F4xx_StdPeriph_Driver/src/stm32f4xx_i2c.c ****                the communication hold or corrupted real state. 
 924:lib/chip/STM32F4xx_StdPeriph_Driver/src/stm32f4xx_i2c.c ****                In this case, it is advised to use error interrupts to monitor 
 925:lib/chip/STM32F4xx_StdPeriph_Driver/src/stm32f4xx_i2c.c ****                the error events and handle them in the interrupt IRQ handler.
 926:lib/chip/STM32F4xx_StdPeriph_Driver/src/stm32f4xx_i2c.c ****          
 927:lib/chip/STM32F4xx_StdPeriph_Driver/src/stm32f4xx_i2c.c ****      @note 
 928:lib/chip/STM32F4xx_StdPeriph_Driver/src/stm32f4xx_i2c.c ****          For error management, it is advised to use the following functions:
 929:lib/chip/STM32F4xx_StdPeriph_Driver/src/stm32f4xx_i2c.c ****            - I2C_ITConfig() to configure and enable the error interrupts (I2C_IT_ERR).
 930:lib/chip/STM32F4xx_StdPeriph_Driver/src/stm32f4xx_i2c.c ****            - I2Cx_ER_IRQHandler() which is called when the error interrupt occurs.
 931:lib/chip/STM32F4xx_StdPeriph_Driver/src/stm32f4xx_i2c.c ****              Where x is the peripheral instance (I2C1, I2C2 ...)
 932:lib/chip/STM32F4xx_StdPeriph_Driver/src/stm32f4xx_i2c.c ****            - I2C_GetFlagStatus() or I2C_GetITStatus()  to be called into the 
 933:lib/chip/STM32F4xx_StdPeriph_Driver/src/stm32f4xx_i2c.c ****              I2Cx_ER_IRQHandler() function in order to determine which error occurred.
 934:lib/chip/STM32F4xx_StdPeriph_Driver/src/stm32f4xx_i2c.c ****            - I2C_ClearFlag() or I2C_ClearITPendingBit() and/or I2C_SoftwareResetCmd() 
 935:lib/chip/STM32F4xx_StdPeriph_Driver/src/stm32f4xx_i2c.c ****              and/or I2C_GenerateStop() in order to clear the error flag and source 
 936:lib/chip/STM32F4xx_StdPeriph_Driver/src/stm32f4xx_i2c.c ****              and return to correct  communication status.
 937:lib/chip/STM32F4xx_StdPeriph_Driver/src/stm32f4xx_i2c.c ****              
 938:lib/chip/STM32F4xx_StdPeriph_Driver/src/stm32f4xx_i2c.c ****  
 939:lib/chip/STM32F4xx_StdPeriph_Driver/src/stm32f4xx_i2c.c ****      2. Advanced state monitoring (Using the function I2C_GetLastEvent())
 940:lib/chip/STM32F4xx_StdPeriph_Driver/src/stm32f4xx_i2c.c ****      -------------------------------------------------------------------- 
 941:lib/chip/STM32F4xx_StdPeriph_Driver/src/stm32f4xx_i2c.c ****         Using the function I2C_GetLastEvent() which returns the image of both status 
 942:lib/chip/STM32F4xx_StdPeriph_Driver/src/stm32f4xx_i2c.c ****         registers in a single word (uint32_t) (Status Register 2 value is shifted left 
 943:lib/chip/STM32F4xx_StdPeriph_Driver/src/stm32f4xx_i2c.c ****         by 16 bits and concatenated to Status Register 1).
 944:lib/chip/STM32F4xx_StdPeriph_Driver/src/stm32f4xx_i2c.c **** 
 945:lib/chip/STM32F4xx_StdPeriph_Driver/src/stm32f4xx_i2c.c ****           - When to use
 946:lib/chip/STM32F4xx_StdPeriph_Driver/src/stm32f4xx_i2c.c ****              - This function is suitable for the same applications above but it 
 947:lib/chip/STM32F4xx_StdPeriph_Driver/src/stm32f4xx_i2c.c ****                allows to overcome the mentioned limitation of I2C_GetFlagStatus() 
 948:lib/chip/STM32F4xx_StdPeriph_Driver/src/stm32f4xx_i2c.c ****                function.
 949:lib/chip/STM32F4xx_StdPeriph_Driver/src/stm32f4xx_i2c.c ****              - The returned value could be compared to events already defined in 
 950:lib/chip/STM32F4xx_StdPeriph_Driver/src/stm32f4xx_i2c.c ****                the library (stm32f4xx_i2c.h) or to custom values defined by user.
 951:lib/chip/STM32F4xx_StdPeriph_Driver/src/stm32f4xx_i2c.c ****                This function is suitable when multiple flags are monitored at the 
 952:lib/chip/STM32F4xx_StdPeriph_Driver/src/stm32f4xx_i2c.c ****                same time.
 953:lib/chip/STM32F4xx_StdPeriph_Driver/src/stm32f4xx_i2c.c ****              - At the opposite of I2C_CheckEvent() function, this function allows 
 954:lib/chip/STM32F4xx_StdPeriph_Driver/src/stm32f4xx_i2c.c ****                user to choose when an event is accepted (when all events flags are 
 955:lib/chip/STM32F4xx_StdPeriph_Driver/src/stm32f4xx_i2c.c ****                set and no other flags are set or just when the needed flags are set 
 956:lib/chip/STM32F4xx_StdPeriph_Driver/src/stm32f4xx_i2c.c ****                like I2C_CheckEvent() function.
 957:lib/chip/STM32F4xx_StdPeriph_Driver/src/stm32f4xx_i2c.c **** 
 958:lib/chip/STM32F4xx_StdPeriph_Driver/src/stm32f4xx_i2c.c ****           - Limitations
 959:lib/chip/STM32F4xx_StdPeriph_Driver/src/stm32f4xx_i2c.c ****              - User may need to define his own events.
 960:lib/chip/STM32F4xx_StdPeriph_Driver/src/stm32f4xx_i2c.c ****              - Same remark concerning the error management is applicable for this 
 961:lib/chip/STM32F4xx_StdPeriph_Driver/src/stm32f4xx_i2c.c ****                function if user decides to check only regular communication flags 
 962:lib/chip/STM32F4xx_StdPeriph_Driver/src/stm32f4xx_i2c.c ****                (and ignores error flags).
 963:lib/chip/STM32F4xx_StdPeriph_Driver/src/stm32f4xx_i2c.c ****       
 964:lib/chip/STM32F4xx_StdPeriph_Driver/src/stm32f4xx_i2c.c ****  
 965:lib/chip/STM32F4xx_StdPeriph_Driver/src/stm32f4xx_i2c.c ****      3. Flag-based state monitoring (Using the function I2C_GetFlagStatus())
 966:lib/chip/STM32F4xx_StdPeriph_Driver/src/stm32f4xx_i2c.c ****      -----------------------------------------------------------------------
 967:lib/chip/STM32F4xx_StdPeriph_Driver/src/stm32f4xx_i2c.c ****      
 968:lib/chip/STM32F4xx_StdPeriph_Driver/src/stm32f4xx_i2c.c ****       Using the function I2C_GetFlagStatus() which simply returns the status of 
 969:lib/chip/STM32F4xx_StdPeriph_Driver/src/stm32f4xx_i2c.c ****       one single flag (ie. I2C_FLAG_RXNE ...). 
 970:lib/chip/STM32F4xx_StdPeriph_Driver/src/stm32f4xx_i2c.c **** 
 971:lib/chip/STM32F4xx_StdPeriph_Driver/src/stm32f4xx_i2c.c ****           - When to use
 972:lib/chip/STM32F4xx_StdPeriph_Driver/src/stm32f4xx_i2c.c ****              - This function could be used for specific applications or in debug 
 973:lib/chip/STM32F4xx_StdPeriph_Driver/src/stm32f4xx_i2c.c ****                phase.
 974:lib/chip/STM32F4xx_StdPeriph_Driver/src/stm32f4xx_i2c.c ****              - It is suitable when only one flag checking is needed (most I2C 
 975:lib/chip/STM32F4xx_StdPeriph_Driver/src/stm32f4xx_i2c.c ****                events are monitored through multiple flags).
 976:lib/chip/STM32F4xx_StdPeriph_Driver/src/stm32f4xx_i2c.c ****           - Limitations: 
 977:lib/chip/STM32F4xx_StdPeriph_Driver/src/stm32f4xx_i2c.c ****              - When calling this function, the Status register is accessed. 
 978:lib/chip/STM32F4xx_StdPeriph_Driver/src/stm32f4xx_i2c.c ****                Some flags are cleared when the status register is accessed. 
 979:lib/chip/STM32F4xx_StdPeriph_Driver/src/stm32f4xx_i2c.c ****                So checking the status of one Flag, may clear other ones.
 980:lib/chip/STM32F4xx_StdPeriph_Driver/src/stm32f4xx_i2c.c ****              - Function may need to be called twice or more in order to monitor 
 981:lib/chip/STM32F4xx_StdPeriph_Driver/src/stm32f4xx_i2c.c ****                one single event.
 982:lib/chip/STM32F4xx_StdPeriph_Driver/src/stm32f4xx_i2c.c ****  
 983:lib/chip/STM32F4xx_StdPeriph_Driver/src/stm32f4xx_i2c.c ****    For detailed description of Events, please refer to section I2C_Events in 
 984:lib/chip/STM32F4xx_StdPeriph_Driver/src/stm32f4xx_i2c.c ****    stm32f4xx_i2c.h file.
 985:lib/chip/STM32F4xx_StdPeriph_Driver/src/stm32f4xx_i2c.c ****        
 986:lib/chip/STM32F4xx_StdPeriph_Driver/src/stm32f4xx_i2c.c **** @endverbatim
 987:lib/chip/STM32F4xx_StdPeriph_Driver/src/stm32f4xx_i2c.c ****   * @{
 988:lib/chip/STM32F4xx_StdPeriph_Driver/src/stm32f4xx_i2c.c ****   */
 989:lib/chip/STM32F4xx_StdPeriph_Driver/src/stm32f4xx_i2c.c ****    
 990:lib/chip/STM32F4xx_StdPeriph_Driver/src/stm32f4xx_i2c.c **** /**
 991:lib/chip/STM32F4xx_StdPeriph_Driver/src/stm32f4xx_i2c.c ****   * @brief  Reads the specified I2C register and returns its value.
 992:lib/chip/STM32F4xx_StdPeriph_Driver/src/stm32f4xx_i2c.c ****   * @param  I2C_Register: specifies the register to read.
 993:lib/chip/STM32F4xx_StdPeriph_Driver/src/stm32f4xx_i2c.c ****   *          This parameter can be one of the following values:
 994:lib/chip/STM32F4xx_StdPeriph_Driver/src/stm32f4xx_i2c.c ****   *            @arg I2C_Register_CR1:  CR1 register.
 995:lib/chip/STM32F4xx_StdPeriph_Driver/src/stm32f4xx_i2c.c ****   *            @arg I2C_Register_CR2:   CR2 register.
 996:lib/chip/STM32F4xx_StdPeriph_Driver/src/stm32f4xx_i2c.c ****   *            @arg I2C_Register_OAR1:  OAR1 register.
 997:lib/chip/STM32F4xx_StdPeriph_Driver/src/stm32f4xx_i2c.c ****   *            @arg I2C_Register_OAR2:  OAR2 register.
 998:lib/chip/STM32F4xx_StdPeriph_Driver/src/stm32f4xx_i2c.c ****   *            @arg I2C_Register_DR:    DR register.
 999:lib/chip/STM32F4xx_StdPeriph_Driver/src/stm32f4xx_i2c.c ****   *            @arg I2C_Register_SR1:   SR1 register.
1000:lib/chip/STM32F4xx_StdPeriph_Driver/src/stm32f4xx_i2c.c ****   *            @arg I2C_Register_SR2:   SR2 register.
1001:lib/chip/STM32F4xx_StdPeriph_Driver/src/stm32f4xx_i2c.c ****   *            @arg I2C_Register_CCR:   CCR register.
1002:lib/chip/STM32F4xx_StdPeriph_Driver/src/stm32f4xx_i2c.c ****   *            @arg I2C_Register_TRISE: TRISE register.
1003:lib/chip/STM32F4xx_StdPeriph_Driver/src/stm32f4xx_i2c.c ****   * @retval The value of the read register.
1004:lib/chip/STM32F4xx_StdPeriph_Driver/src/stm32f4xx_i2c.c ****   */
1005:lib/chip/STM32F4xx_StdPeriph_Driver/src/stm32f4xx_i2c.c **** uint16_t I2C_ReadRegister(I2C_TypeDef* I2Cx, uint8_t I2C_Register)
1006:lib/chip/STM32F4xx_StdPeriph_Driver/src/stm32f4xx_i2c.c **** {
 2464              		.loc 1 1006 0
 2465              		.cfi_startproc
 2466              		@ args = 0, pretend = 0, frame = 16
 2467              		@ frame_needed = 1, uses_anonymous_args = 0
 2468 0000 80B5     		push	{r7, lr}
 2469              	.LCFI75:
 2470              		.cfi_def_cfa_offset 8
 2471              		.cfi_offset 7, -8
 2472              		.cfi_offset 14, -4
 2473 0002 84B0     		sub	sp, sp, #16
 2474              	.LCFI76:
 2475              		.cfi_def_cfa_offset 24
 2476 0004 00AF     		add	r7, sp, #0
 2477              	.LCFI77:
 2478              		.cfi_def_cfa_register 7
 2479 0006 7860     		str	r0, [r7, #4]
 2480 0008 0B46     		mov	r3, r1
 2481 000a FB70     		strb	r3, [r7, #3]
1007:lib/chip/STM32F4xx_StdPeriph_Driver/src/stm32f4xx_i2c.c ****   __IO uint32_t tmp = 0;
 2482              		.loc 1 1007 0
 2483 000c 0023     		movs	r3, #0
 2484 000e FB60     		str	r3, [r7, #12]
1008:lib/chip/STM32F4xx_StdPeriph_Driver/src/stm32f4xx_i2c.c **** 
1009:lib/chip/STM32F4xx_StdPeriph_Driver/src/stm32f4xx_i2c.c ****   /* Check the parameters */
1010:lib/chip/STM32F4xx_StdPeriph_Driver/src/stm32f4xx_i2c.c ****   assert_param(IS_I2C_ALL_PERIPH(I2Cx));
 2485              		.loc 1 1010 0
 2486 0010 7A68     		ldr	r2, [r7, #4]
 2487 0012 4FF4A843 		mov	r3, #21504
 2488 0016 C4F20003 		movt	r3, 16384
 2489 001a 9A42     		cmp	r2, r3
 2490 001c 15D0     		beq	.L123
 2491              		.loc 1 1010 0 is_stmt 0 discriminator 1
 2492 001e 7A68     		ldr	r2, [r7, #4]
 2493 0020 4FF4B043 		mov	r3, #22528
 2494 0024 C4F20003 		movt	r3, 16384
 2495 0028 9A42     		cmp	r2, r3
 2496 002a 0ED0     		beq	.L123
 2497 002c 7A68     		ldr	r2, [r7, #4]
 2498 002e 4FF4B843 		mov	r3, #23552
 2499 0032 C4F20003 		movt	r3, 16384
 2500 0036 9A42     		cmp	r2, r3
 2501 0038 07D0     		beq	.L123
 2502 003a 40F20000 		movw	r0, #:lower16:.LC0
 2503 003e C0F20000 		movt	r0, #:upper16:.LC0
 2504 0042 40F2F231 		movw	r1, #1010
 2505 0046 FFF7FEFF 		bl	assert_failed
 2506              	.L123:
1011:lib/chip/STM32F4xx_StdPeriph_Driver/src/stm32f4xx_i2c.c ****   assert_param(IS_I2C_REGISTER(I2C_Register));
 2507              		.loc 1 1011 0 is_stmt 1
 2508 004a FB78     		ldrb	r3, [r7, #3]	@ zero_extendqisi2
 2509 004c 002B     		cmp	r3, #0
 2510 004e 1FD0     		beq	.L124
 2511              		.loc 1 1011 0 is_stmt 0 discriminator 1
 2512 0050 FB78     		ldrb	r3, [r7, #3]	@ zero_extendqisi2
 2513 0052 042B     		cmp	r3, #4
 2514 0054 1CD0     		beq	.L124
 2515 0056 FB78     		ldrb	r3, [r7, #3]	@ zero_extendqisi2
 2516 0058 082B     		cmp	r3, #8
 2517 005a 19D0     		beq	.L124
 2518 005c FB78     		ldrb	r3, [r7, #3]	@ zero_extendqisi2
 2519 005e 0C2B     		cmp	r3, #12
 2520 0060 16D0     		beq	.L124
 2521 0062 FB78     		ldrb	r3, [r7, #3]	@ zero_extendqisi2
 2522 0064 102B     		cmp	r3, #16
 2523 0066 13D0     		beq	.L124
 2524 0068 FB78     		ldrb	r3, [r7, #3]	@ zero_extendqisi2
 2525 006a 142B     		cmp	r3, #20
 2526 006c 10D0     		beq	.L124
 2527 006e FB78     		ldrb	r3, [r7, #3]	@ zero_extendqisi2
 2528 0070 182B     		cmp	r3, #24
 2529 0072 0DD0     		beq	.L124
 2530 0074 FB78     		ldrb	r3, [r7, #3]	@ zero_extendqisi2
 2531 0076 1C2B     		cmp	r3, #28
 2532 0078 0AD0     		beq	.L124
 2533 007a FB78     		ldrb	r3, [r7, #3]	@ zero_extendqisi2
 2534 007c 202B     		cmp	r3, #32
 2535 007e 07D0     		beq	.L124
 2536 0080 40F20000 		movw	r0, #:lower16:.LC0
 2537 0084 C0F20000 		movt	r0, #:upper16:.LC0
 2538 0088 40F2F331 		movw	r1, #1011
 2539 008c FFF7FEFF 		bl	assert_failed
 2540              	.L124:
1012:lib/chip/STM32F4xx_StdPeriph_Driver/src/stm32f4xx_i2c.c **** 
1013:lib/chip/STM32F4xx_StdPeriph_Driver/src/stm32f4xx_i2c.c ****   tmp = (uint32_t) I2Cx;
 2541              		.loc 1 1013 0 is_stmt 1
 2542 0090 7B68     		ldr	r3, [r7, #4]
 2543 0092 FB60     		str	r3, [r7, #12]
1014:lib/chip/STM32F4xx_StdPeriph_Driver/src/stm32f4xx_i2c.c ****   tmp += I2C_Register;
 2544              		.loc 1 1014 0
 2545 0094 FA78     		ldrb	r2, [r7, #3]	@ zero_extendqisi2
 2546 0096 FB68     		ldr	r3, [r7, #12]
 2547 0098 1344     		add	r3, r3, r2
 2548 009a FB60     		str	r3, [r7, #12]
1015:lib/chip/STM32F4xx_StdPeriph_Driver/src/stm32f4xx_i2c.c **** 
1016:lib/chip/STM32F4xx_StdPeriph_Driver/src/stm32f4xx_i2c.c ****   /* Return the selected register value */
1017:lib/chip/STM32F4xx_StdPeriph_Driver/src/stm32f4xx_i2c.c ****   return (*(__IO uint16_t *) tmp);
 2549              		.loc 1 1017 0
 2550 009c FB68     		ldr	r3, [r7, #12]
 2551 009e 1B88     		ldrh	r3, [r3]	@ movhi
 2552 00a0 9BB2     		uxth	r3, r3
1018:lib/chip/STM32F4xx_StdPeriph_Driver/src/stm32f4xx_i2c.c **** }
 2553              		.loc 1 1018 0
 2554 00a2 1846     		mov	r0, r3
 2555 00a4 1037     		adds	r7, r7, #16
 2556 00a6 BD46     		mov	sp, r7
 2557              		@ sp needed
 2558 00a8 80BD     		pop	{r7, pc}
 2559              		.cfi_endproc
 2560              	.LFE135:
 2562 00aa 00BF     		.section	.text.I2C_ITConfig,"ax",%progbits
 2563              		.align	2
 2564              		.global	I2C_ITConfig
 2565              		.thumb
 2566              		.thumb_func
 2568              	I2C_ITConfig:
 2569              	.LFB136:
1019:lib/chip/STM32F4xx_StdPeriph_Driver/src/stm32f4xx_i2c.c **** 
1020:lib/chip/STM32F4xx_StdPeriph_Driver/src/stm32f4xx_i2c.c **** /**
1021:lib/chip/STM32F4xx_StdPeriph_Driver/src/stm32f4xx_i2c.c ****   * @brief  Enables or disables the specified I2C interrupts.
1022:lib/chip/STM32F4xx_StdPeriph_Driver/src/stm32f4xx_i2c.c ****   * @param  I2Cx: where x can be 1, 2 or 3 to select the I2C peripheral.
1023:lib/chip/STM32F4xx_StdPeriph_Driver/src/stm32f4xx_i2c.c ****   * @param  I2C_IT: specifies the I2C interrupts sources to be enabled or disabled. 
1024:lib/chip/STM32F4xx_StdPeriph_Driver/src/stm32f4xx_i2c.c ****   *          This parameter can be any combination of the following values:
1025:lib/chip/STM32F4xx_StdPeriph_Driver/src/stm32f4xx_i2c.c ****   *            @arg I2C_IT_BUF: Buffer interrupt mask
1026:lib/chip/STM32F4xx_StdPeriph_Driver/src/stm32f4xx_i2c.c ****   *            @arg I2C_IT_EVT: Event interrupt mask
1027:lib/chip/STM32F4xx_StdPeriph_Driver/src/stm32f4xx_i2c.c ****   *            @arg I2C_IT_ERR: Error interrupt mask
1028:lib/chip/STM32F4xx_StdPeriph_Driver/src/stm32f4xx_i2c.c ****   * @param  NewState: new state of the specified I2C interrupts.
1029:lib/chip/STM32F4xx_StdPeriph_Driver/src/stm32f4xx_i2c.c ****   *          This parameter can be: ENABLE or DISABLE.
1030:lib/chip/STM32F4xx_StdPeriph_Driver/src/stm32f4xx_i2c.c ****   * @retval None
1031:lib/chip/STM32F4xx_StdPeriph_Driver/src/stm32f4xx_i2c.c ****   */
1032:lib/chip/STM32F4xx_StdPeriph_Driver/src/stm32f4xx_i2c.c **** void I2C_ITConfig(I2C_TypeDef* I2Cx, uint16_t I2C_IT, FunctionalState NewState)
1033:lib/chip/STM32F4xx_StdPeriph_Driver/src/stm32f4xx_i2c.c **** {
 2570              		.loc 1 1033 0
 2571              		.cfi_startproc
 2572              		@ args = 0, pretend = 0, frame = 8
 2573              		@ frame_needed = 1, uses_anonymous_args = 0
 2574 0000 80B5     		push	{r7, lr}
 2575              	.LCFI78:
 2576              		.cfi_def_cfa_offset 8
 2577              		.cfi_offset 7, -8
 2578              		.cfi_offset 14, -4
 2579 0002 82B0     		sub	sp, sp, #8
 2580              	.LCFI79:
 2581              		.cfi_def_cfa_offset 16
 2582 0004 00AF     		add	r7, sp, #0
 2583              	.LCFI80:
 2584              		.cfi_def_cfa_register 7
 2585 0006 7860     		str	r0, [r7, #4]
 2586 0008 1346     		mov	r3, r2
 2587 000a 0A46     		mov	r2, r1	@ movhi
 2588 000c 7A80     		strh	r2, [r7, #2]	@ movhi
 2589 000e 7B70     		strb	r3, [r7, #1]
1034:lib/chip/STM32F4xx_StdPeriph_Driver/src/stm32f4xx_i2c.c ****   /* Check the parameters */
1035:lib/chip/STM32F4xx_StdPeriph_Driver/src/stm32f4xx_i2c.c ****   assert_param(IS_I2C_ALL_PERIPH(I2Cx));
 2590              		.loc 1 1035 0
 2591 0010 7A68     		ldr	r2, [r7, #4]
 2592 0012 4FF4A843 		mov	r3, #21504
 2593 0016 C4F20003 		movt	r3, 16384
 2594 001a 9A42     		cmp	r2, r3
 2595 001c 15D0     		beq	.L127
 2596              		.loc 1 1035 0 is_stmt 0 discriminator 1
 2597 001e 7A68     		ldr	r2, [r7, #4]
 2598 0020 4FF4B043 		mov	r3, #22528
 2599 0024 C4F20003 		movt	r3, 16384
 2600 0028 9A42     		cmp	r2, r3
 2601 002a 0ED0     		beq	.L127
 2602 002c 7A68     		ldr	r2, [r7, #4]
 2603 002e 4FF4B843 		mov	r3, #23552
 2604 0032 C4F20003 		movt	r3, 16384
 2605 0036 9A42     		cmp	r2, r3
 2606 0038 07D0     		beq	.L127
 2607 003a 40F20000 		movw	r0, #:lower16:.LC0
 2608 003e C0F20000 		movt	r0, #:upper16:.LC0
 2609 0042 40F20B41 		movw	r1, #1035
 2610 0046 FFF7FEFF 		bl	assert_failed
 2611              	.L127:
1036:lib/chip/STM32F4xx_StdPeriph_Driver/src/stm32f4xx_i2c.c ****   assert_param(IS_FUNCTIONAL_STATE(NewState));
 2612              		.loc 1 1036 0 is_stmt 1
 2613 004a 7B78     		ldrb	r3, [r7, #1]	@ zero_extendqisi2
 2614 004c 002B     		cmp	r3, #0
 2615 004e 0AD0     		beq	.L128
 2616              		.loc 1 1036 0 is_stmt 0 discriminator 1
 2617 0050 7B78     		ldrb	r3, [r7, #1]	@ zero_extendqisi2
 2618 0052 012B     		cmp	r3, #1
 2619 0054 07D0     		beq	.L128
 2620 0056 40F20000 		movw	r0, #:lower16:.LC0
 2621 005a C0F20000 		movt	r0, #:upper16:.LC0
 2622 005e 40F20C41 		movw	r1, #1036
 2623 0062 FFF7FEFF 		bl	assert_failed
 2624              	.L128:
1037:lib/chip/STM32F4xx_StdPeriph_Driver/src/stm32f4xx_i2c.c ****   assert_param(IS_I2C_CONFIG_IT(I2C_IT));
 2625              		.loc 1 1037 0 is_stmt 1
 2626 0066 7A88     		ldrh	r2, [r7, #2]
 2627 0068 4FF6FF03 		movw	r3, #63743
 2628 006c 1340     		ands	r3, r3, r2
 2629 006e 002B     		cmp	r3, #0
 2630 0070 02D1     		bne	.L129
 2631              		.loc 1 1037 0 is_stmt 0 discriminator 2
 2632 0072 7B88     		ldrh	r3, [r7, #2]
 2633 0074 002B     		cmp	r3, #0
 2634 0076 07D1     		bne	.L130
 2635              	.L129:
 2636              		.loc 1 1037 0 discriminator 1
 2637 0078 40F20000 		movw	r0, #:lower16:.LC0
 2638 007c C0F20000 		movt	r0, #:upper16:.LC0
 2639 0080 40F20D41 		movw	r1, #1037
 2640 0084 FFF7FEFF 		bl	assert_failed
 2641              	.L130:
1038:lib/chip/STM32F4xx_StdPeriph_Driver/src/stm32f4xx_i2c.c ****   
1039:lib/chip/STM32F4xx_StdPeriph_Driver/src/stm32f4xx_i2c.c ****   if (NewState != DISABLE)
 2642              		.loc 1 1039 0 is_stmt 1
 2643 0088 7B78     		ldrb	r3, [r7, #1]	@ zero_extendqisi2
 2644 008a 002B     		cmp	r3, #0
 2645 008c 08D0     		beq	.L131
1040:lib/chip/STM32F4xx_StdPeriph_Driver/src/stm32f4xx_i2c.c ****   {
1041:lib/chip/STM32F4xx_StdPeriph_Driver/src/stm32f4xx_i2c.c ****     /* Enable the selected I2C interrupts */
1042:lib/chip/STM32F4xx_StdPeriph_Driver/src/stm32f4xx_i2c.c ****     I2Cx->CR2 |= I2C_IT;
 2646              		.loc 1 1042 0
 2647 008e 7B68     		ldr	r3, [r7, #4]
 2648 0090 9B88     		ldrh	r3, [r3, #4]	@ movhi
 2649 0092 9AB2     		uxth	r2, r3
 2650 0094 7B88     		ldrh	r3, [r7, #2]	@ movhi
 2651 0096 1343     		orrs	r3, r3, r2
 2652 0098 9AB2     		uxth	r2, r3
 2653 009a 7B68     		ldr	r3, [r7, #4]
 2654 009c 9A80     		strh	r2, [r3, #4]	@ movhi
 2655 009e 09E0     		b	.L126
 2656              	.L131:
1043:lib/chip/STM32F4xx_StdPeriph_Driver/src/stm32f4xx_i2c.c ****   }
1044:lib/chip/STM32F4xx_StdPeriph_Driver/src/stm32f4xx_i2c.c ****   else
1045:lib/chip/STM32F4xx_StdPeriph_Driver/src/stm32f4xx_i2c.c ****   {
1046:lib/chip/STM32F4xx_StdPeriph_Driver/src/stm32f4xx_i2c.c ****     /* Disable the selected I2C interrupts */
1047:lib/chip/STM32F4xx_StdPeriph_Driver/src/stm32f4xx_i2c.c ****     I2Cx->CR2 &= (uint16_t)~I2C_IT;
 2657              		.loc 1 1047 0
 2658 00a0 7B68     		ldr	r3, [r7, #4]
 2659 00a2 9B88     		ldrh	r3, [r3, #4]	@ movhi
 2660 00a4 9AB2     		uxth	r2, r3
 2661 00a6 7B88     		ldrh	r3, [r7, #2]	@ movhi
 2662 00a8 DB43     		mvns	r3, r3
 2663 00aa 9BB2     		uxth	r3, r3
 2664 00ac 1340     		ands	r3, r3, r2
 2665 00ae 9AB2     		uxth	r2, r3
 2666 00b0 7B68     		ldr	r3, [r7, #4]
 2667 00b2 9A80     		strh	r2, [r3, #4]	@ movhi
 2668              	.L126:
1048:lib/chip/STM32F4xx_StdPeriph_Driver/src/stm32f4xx_i2c.c ****   }
1049:lib/chip/STM32F4xx_StdPeriph_Driver/src/stm32f4xx_i2c.c **** }
 2669              		.loc 1 1049 0
 2670 00b4 0837     		adds	r7, r7, #8
 2671 00b6 BD46     		mov	sp, r7
 2672              		@ sp needed
 2673 00b8 80BD     		pop	{r7, pc}
 2674              		.cfi_endproc
 2675              	.LFE136:
 2677 00ba 00BF     		.section	.text.I2C_CheckEvent,"ax",%progbits
 2678              		.align	2
 2679              		.global	I2C_CheckEvent
 2680              		.thumb
 2681              		.thumb_func
 2683              	I2C_CheckEvent:
 2684              	.LFB137:
1050:lib/chip/STM32F4xx_StdPeriph_Driver/src/stm32f4xx_i2c.c **** 
1051:lib/chip/STM32F4xx_StdPeriph_Driver/src/stm32f4xx_i2c.c **** /*
1052:lib/chip/STM32F4xx_StdPeriph_Driver/src/stm32f4xx_i2c.c ****  ===============================================================================
1053:lib/chip/STM32F4xx_StdPeriph_Driver/src/stm32f4xx_i2c.c ****                           1. Basic state monitoring                    
1054:lib/chip/STM32F4xx_StdPeriph_Driver/src/stm32f4xx_i2c.c ****  ===============================================================================  
1055:lib/chip/STM32F4xx_StdPeriph_Driver/src/stm32f4xx_i2c.c ****  */
1056:lib/chip/STM32F4xx_StdPeriph_Driver/src/stm32f4xx_i2c.c **** 
1057:lib/chip/STM32F4xx_StdPeriph_Driver/src/stm32f4xx_i2c.c **** /**
1058:lib/chip/STM32F4xx_StdPeriph_Driver/src/stm32f4xx_i2c.c ****   * @brief  Checks whether the last I2Cx Event is equal to the one passed
1059:lib/chip/STM32F4xx_StdPeriph_Driver/src/stm32f4xx_i2c.c ****   *         as parameter.
1060:lib/chip/STM32F4xx_StdPeriph_Driver/src/stm32f4xx_i2c.c ****   * @param  I2Cx: where x can be 1, 2 or 3 to select the I2C peripheral.
1061:lib/chip/STM32F4xx_StdPeriph_Driver/src/stm32f4xx_i2c.c ****   * @param  I2C_EVENT: specifies the event to be checked. 
1062:lib/chip/STM32F4xx_StdPeriph_Driver/src/stm32f4xx_i2c.c ****   *          This parameter can be one of the following values:
1063:lib/chip/STM32F4xx_StdPeriph_Driver/src/stm32f4xx_i2c.c ****   *            @arg I2C_EVENT_SLAVE_TRANSMITTER_ADDRESS_MATCHED: EV1
1064:lib/chip/STM32F4xx_StdPeriph_Driver/src/stm32f4xx_i2c.c ****   *            @arg I2C_EVENT_SLAVE_RECEIVER_ADDRESS_MATCHED: EV1
1065:lib/chip/STM32F4xx_StdPeriph_Driver/src/stm32f4xx_i2c.c ****   *            @arg I2C_EVENT_SLAVE_TRANSMITTER_SECONDADDRESS_MATCHED: EV1
1066:lib/chip/STM32F4xx_StdPeriph_Driver/src/stm32f4xx_i2c.c ****   *            @arg I2C_EVENT_SLAVE_RECEIVER_SECONDADDRESS_MATCHED: EV1
1067:lib/chip/STM32F4xx_StdPeriph_Driver/src/stm32f4xx_i2c.c ****   *            @arg I2C_EVENT_SLAVE_GENERALCALLADDRESS_MATCHED: EV1
1068:lib/chip/STM32F4xx_StdPeriph_Driver/src/stm32f4xx_i2c.c ****   *            @arg I2C_EVENT_SLAVE_BYTE_RECEIVED: EV2
1069:lib/chip/STM32F4xx_StdPeriph_Driver/src/stm32f4xx_i2c.c ****   *            @arg (I2C_EVENT_SLAVE_BYTE_RECEIVED | I2C_FLAG_DUALF): EV2
1070:lib/chip/STM32F4xx_StdPeriph_Driver/src/stm32f4xx_i2c.c ****   *            @arg (I2C_EVENT_SLAVE_BYTE_RECEIVED | I2C_FLAG_GENCALL): EV2
1071:lib/chip/STM32F4xx_StdPeriph_Driver/src/stm32f4xx_i2c.c ****   *            @arg I2C_EVENT_SLAVE_BYTE_TRANSMITTED: EV3
1072:lib/chip/STM32F4xx_StdPeriph_Driver/src/stm32f4xx_i2c.c ****   *            @arg (I2C_EVENT_SLAVE_BYTE_TRANSMITTED | I2C_FLAG_DUALF): EV3
1073:lib/chip/STM32F4xx_StdPeriph_Driver/src/stm32f4xx_i2c.c ****   *            @arg (I2C_EVENT_SLAVE_BYTE_TRANSMITTED | I2C_FLAG_GENCALL): EV3
1074:lib/chip/STM32F4xx_StdPeriph_Driver/src/stm32f4xx_i2c.c ****   *            @arg I2C_EVENT_SLAVE_ACK_FAILURE: EV3_2
1075:lib/chip/STM32F4xx_StdPeriph_Driver/src/stm32f4xx_i2c.c ****   *            @arg I2C_EVENT_SLAVE_STOP_DETECTED: EV4
1076:lib/chip/STM32F4xx_StdPeriph_Driver/src/stm32f4xx_i2c.c ****   *            @arg I2C_EVENT_MASTER_MODE_SELECT: EV5
1077:lib/chip/STM32F4xx_StdPeriph_Driver/src/stm32f4xx_i2c.c ****   *            @arg I2C_EVENT_MASTER_TRANSMITTER_MODE_SELECTED: EV6     
1078:lib/chip/STM32F4xx_StdPeriph_Driver/src/stm32f4xx_i2c.c ****   *            @arg I2C_EVENT_MASTER_RECEIVER_MODE_SELECTED: EV6
1079:lib/chip/STM32F4xx_StdPeriph_Driver/src/stm32f4xx_i2c.c ****   *            @arg I2C_EVENT_MASTER_BYTE_RECEIVED: EV7
1080:lib/chip/STM32F4xx_StdPeriph_Driver/src/stm32f4xx_i2c.c ****   *            @arg I2C_EVENT_MASTER_BYTE_TRANSMITTING: EV8
1081:lib/chip/STM32F4xx_StdPeriph_Driver/src/stm32f4xx_i2c.c ****   *            @arg I2C_EVENT_MASTER_BYTE_TRANSMITTED: EV8_2
1082:lib/chip/STM32F4xx_StdPeriph_Driver/src/stm32f4xx_i2c.c ****   *            @arg I2C_EVENT_MASTER_MODE_ADDRESS10: EV9
1083:lib/chip/STM32F4xx_StdPeriph_Driver/src/stm32f4xx_i2c.c ****   *     
1084:lib/chip/STM32F4xx_StdPeriph_Driver/src/stm32f4xx_i2c.c ****   * @note   For detailed description of Events, please refer to section I2C_Events
1085:lib/chip/STM32F4xx_StdPeriph_Driver/src/stm32f4xx_i2c.c ****   *         in stm32f4xx_i2c.h file.
1086:lib/chip/STM32F4xx_StdPeriph_Driver/src/stm32f4xx_i2c.c ****   *    
1087:lib/chip/STM32F4xx_StdPeriph_Driver/src/stm32f4xx_i2c.c ****   * @retval An ErrorStatus enumeration value:
1088:lib/chip/STM32F4xx_StdPeriph_Driver/src/stm32f4xx_i2c.c ****   *           - SUCCESS: Last event is equal to the I2C_EVENT
1089:lib/chip/STM32F4xx_StdPeriph_Driver/src/stm32f4xx_i2c.c ****   *           - ERROR: Last event is different from the I2C_EVENT
1090:lib/chip/STM32F4xx_StdPeriph_Driver/src/stm32f4xx_i2c.c ****   */
1091:lib/chip/STM32F4xx_StdPeriph_Driver/src/stm32f4xx_i2c.c **** ErrorStatus I2C_CheckEvent(I2C_TypeDef* I2Cx, uint32_t I2C_EVENT)
1092:lib/chip/STM32F4xx_StdPeriph_Driver/src/stm32f4xx_i2c.c **** {
 2685              		.loc 1 1092 0
 2686              		.cfi_startproc
 2687              		@ args = 0, pretend = 0, frame = 24
 2688              		@ frame_needed = 1, uses_anonymous_args = 0
 2689 0000 80B5     		push	{r7, lr}
 2690              	.LCFI81:
 2691              		.cfi_def_cfa_offset 8
 2692              		.cfi_offset 7, -8
 2693              		.cfi_offset 14, -4
 2694 0002 86B0     		sub	sp, sp, #24
 2695              	.LCFI82:
 2696              		.cfi_def_cfa_offset 32
 2697 0004 00AF     		add	r7, sp, #0
 2698              	.LCFI83:
 2699              		.cfi_def_cfa_register 7
 2700 0006 7860     		str	r0, [r7, #4]
 2701 0008 3960     		str	r1, [r7]
1093:lib/chip/STM32F4xx_StdPeriph_Driver/src/stm32f4xx_i2c.c ****   uint32_t lastevent = 0;
 2702              		.loc 1 1093 0
 2703 000a 0023     		movs	r3, #0
 2704 000c 3B61     		str	r3, [r7, #16]
1094:lib/chip/STM32F4xx_StdPeriph_Driver/src/stm32f4xx_i2c.c ****   uint32_t flag1 = 0, flag2 = 0;
 2705              		.loc 1 1094 0
 2706 000e 0023     		movs	r3, #0
 2707 0010 FB60     		str	r3, [r7, #12]
 2708 0012 0023     		movs	r3, #0
 2709 0014 BB60     		str	r3, [r7, #8]
1095:lib/chip/STM32F4xx_StdPeriph_Driver/src/stm32f4xx_i2c.c ****   ErrorStatus status = ERROR;
 2710              		.loc 1 1095 0
 2711 0016 0023     		movs	r3, #0
 2712 0018 FB75     		strb	r3, [r7, #23]
1096:lib/chip/STM32F4xx_StdPeriph_Driver/src/stm32f4xx_i2c.c **** 
1097:lib/chip/STM32F4xx_StdPeriph_Driver/src/stm32f4xx_i2c.c ****   /* Check the parameters */
1098:lib/chip/STM32F4xx_StdPeriph_Driver/src/stm32f4xx_i2c.c ****   assert_param(IS_I2C_ALL_PERIPH(I2Cx));
 2713              		.loc 1 1098 0
 2714 001a 7A68     		ldr	r2, [r7, #4]
 2715 001c 4FF4A843 		mov	r3, #21504
 2716 0020 C4F20003 		movt	r3, 16384
 2717 0024 9A42     		cmp	r2, r3
 2718 0026 15D0     		beq	.L134
 2719              		.loc 1 1098 0 is_stmt 0 discriminator 1
 2720 0028 7A68     		ldr	r2, [r7, #4]
 2721 002a 4FF4B043 		mov	r3, #22528
 2722 002e C4F20003 		movt	r3, 16384
 2723 0032 9A42     		cmp	r2, r3
 2724 0034 0ED0     		beq	.L134
 2725 0036 7A68     		ldr	r2, [r7, #4]
 2726 0038 4FF4B843 		mov	r3, #23552
 2727 003c C4F20003 		movt	r3, 16384
 2728 0040 9A42     		cmp	r2, r3
 2729 0042 07D0     		beq	.L134
 2730 0044 40F20000 		movw	r0, #:lower16:.LC0
 2731 0048 C0F20000 		movt	r0, #:upper16:.LC0
 2732 004c 40F24A41 		movw	r1, #1098
 2733 0050 FFF7FEFF 		bl	assert_failed
 2734              	.L134:
1099:lib/chip/STM32F4xx_StdPeriph_Driver/src/stm32f4xx_i2c.c ****   assert_param(IS_I2C_EVENT(I2C_EVENT));
 2735              		.loc 1 1099 0 is_stmt 1
 2736 0054 3A68     		ldr	r2, [r7]
 2737 0056 8223     		movs	r3, #130
 2738 0058 C0F20603 		movt	r3, 6
 2739 005c 9A42     		cmp	r2, r3
 2740 005e 6ED0     		beq	.L135
 2741              		.loc 1 1099 0 is_stmt 0 discriminator 1
 2742 0060 3B68     		ldr	r3, [r7]
 2743 0062 B3F1021F 		cmp	r3, #131074
 2744 0066 6AD0     		beq	.L135
 2745 0068 3A68     		ldr	r2, [r7]
 2746 006a 8023     		movs	r3, #128
 2747 006c C0F28603 		movt	r3, 134
 2748 0070 9A42     		cmp	r2, r3
 2749 0072 64D0     		beq	.L135
 2750 0074 3B68     		ldr	r3, [r7]
 2751 0076 B3F5020F 		cmp	r3, #8519680
 2752 007a 60D0     		beq	.L135
 2753 007c 3B68     		ldr	r3, [r7]
 2754 007e B3F5901F 		cmp	r3, #1179648
 2755 0082 5CD0     		beq	.L135
 2756 0084 3A68     		ldr	r2, [r7]
 2757 0086 4023     		movs	r3, #64
 2758 0088 C0F20203 		movt	r3, 2
 2759 008c 9A42     		cmp	r2, r3
 2760 008e 56D0     		beq	.L135
 2761 0090 3A68     		ldr	r2, [r7]
 2762 0092 4023     		movs	r3, #64
 2763 0094 C0F28203 		movt	r3, 130
 2764 0098 9A42     		cmp	r2, r3
 2765 009a 50D0     		beq	.L135
 2766 009c 3A68     		ldr	r2, [r7]
 2767 009e 4023     		movs	r3, #64
 2768 00a0 C0F21203 		movt	r3, 18
 2769 00a4 9A42     		cmp	r2, r3
 2770 00a6 4AD0     		beq	.L135
 2771 00a8 3A68     		ldr	r2, [r7]
 2772 00aa 8423     		movs	r3, #132
 2773 00ac C0F20603 		movt	r3, 6
 2774 00b0 9A42     		cmp	r2, r3
 2775 00b2 44D0     		beq	.L135
 2776 00b4 3A68     		ldr	r2, [r7]
 2777 00b6 8423     		movs	r3, #132
 2778 00b8 C0F28603 		movt	r3, 134
 2779 00bc 9A42     		cmp	r2, r3
 2780 00be 3ED0     		beq	.L135
 2781 00c0 3A68     		ldr	r2, [r7]
 2782 00c2 8423     		movs	r3, #132
 2783 00c4 C0F21603 		movt	r3, 22
 2784 00c8 9A42     		cmp	r2, r3
 2785 00ca 38D0     		beq	.L135
 2786 00cc 3B68     		ldr	r3, [r7]
 2787 00ce 102B     		cmp	r3, #16
 2788 00d0 35D0     		beq	.L135
 2789 00d2 3A68     		ldr	r2, [r7]
 2790 00d4 0123     		movs	r3, #1
 2791 00d6 C0F20303 		movt	r3, 3
 2792 00da 9A42     		cmp	r2, r3
 2793 00dc 2FD0     		beq	.L135
 2794 00de 3A68     		ldr	r2, [r7]
 2795 00e0 8223     		movs	r3, #130
 2796 00e2 C0F20703 		movt	r3, 7
 2797 00e6 9A42     		cmp	r2, r3
 2798 00e8 29D0     		beq	.L135
 2799 00ea 3A68     		ldr	r2, [r7]
 2800 00ec 0223     		movs	r3, #2
 2801 00ee C0F20303 		movt	r3, 3
 2802 00f2 9A42     		cmp	r2, r3
 2803 00f4 23D0     		beq	.L135
 2804 00f6 3A68     		ldr	r2, [r7]
 2805 00f8 4023     		movs	r3, #64
 2806 00fa C0F20303 		movt	r3, 3
 2807 00fe 9A42     		cmp	r2, r3
 2808 0100 1DD0     		beq	.L135
 2809 0102 3A68     		ldr	r2, [r7]
 2810 0104 8423     		movs	r3, #132
 2811 0106 C0F20703 		movt	r3, 7
 2812 010a 9A42     		cmp	r2, r3
 2813 010c 17D0     		beq	.L135
 2814 010e 3A68     		ldr	r2, [r7]
 2815 0110 8023     		movs	r3, #128
 2816 0112 C0F20703 		movt	r3, 7
 2817 0116 9A42     		cmp	r2, r3
 2818 0118 11D0     		beq	.L135
 2819 011a 3A68     		ldr	r2, [r7]
 2820 011c 0823     		movs	r3, #8
 2821 011e C0F20303 		movt	r3, 3
 2822 0122 9A42     		cmp	r2, r3
 2823 0124 0BD0     		beq	.L135
 2824 0126 3B68     		ldr	r3, [r7]
 2825 0128 B3F5806F 		cmp	r3, #1024
 2826 012c 07D0     		beq	.L135
 2827 012e 40F20000 		movw	r0, #:lower16:.LC0
 2828 0132 C0F20000 		movt	r0, #:upper16:.LC0
 2829 0136 40F24B41 		movw	r1, #1099
 2830 013a FFF7FEFF 		bl	assert_failed
 2831              	.L135:
1100:lib/chip/STM32F4xx_StdPeriph_Driver/src/stm32f4xx_i2c.c **** 
1101:lib/chip/STM32F4xx_StdPeriph_Driver/src/stm32f4xx_i2c.c ****   /* Read the I2Cx status register */
1102:lib/chip/STM32F4xx_StdPeriph_Driver/src/stm32f4xx_i2c.c ****   flag1 = I2Cx->SR1;
 2832              		.loc 1 1102 0 is_stmt 1
 2833 013e 7B68     		ldr	r3, [r7, #4]
 2834 0140 9B8A     		ldrh	r3, [r3, #20]	@ movhi
 2835 0142 9BB2     		uxth	r3, r3
 2836 0144 FB60     		str	r3, [r7, #12]
1103:lib/chip/STM32F4xx_StdPeriph_Driver/src/stm32f4xx_i2c.c ****   flag2 = I2Cx->SR2;
 2837              		.loc 1 1103 0
 2838 0146 7B68     		ldr	r3, [r7, #4]
 2839 0148 1B8B     		ldrh	r3, [r3, #24]	@ movhi
 2840 014a 9BB2     		uxth	r3, r3
 2841 014c BB60     		str	r3, [r7, #8]
1104:lib/chip/STM32F4xx_StdPeriph_Driver/src/stm32f4xx_i2c.c ****   flag2 = flag2 << 16;
 2842              		.loc 1 1104 0
 2843 014e BB68     		ldr	r3, [r7, #8]
 2844 0150 1B04     		lsls	r3, r3, #16
 2845 0152 BB60     		str	r3, [r7, #8]
1105:lib/chip/STM32F4xx_StdPeriph_Driver/src/stm32f4xx_i2c.c **** 
1106:lib/chip/STM32F4xx_StdPeriph_Driver/src/stm32f4xx_i2c.c ****   /* Get the last event value from I2C status register */
1107:lib/chip/STM32F4xx_StdPeriph_Driver/src/stm32f4xx_i2c.c ****   lastevent = (flag1 | flag2) & FLAG_MASK;
 2846              		.loc 1 1107 0
 2847 0154 FA68     		ldr	r2, [r7, #12]
 2848 0156 BB68     		ldr	r3, [r7, #8]
 2849 0158 1343     		orrs	r3, r3, r2
 2850 015a 23F07F43 		bic	r3, r3, #-16777216
 2851 015e 3B61     		str	r3, [r7, #16]
1108:lib/chip/STM32F4xx_StdPeriph_Driver/src/stm32f4xx_i2c.c **** 
1109:lib/chip/STM32F4xx_StdPeriph_Driver/src/stm32f4xx_i2c.c ****   /* Check whether the last event contains the I2C_EVENT */
1110:lib/chip/STM32F4xx_StdPeriph_Driver/src/stm32f4xx_i2c.c ****   if ((lastevent & I2C_EVENT) == I2C_EVENT)
 2852              		.loc 1 1110 0
 2853 0160 3A69     		ldr	r2, [r7, #16]
 2854 0162 3B68     		ldr	r3, [r7]
 2855 0164 1A40     		ands	r2, r2, r3
 2856 0166 3B68     		ldr	r3, [r7]
 2857 0168 9A42     		cmp	r2, r3
 2858 016a 02D1     		bne	.L136
1111:lib/chip/STM32F4xx_StdPeriph_Driver/src/stm32f4xx_i2c.c ****   {
1112:lib/chip/STM32F4xx_StdPeriph_Driver/src/stm32f4xx_i2c.c ****     /* SUCCESS: last event is equal to I2C_EVENT */
1113:lib/chip/STM32F4xx_StdPeriph_Driver/src/stm32f4xx_i2c.c ****     status = SUCCESS;
 2859              		.loc 1 1113 0
 2860 016c 0123     		movs	r3, #1
 2861 016e FB75     		strb	r3, [r7, #23]
 2862 0170 01E0     		b	.L137
 2863              	.L136:
1114:lib/chip/STM32F4xx_StdPeriph_Driver/src/stm32f4xx_i2c.c ****   }
1115:lib/chip/STM32F4xx_StdPeriph_Driver/src/stm32f4xx_i2c.c ****   else
1116:lib/chip/STM32F4xx_StdPeriph_Driver/src/stm32f4xx_i2c.c ****   {
1117:lib/chip/STM32F4xx_StdPeriph_Driver/src/stm32f4xx_i2c.c ****     /* ERROR: last event is different from I2C_EVENT */
1118:lib/chip/STM32F4xx_StdPeriph_Driver/src/stm32f4xx_i2c.c ****     status = ERROR;
 2864              		.loc 1 1118 0
 2865 0172 0023     		movs	r3, #0
 2866 0174 FB75     		strb	r3, [r7, #23]
 2867              	.L137:
1119:lib/chip/STM32F4xx_StdPeriph_Driver/src/stm32f4xx_i2c.c ****   }
1120:lib/chip/STM32F4xx_StdPeriph_Driver/src/stm32f4xx_i2c.c ****   /* Return status */
1121:lib/chip/STM32F4xx_StdPeriph_Driver/src/stm32f4xx_i2c.c ****   return status;
 2868              		.loc 1 1121 0
 2869 0176 FB7D     		ldrb	r3, [r7, #23]	@ zero_extendqisi2
1122:lib/chip/STM32F4xx_StdPeriph_Driver/src/stm32f4xx_i2c.c **** }
 2870              		.loc 1 1122 0
 2871 0178 1846     		mov	r0, r3
 2872 017a 1837     		adds	r7, r7, #24
 2873 017c BD46     		mov	sp, r7
 2874              		@ sp needed
 2875 017e 80BD     		pop	{r7, pc}
 2876              		.cfi_endproc
 2877              	.LFE137:
 2879              		.section	.text.I2C_GetLastEvent,"ax",%progbits
 2880              		.align	2
 2881              		.global	I2C_GetLastEvent
 2882              		.thumb
 2883              		.thumb_func
 2885              	I2C_GetLastEvent:
 2886              	.LFB138:
1123:lib/chip/STM32F4xx_StdPeriph_Driver/src/stm32f4xx_i2c.c **** 
1124:lib/chip/STM32F4xx_StdPeriph_Driver/src/stm32f4xx_i2c.c **** /*
1125:lib/chip/STM32F4xx_StdPeriph_Driver/src/stm32f4xx_i2c.c ****  ===============================================================================
1126:lib/chip/STM32F4xx_StdPeriph_Driver/src/stm32f4xx_i2c.c ****                           2. Advanced state monitoring                   
1127:lib/chip/STM32F4xx_StdPeriph_Driver/src/stm32f4xx_i2c.c ****  ===============================================================================  
1128:lib/chip/STM32F4xx_StdPeriph_Driver/src/stm32f4xx_i2c.c ****  */
1129:lib/chip/STM32F4xx_StdPeriph_Driver/src/stm32f4xx_i2c.c **** 
1130:lib/chip/STM32F4xx_StdPeriph_Driver/src/stm32f4xx_i2c.c **** /**
1131:lib/chip/STM32F4xx_StdPeriph_Driver/src/stm32f4xx_i2c.c ****   * @brief  Returns the last I2Cx Event.
1132:lib/chip/STM32F4xx_StdPeriph_Driver/src/stm32f4xx_i2c.c ****   * @param  I2Cx: where x can be 1, 2 or 3 to select the I2C peripheral.
1133:lib/chip/STM32F4xx_StdPeriph_Driver/src/stm32f4xx_i2c.c ****   *     
1134:lib/chip/STM32F4xx_StdPeriph_Driver/src/stm32f4xx_i2c.c ****   * @note   For detailed description of Events, please refer to section I2C_Events
1135:lib/chip/STM32F4xx_StdPeriph_Driver/src/stm32f4xx_i2c.c ****   *         in stm32f4xx_i2c.h file.
1136:lib/chip/STM32F4xx_StdPeriph_Driver/src/stm32f4xx_i2c.c ****   *    
1137:lib/chip/STM32F4xx_StdPeriph_Driver/src/stm32f4xx_i2c.c ****   * @retval The last event
1138:lib/chip/STM32F4xx_StdPeriph_Driver/src/stm32f4xx_i2c.c ****   */
1139:lib/chip/STM32F4xx_StdPeriph_Driver/src/stm32f4xx_i2c.c **** uint32_t I2C_GetLastEvent(I2C_TypeDef* I2Cx)
1140:lib/chip/STM32F4xx_StdPeriph_Driver/src/stm32f4xx_i2c.c **** {
 2887              		.loc 1 1140 0
 2888              		.cfi_startproc
 2889              		@ args = 0, pretend = 0, frame = 24
 2890              		@ frame_needed = 1, uses_anonymous_args = 0
 2891 0000 80B5     		push	{r7, lr}
 2892              	.LCFI84:
 2893              		.cfi_def_cfa_offset 8
 2894              		.cfi_offset 7, -8
 2895              		.cfi_offset 14, -4
 2896 0002 86B0     		sub	sp, sp, #24
 2897              	.LCFI85:
 2898              		.cfi_def_cfa_offset 32
 2899 0004 00AF     		add	r7, sp, #0
 2900              	.LCFI86:
 2901              		.cfi_def_cfa_register 7
 2902 0006 7860     		str	r0, [r7, #4]
1141:lib/chip/STM32F4xx_StdPeriph_Driver/src/stm32f4xx_i2c.c ****   uint32_t lastevent = 0;
 2903              		.loc 1 1141 0
 2904 0008 0023     		movs	r3, #0
 2905 000a 7B61     		str	r3, [r7, #20]
1142:lib/chip/STM32F4xx_StdPeriph_Driver/src/stm32f4xx_i2c.c ****   uint32_t flag1 = 0, flag2 = 0;
 2906              		.loc 1 1142 0
 2907 000c 0023     		movs	r3, #0
 2908 000e 3B61     		str	r3, [r7, #16]
 2909 0010 0023     		movs	r3, #0
 2910 0012 FB60     		str	r3, [r7, #12]
1143:lib/chip/STM32F4xx_StdPeriph_Driver/src/stm32f4xx_i2c.c **** 
1144:lib/chip/STM32F4xx_StdPeriph_Driver/src/stm32f4xx_i2c.c ****   /* Check the parameters */
1145:lib/chip/STM32F4xx_StdPeriph_Driver/src/stm32f4xx_i2c.c ****   assert_param(IS_I2C_ALL_PERIPH(I2Cx));
 2911              		.loc 1 1145 0
 2912 0014 7A68     		ldr	r2, [r7, #4]
 2913 0016 4FF4A843 		mov	r3, #21504
 2914 001a C4F20003 		movt	r3, 16384
 2915 001e 9A42     		cmp	r2, r3
 2916 0020 15D0     		beq	.L140
 2917              		.loc 1 1145 0 is_stmt 0 discriminator 1
 2918 0022 7A68     		ldr	r2, [r7, #4]
 2919 0024 4FF4B043 		mov	r3, #22528
 2920 0028 C4F20003 		movt	r3, 16384
 2921 002c 9A42     		cmp	r2, r3
 2922 002e 0ED0     		beq	.L140
 2923 0030 7A68     		ldr	r2, [r7, #4]
 2924 0032 4FF4B843 		mov	r3, #23552
 2925 0036 C4F20003 		movt	r3, 16384
 2926 003a 9A42     		cmp	r2, r3
 2927 003c 07D0     		beq	.L140
 2928 003e 40F20000 		movw	r0, #:lower16:.LC0
 2929 0042 C0F20000 		movt	r0, #:upper16:.LC0
 2930 0046 40F27941 		movw	r1, #1145
 2931 004a FFF7FEFF 		bl	assert_failed
 2932              	.L140:
1146:lib/chip/STM32F4xx_StdPeriph_Driver/src/stm32f4xx_i2c.c **** 
1147:lib/chip/STM32F4xx_StdPeriph_Driver/src/stm32f4xx_i2c.c ****   /* Read the I2Cx status register */
1148:lib/chip/STM32F4xx_StdPeriph_Driver/src/stm32f4xx_i2c.c ****   flag1 = I2Cx->SR1;
 2933              		.loc 1 1148 0 is_stmt 1
 2934 004e 7B68     		ldr	r3, [r7, #4]
 2935 0050 9B8A     		ldrh	r3, [r3, #20]	@ movhi
 2936 0052 9BB2     		uxth	r3, r3
 2937 0054 3B61     		str	r3, [r7, #16]
1149:lib/chip/STM32F4xx_StdPeriph_Driver/src/stm32f4xx_i2c.c ****   flag2 = I2Cx->SR2;
 2938              		.loc 1 1149 0
 2939 0056 7B68     		ldr	r3, [r7, #4]
 2940 0058 1B8B     		ldrh	r3, [r3, #24]	@ movhi
 2941 005a 9BB2     		uxth	r3, r3
 2942 005c FB60     		str	r3, [r7, #12]
1150:lib/chip/STM32F4xx_StdPeriph_Driver/src/stm32f4xx_i2c.c ****   flag2 = flag2 << 16;
 2943              		.loc 1 1150 0
 2944 005e FB68     		ldr	r3, [r7, #12]
 2945 0060 1B04     		lsls	r3, r3, #16
 2946 0062 FB60     		str	r3, [r7, #12]
1151:lib/chip/STM32F4xx_StdPeriph_Driver/src/stm32f4xx_i2c.c **** 
1152:lib/chip/STM32F4xx_StdPeriph_Driver/src/stm32f4xx_i2c.c ****   /* Get the last event value from I2C status register */
1153:lib/chip/STM32F4xx_StdPeriph_Driver/src/stm32f4xx_i2c.c ****   lastevent = (flag1 | flag2) & FLAG_MASK;
 2947              		.loc 1 1153 0
 2948 0064 3A69     		ldr	r2, [r7, #16]
 2949 0066 FB68     		ldr	r3, [r7, #12]
 2950 0068 1343     		orrs	r3, r3, r2
 2951 006a 23F07F43 		bic	r3, r3, #-16777216
 2952 006e 7B61     		str	r3, [r7, #20]
1154:lib/chip/STM32F4xx_StdPeriph_Driver/src/stm32f4xx_i2c.c **** 
1155:lib/chip/STM32F4xx_StdPeriph_Driver/src/stm32f4xx_i2c.c ****   /* Return status */
1156:lib/chip/STM32F4xx_StdPeriph_Driver/src/stm32f4xx_i2c.c ****   return lastevent;
 2953              		.loc 1 1156 0
 2954 0070 7B69     		ldr	r3, [r7, #20]
1157:lib/chip/STM32F4xx_StdPeriph_Driver/src/stm32f4xx_i2c.c **** }
 2955              		.loc 1 1157 0
 2956 0072 1846     		mov	r0, r3
 2957 0074 1837     		adds	r7, r7, #24
 2958 0076 BD46     		mov	sp, r7
 2959              		@ sp needed
 2960 0078 80BD     		pop	{r7, pc}
 2961              		.cfi_endproc
 2962              	.LFE138:
 2964 007a 00BF     		.section	.text.I2C_GetFlagStatus,"ax",%progbits
 2965              		.align	2
 2966              		.global	I2C_GetFlagStatus
 2967              		.thumb
 2968              		.thumb_func
 2970              	I2C_GetFlagStatus:
 2971              	.LFB139:
1158:lib/chip/STM32F4xx_StdPeriph_Driver/src/stm32f4xx_i2c.c **** 
1159:lib/chip/STM32F4xx_StdPeriph_Driver/src/stm32f4xx_i2c.c **** /*
1160:lib/chip/STM32F4xx_StdPeriph_Driver/src/stm32f4xx_i2c.c ****  ===============================================================================
1161:lib/chip/STM32F4xx_StdPeriph_Driver/src/stm32f4xx_i2c.c ****                           3. Flag-based state monitoring                   
1162:lib/chip/STM32F4xx_StdPeriph_Driver/src/stm32f4xx_i2c.c ****  ===============================================================================  
1163:lib/chip/STM32F4xx_StdPeriph_Driver/src/stm32f4xx_i2c.c ****  */
1164:lib/chip/STM32F4xx_StdPeriph_Driver/src/stm32f4xx_i2c.c **** 
1165:lib/chip/STM32F4xx_StdPeriph_Driver/src/stm32f4xx_i2c.c **** /**
1166:lib/chip/STM32F4xx_StdPeriph_Driver/src/stm32f4xx_i2c.c ****   * @brief  Checks whether the specified I2C flag is set or not.
1167:lib/chip/STM32F4xx_StdPeriph_Driver/src/stm32f4xx_i2c.c ****   * @param  I2Cx: where x can be 1, 2 or 3 to select the I2C peripheral.
1168:lib/chip/STM32F4xx_StdPeriph_Driver/src/stm32f4xx_i2c.c ****   * @param  I2C_FLAG: specifies the flag to check. 
1169:lib/chip/STM32F4xx_StdPeriph_Driver/src/stm32f4xx_i2c.c ****   *          This parameter can be one of the following values:
1170:lib/chip/STM32F4xx_StdPeriph_Driver/src/stm32f4xx_i2c.c ****   *            @arg I2C_FLAG_DUALF: Dual flag (Slave mode)
1171:lib/chip/STM32F4xx_StdPeriph_Driver/src/stm32f4xx_i2c.c ****   *            @arg I2C_FLAG_SMBHOST: SMBus host header (Slave mode)
1172:lib/chip/STM32F4xx_StdPeriph_Driver/src/stm32f4xx_i2c.c ****   *            @arg I2C_FLAG_SMBDEFAULT: SMBus default header (Slave mode)
1173:lib/chip/STM32F4xx_StdPeriph_Driver/src/stm32f4xx_i2c.c ****   *            @arg I2C_FLAG_GENCALL: General call header flag (Slave mode)
1174:lib/chip/STM32F4xx_StdPeriph_Driver/src/stm32f4xx_i2c.c ****   *            @arg I2C_FLAG_TRA: Transmitter/Receiver flag
1175:lib/chip/STM32F4xx_StdPeriph_Driver/src/stm32f4xx_i2c.c ****   *            @arg I2C_FLAG_BUSY: Bus busy flag
1176:lib/chip/STM32F4xx_StdPeriph_Driver/src/stm32f4xx_i2c.c ****   *            @arg I2C_FLAG_MSL: Master/Slave flag
1177:lib/chip/STM32F4xx_StdPeriph_Driver/src/stm32f4xx_i2c.c ****   *            @arg I2C_FLAG_SMBALERT: SMBus Alert flag
1178:lib/chip/STM32F4xx_StdPeriph_Driver/src/stm32f4xx_i2c.c ****   *            @arg I2C_FLAG_TIMEOUT: Timeout or Tlow error flag
1179:lib/chip/STM32F4xx_StdPeriph_Driver/src/stm32f4xx_i2c.c ****   *            @arg I2C_FLAG_PECERR: PEC error in reception flag
1180:lib/chip/STM32F4xx_StdPeriph_Driver/src/stm32f4xx_i2c.c ****   *            @arg I2C_FLAG_OVR: Overrun/Underrun flag (Slave mode)
1181:lib/chip/STM32F4xx_StdPeriph_Driver/src/stm32f4xx_i2c.c ****   *            @arg I2C_FLAG_AF: Acknowledge failure flag
1182:lib/chip/STM32F4xx_StdPeriph_Driver/src/stm32f4xx_i2c.c ****   *            @arg I2C_FLAG_ARLO: Arbitration lost flag (Master mode)
1183:lib/chip/STM32F4xx_StdPeriph_Driver/src/stm32f4xx_i2c.c ****   *            @arg I2C_FLAG_BERR: Bus error flag
1184:lib/chip/STM32F4xx_StdPeriph_Driver/src/stm32f4xx_i2c.c ****   *            @arg I2C_FLAG_TXE: Data register empty flag (Transmitter)
1185:lib/chip/STM32F4xx_StdPeriph_Driver/src/stm32f4xx_i2c.c ****   *            @arg I2C_FLAG_RXNE: Data register not empty (Receiver) flag
1186:lib/chip/STM32F4xx_StdPeriph_Driver/src/stm32f4xx_i2c.c ****   *            @arg I2C_FLAG_STOPF: Stop detection flag (Slave mode)
1187:lib/chip/STM32F4xx_StdPeriph_Driver/src/stm32f4xx_i2c.c ****   *            @arg I2C_FLAG_ADD10: 10-bit header sent flag (Master mode)
1188:lib/chip/STM32F4xx_StdPeriph_Driver/src/stm32f4xx_i2c.c ****   *            @arg I2C_FLAG_BTF: Byte transfer finished flag
1189:lib/chip/STM32F4xx_StdPeriph_Driver/src/stm32f4xx_i2c.c ****   *            @arg I2C_FLAG_ADDR: Address sent flag (Master mode) "ADSL"
1190:lib/chip/STM32F4xx_StdPeriph_Driver/src/stm32f4xx_i2c.c ****   *                                Address matched flag (Slave mode)"ENDAD"
1191:lib/chip/STM32F4xx_StdPeriph_Driver/src/stm32f4xx_i2c.c ****   *            @arg I2C_FLAG_SB: Start bit flag (Master mode)
1192:lib/chip/STM32F4xx_StdPeriph_Driver/src/stm32f4xx_i2c.c ****   * @retval The new state of I2C_FLAG (SET or RESET).
1193:lib/chip/STM32F4xx_StdPeriph_Driver/src/stm32f4xx_i2c.c ****   */
1194:lib/chip/STM32F4xx_StdPeriph_Driver/src/stm32f4xx_i2c.c **** FlagStatus I2C_GetFlagStatus(I2C_TypeDef* I2Cx, uint32_t I2C_FLAG)
1195:lib/chip/STM32F4xx_StdPeriph_Driver/src/stm32f4xx_i2c.c **** {
 2972              		.loc 1 1195 0
 2973              		.cfi_startproc
 2974              		@ args = 0, pretend = 0, frame = 24
 2975              		@ frame_needed = 1, uses_anonymous_args = 0
 2976 0000 80B5     		push	{r7, lr}
 2977              	.LCFI87:
 2978              		.cfi_def_cfa_offset 8
 2979              		.cfi_offset 7, -8
 2980              		.cfi_offset 14, -4
 2981 0002 86B0     		sub	sp, sp, #24
 2982              	.LCFI88:
 2983              		.cfi_def_cfa_offset 32
 2984 0004 00AF     		add	r7, sp, #0
 2985              	.LCFI89:
 2986              		.cfi_def_cfa_register 7
 2987 0006 7860     		str	r0, [r7, #4]
 2988 0008 3960     		str	r1, [r7]
1196:lib/chip/STM32F4xx_StdPeriph_Driver/src/stm32f4xx_i2c.c ****   FlagStatus bitstatus = RESET;
 2989              		.loc 1 1196 0
 2990 000a 0023     		movs	r3, #0
 2991 000c FB75     		strb	r3, [r7, #23]
1197:lib/chip/STM32F4xx_StdPeriph_Driver/src/stm32f4xx_i2c.c ****   __IO uint32_t i2creg = 0, i2cxbase = 0;
 2992              		.loc 1 1197 0
 2993 000e 0023     		movs	r3, #0
 2994 0010 3B61     		str	r3, [r7, #16]
 2995 0012 0023     		movs	r3, #0
 2996 0014 FB60     		str	r3, [r7, #12]
1198:lib/chip/STM32F4xx_StdPeriph_Driver/src/stm32f4xx_i2c.c **** 
1199:lib/chip/STM32F4xx_StdPeriph_Driver/src/stm32f4xx_i2c.c ****   /* Check the parameters */
1200:lib/chip/STM32F4xx_StdPeriph_Driver/src/stm32f4xx_i2c.c ****   assert_param(IS_I2C_ALL_PERIPH(I2Cx));
 2997              		.loc 1 1200 0
 2998 0016 7A68     		ldr	r2, [r7, #4]
 2999 0018 4FF4A843 		mov	r3, #21504
 3000 001c C4F20003 		movt	r3, 16384
 3001 0020 9A42     		cmp	r2, r3
 3002 0022 15D0     		beq	.L143
 3003              		.loc 1 1200 0 is_stmt 0 discriminator 1
 3004 0024 7A68     		ldr	r2, [r7, #4]
 3005 0026 4FF4B043 		mov	r3, #22528
 3006 002a C4F20003 		movt	r3, 16384
 3007 002e 9A42     		cmp	r2, r3
 3008 0030 0ED0     		beq	.L143
 3009 0032 7A68     		ldr	r2, [r7, #4]
 3010 0034 4FF4B843 		mov	r3, #23552
 3011 0038 C4F20003 		movt	r3, 16384
 3012 003c 9A42     		cmp	r2, r3
 3013 003e 07D0     		beq	.L143
 3014 0040 40F20000 		movw	r0, #:lower16:.LC0
 3015 0044 C0F20000 		movt	r0, #:upper16:.LC0
 3016 0048 4FF49661 		mov	r1, #1200
 3017 004c FFF7FEFF 		bl	assert_failed
 3018              	.L143:
1201:lib/chip/STM32F4xx_StdPeriph_Driver/src/stm32f4xx_i2c.c ****   assert_param(IS_I2C_GET_FLAG(I2C_FLAG));
 3019              		.loc 1 1201 0 is_stmt 1
 3020 0050 3B68     		ldr	r3, [r7]
 3021 0052 B3F5000F 		cmp	r3, #8388608
 3022 0056 77D0     		beq	.L144
 3023              		.loc 1 1201 0 is_stmt 0 discriminator 1
 3024 0058 3B68     		ldr	r3, [r7]
 3025 005a B3F5800F 		cmp	r3, #4194304
 3026 005e 73D0     		beq	.L144
 3027 0060 3B68     		ldr	r3, [r7]
 3028 0062 B3F5001F 		cmp	r3, #2097152
 3029 0066 6FD0     		beq	.L144
 3030 0068 3B68     		ldr	r3, [r7]
 3031 006a B3F5801F 		cmp	r3, #1048576
 3032 006e 6BD0     		beq	.L144
 3033 0070 3B68     		ldr	r3, [r7]
 3034 0072 B3F5802F 		cmp	r3, #262144
 3035 0076 67D0     		beq	.L144
 3036 0078 3B68     		ldr	r3, [r7]
 3037 007a B3F5003F 		cmp	r3, #131072
 3038 007e 63D0     		beq	.L144
 3039 0080 3B68     		ldr	r3, [r7]
 3040 0082 B3F5803F 		cmp	r3, #65536
 3041 0086 5FD0     		beq	.L144
 3042 0088 3A68     		ldr	r2, [r7]
 3043 008a 4FF40043 		mov	r3, #32768
 3044 008e C1F20003 		movt	r3, 4096
 3045 0092 9A42     		cmp	r2, r3
 3046 0094 58D0     		beq	.L144
 3047 0096 3A68     		ldr	r2, [r7]
 3048 0098 4FF48043 		mov	r3, #16384
 3049 009c C1F20003 		movt	r3, 4096
 3050 00a0 9A42     		cmp	r2, r3
 3051 00a2 51D0     		beq	.L144
 3052 00a4 3B68     		ldr	r3, [r7]
 3053 00a6 B3F1102F 		cmp	r3, #268439552
 3054 00aa 4DD0     		beq	.L144
 3055 00ac 3A68     		ldr	r2, [r7]
 3056 00ae 4FF40063 		mov	r3, #2048
 3057 00b2 C1F20003 		movt	r3, 4096
 3058 00b6 9A42     		cmp	r2, r3
 3059 00b8 46D0     		beq	.L144
 3060 00ba 3A68     		ldr	r2, [r7]
 3061 00bc 4FF48063 		mov	r3, #1024
 3062 00c0 C1F20003 		movt	r3, 4096
 3063 00c4 9A42     		cmp	r2, r3
 3064 00c6 3FD0     		beq	.L144
 3065 00c8 3A68     		ldr	r2, [r7]
 3066 00ca 4FF40073 		mov	r3, #512
 3067 00ce C1F20003 		movt	r3, 4096
 3068 00d2 9A42     		cmp	r2, r3
 3069 00d4 38D0     		beq	.L144
 3070 00d6 3A68     		ldr	r2, [r7]
 3071 00d8 4FF48073 		mov	r3, #256
 3072 00dc C1F20003 		movt	r3, 4096
 3073 00e0 9A42     		cmp	r2, r3
 3074 00e2 31D0     		beq	.L144
 3075 00e4 3A68     		ldr	r2, [r7]
 3076 00e6 8023     		movs	r3, #128
 3077 00e8 C1F20003 		movt	r3, 4096
 3078 00ec 9A42     		cmp	r2, r3
 3079 00ee 2BD0     		beq	.L144
 3080 00f0 3A68     		ldr	r2, [r7]
 3081 00f2 4023     		movs	r3, #64
 3082 00f4 C1F20003 		movt	r3, 4096
 3083 00f8 9A42     		cmp	r2, r3
 3084 00fa 25D0     		beq	.L144
 3085 00fc 3A68     		ldr	r2, [r7]
 3086 00fe 1023     		movs	r3, #16
 3087 0100 C1F20003 		movt	r3, 4096
 3088 0104 9A42     		cmp	r2, r3
 3089 0106 1FD0     		beq	.L144
 3090 0108 3A68     		ldr	r2, [r7]
 3091 010a 0823     		movs	r3, #8
 3092 010c C1F20003 		movt	r3, 4096
 3093 0110 9A42     		cmp	r2, r3
 3094 0112 19D0     		beq	.L144
 3095 0114 3A68     		ldr	r2, [r7]
 3096 0116 0423     		movs	r3, #4
 3097 0118 C1F20003 		movt	r3, 4096
 3098 011c 9A42     		cmp	r2, r3
 3099 011e 13D0     		beq	.L144
 3100 0120 3A68     		ldr	r2, [r7]
 3101 0122 0223     		movs	r3, #2
 3102 0124 C1F20003 		movt	r3, 4096
 3103 0128 9A42     		cmp	r2, r3
 3104 012a 0DD0     		beq	.L144
 3105 012c 3A68     		ldr	r2, [r7]
 3106 012e 0123     		movs	r3, #1
 3107 0130 C1F20003 		movt	r3, 4096
 3108 0134 9A42     		cmp	r2, r3
 3109 0136 07D0     		beq	.L144
 3110 0138 40F20000 		movw	r0, #:lower16:.LC0
 3111 013c C0F20000 		movt	r0, #:upper16:.LC0
 3112 0140 40F2B141 		movw	r1, #1201
 3113 0144 FFF7FEFF 		bl	assert_failed
 3114              	.L144:
1202:lib/chip/STM32F4xx_StdPeriph_Driver/src/stm32f4xx_i2c.c **** 
1203:lib/chip/STM32F4xx_StdPeriph_Driver/src/stm32f4xx_i2c.c ****   /* Get the I2Cx peripheral base address */
1204:lib/chip/STM32F4xx_StdPeriph_Driver/src/stm32f4xx_i2c.c ****   i2cxbase = (uint32_t)I2Cx;
 3115              		.loc 1 1204 0 is_stmt 1
 3116 0148 7B68     		ldr	r3, [r7, #4]
 3117 014a FB60     		str	r3, [r7, #12]
1205:lib/chip/STM32F4xx_StdPeriph_Driver/src/stm32f4xx_i2c.c ****   
1206:lib/chip/STM32F4xx_StdPeriph_Driver/src/stm32f4xx_i2c.c ****   /* Read flag register index */
1207:lib/chip/STM32F4xx_StdPeriph_Driver/src/stm32f4xx_i2c.c ****   i2creg = I2C_FLAG >> 28;
 3118              		.loc 1 1207 0
 3119 014c 3B68     		ldr	r3, [r7]
 3120 014e 1B0F     		lsrs	r3, r3, #28
 3121 0150 3B61     		str	r3, [r7, #16]
1208:lib/chip/STM32F4xx_StdPeriph_Driver/src/stm32f4xx_i2c.c ****   
1209:lib/chip/STM32F4xx_StdPeriph_Driver/src/stm32f4xx_i2c.c ****   /* Get bit[23:0] of the flag */
1210:lib/chip/STM32F4xx_StdPeriph_Driver/src/stm32f4xx_i2c.c ****   I2C_FLAG &= FLAG_MASK;
 3122              		.loc 1 1210 0
 3123 0152 3B68     		ldr	r3, [r7]
 3124 0154 23F07F43 		bic	r3, r3, #-16777216
 3125 0158 3B60     		str	r3, [r7]
1211:lib/chip/STM32F4xx_StdPeriph_Driver/src/stm32f4xx_i2c.c ****   
1212:lib/chip/STM32F4xx_StdPeriph_Driver/src/stm32f4xx_i2c.c ****   if(i2creg != 0)
 3126              		.loc 1 1212 0
 3127 015a 3B69     		ldr	r3, [r7, #16]
 3128 015c 002B     		cmp	r3, #0
 3129 015e 03D0     		beq	.L145
1213:lib/chip/STM32F4xx_StdPeriph_Driver/src/stm32f4xx_i2c.c ****   {
1214:lib/chip/STM32F4xx_StdPeriph_Driver/src/stm32f4xx_i2c.c ****     /* Get the I2Cx SR1 register address */
1215:lib/chip/STM32F4xx_StdPeriph_Driver/src/stm32f4xx_i2c.c ****     i2cxbase += 0x14;
 3130              		.loc 1 1215 0
 3131 0160 FB68     		ldr	r3, [r7, #12]
 3132 0162 1433     		adds	r3, r3, #20
 3133 0164 FB60     		str	r3, [r7, #12]
 3134 0166 05E0     		b	.L146
 3135              	.L145:
1216:lib/chip/STM32F4xx_StdPeriph_Driver/src/stm32f4xx_i2c.c ****   }
1217:lib/chip/STM32F4xx_StdPeriph_Driver/src/stm32f4xx_i2c.c ****   else
1218:lib/chip/STM32F4xx_StdPeriph_Driver/src/stm32f4xx_i2c.c ****   {
1219:lib/chip/STM32F4xx_StdPeriph_Driver/src/stm32f4xx_i2c.c ****     /* Flag in I2Cx SR2 Register */
1220:lib/chip/STM32F4xx_StdPeriph_Driver/src/stm32f4xx_i2c.c ****     I2C_FLAG = (uint32_t)(I2C_FLAG >> 16);
 3136              		.loc 1 1220 0
 3137 0168 3B68     		ldr	r3, [r7]
 3138 016a 1B0C     		lsrs	r3, r3, #16
 3139 016c 3B60     		str	r3, [r7]
1221:lib/chip/STM32F4xx_StdPeriph_Driver/src/stm32f4xx_i2c.c ****     /* Get the I2Cx SR2 register address */
1222:lib/chip/STM32F4xx_StdPeriph_Driver/src/stm32f4xx_i2c.c ****     i2cxbase += 0x18;
 3140              		.loc 1 1222 0
 3141 016e FB68     		ldr	r3, [r7, #12]
 3142 0170 1833     		adds	r3, r3, #24
 3143 0172 FB60     		str	r3, [r7, #12]
 3144              	.L146:
1223:lib/chip/STM32F4xx_StdPeriph_Driver/src/stm32f4xx_i2c.c ****   }
1224:lib/chip/STM32F4xx_StdPeriph_Driver/src/stm32f4xx_i2c.c ****   
1225:lib/chip/STM32F4xx_StdPeriph_Driver/src/stm32f4xx_i2c.c ****   if(((*(__IO uint32_t *)i2cxbase) & I2C_FLAG) != (uint32_t)RESET)
 3145              		.loc 1 1225 0
 3146 0174 FB68     		ldr	r3, [r7, #12]
 3147 0176 1A68     		ldr	r2, [r3]
 3148 0178 3B68     		ldr	r3, [r7]
 3149 017a 1340     		ands	r3, r3, r2
 3150 017c 002B     		cmp	r3, #0
 3151 017e 02D0     		beq	.L147
1226:lib/chip/STM32F4xx_StdPeriph_Driver/src/stm32f4xx_i2c.c ****   {
1227:lib/chip/STM32F4xx_StdPeriph_Driver/src/stm32f4xx_i2c.c ****     /* I2C_FLAG is set */
1228:lib/chip/STM32F4xx_StdPeriph_Driver/src/stm32f4xx_i2c.c ****     bitstatus = SET;
 3152              		.loc 1 1228 0
 3153 0180 0123     		movs	r3, #1
 3154 0182 FB75     		strb	r3, [r7, #23]
 3155 0184 01E0     		b	.L148
 3156              	.L147:
1229:lib/chip/STM32F4xx_StdPeriph_Driver/src/stm32f4xx_i2c.c ****   }
1230:lib/chip/STM32F4xx_StdPeriph_Driver/src/stm32f4xx_i2c.c ****   else
1231:lib/chip/STM32F4xx_StdPeriph_Driver/src/stm32f4xx_i2c.c ****   {
1232:lib/chip/STM32F4xx_StdPeriph_Driver/src/stm32f4xx_i2c.c ****     /* I2C_FLAG is reset */
1233:lib/chip/STM32F4xx_StdPeriph_Driver/src/stm32f4xx_i2c.c ****     bitstatus = RESET;
 3157              		.loc 1 1233 0
 3158 0186 0023     		movs	r3, #0
 3159 0188 FB75     		strb	r3, [r7, #23]
 3160              	.L148:
1234:lib/chip/STM32F4xx_StdPeriph_Driver/src/stm32f4xx_i2c.c ****   }
1235:lib/chip/STM32F4xx_StdPeriph_Driver/src/stm32f4xx_i2c.c ****   
1236:lib/chip/STM32F4xx_StdPeriph_Driver/src/stm32f4xx_i2c.c ****   /* Return the I2C_FLAG status */
1237:lib/chip/STM32F4xx_StdPeriph_Driver/src/stm32f4xx_i2c.c ****   return  bitstatus;
 3161              		.loc 1 1237 0
 3162 018a FB7D     		ldrb	r3, [r7, #23]	@ zero_extendqisi2
1238:lib/chip/STM32F4xx_StdPeriph_Driver/src/stm32f4xx_i2c.c **** }
 3163              		.loc 1 1238 0
 3164 018c 1846     		mov	r0, r3
 3165 018e 1837     		adds	r7, r7, #24
 3166 0190 BD46     		mov	sp, r7
 3167              		@ sp needed
 3168 0192 80BD     		pop	{r7, pc}
 3169              		.cfi_endproc
 3170              	.LFE139:
 3172              		.section	.text.I2C_ClearFlag,"ax",%progbits
 3173              		.align	2
 3174              		.global	I2C_ClearFlag
 3175              		.thumb
 3176              		.thumb_func
 3178              	I2C_ClearFlag:
 3179              	.LFB140:
1239:lib/chip/STM32F4xx_StdPeriph_Driver/src/stm32f4xx_i2c.c **** 
1240:lib/chip/STM32F4xx_StdPeriph_Driver/src/stm32f4xx_i2c.c **** /**
1241:lib/chip/STM32F4xx_StdPeriph_Driver/src/stm32f4xx_i2c.c ****   * @brief  Clears the I2Cx's pending flags.
1242:lib/chip/STM32F4xx_StdPeriph_Driver/src/stm32f4xx_i2c.c ****   * @param  I2Cx: where x can be 1, 2 or 3 to select the I2C peripheral.
1243:lib/chip/STM32F4xx_StdPeriph_Driver/src/stm32f4xx_i2c.c ****   * @param  I2C_FLAG: specifies the flag to clear. 
1244:lib/chip/STM32F4xx_StdPeriph_Driver/src/stm32f4xx_i2c.c ****   *          This parameter can be any combination of the following values:
1245:lib/chip/STM32F4xx_StdPeriph_Driver/src/stm32f4xx_i2c.c ****   *            @arg I2C_FLAG_SMBALERT: SMBus Alert flag
1246:lib/chip/STM32F4xx_StdPeriph_Driver/src/stm32f4xx_i2c.c ****   *            @arg I2C_FLAG_TIMEOUT: Timeout or Tlow error flag
1247:lib/chip/STM32F4xx_StdPeriph_Driver/src/stm32f4xx_i2c.c ****   *            @arg I2C_FLAG_PECERR: PEC error in reception flag
1248:lib/chip/STM32F4xx_StdPeriph_Driver/src/stm32f4xx_i2c.c ****   *            @arg I2C_FLAG_OVR: Overrun/Underrun flag (Slave mode)
1249:lib/chip/STM32F4xx_StdPeriph_Driver/src/stm32f4xx_i2c.c ****   *            @arg I2C_FLAG_AF: Acknowledge failure flag
1250:lib/chip/STM32F4xx_StdPeriph_Driver/src/stm32f4xx_i2c.c ****   *            @arg I2C_FLAG_ARLO: Arbitration lost flag (Master mode)
1251:lib/chip/STM32F4xx_StdPeriph_Driver/src/stm32f4xx_i2c.c ****   *            @arg I2C_FLAG_BERR: Bus error flag
1252:lib/chip/STM32F4xx_StdPeriph_Driver/src/stm32f4xx_i2c.c ****   *   
1253:lib/chip/STM32F4xx_StdPeriph_Driver/src/stm32f4xx_i2c.c ****   * @note   STOPF (STOP detection) is cleared by software sequence: a read operation 
1254:lib/chip/STM32F4xx_StdPeriph_Driver/src/stm32f4xx_i2c.c ****   *          to I2C_SR1 register (I2C_GetFlagStatus()) followed by a write operation 
1255:lib/chip/STM32F4xx_StdPeriph_Driver/src/stm32f4xx_i2c.c ****   *          to I2C_CR1 register (I2C_Cmd() to re-enable the I2C peripheral).
1256:lib/chip/STM32F4xx_StdPeriph_Driver/src/stm32f4xx_i2c.c ****   * @note   ADD10 (10-bit header sent) is cleared by software sequence: a read 
1257:lib/chip/STM32F4xx_StdPeriph_Driver/src/stm32f4xx_i2c.c ****   *          operation to I2C_SR1 (I2C_GetFlagStatus()) followed by writing the 
1258:lib/chip/STM32F4xx_StdPeriph_Driver/src/stm32f4xx_i2c.c ****   *          second byte of the address in DR register.
1259:lib/chip/STM32F4xx_StdPeriph_Driver/src/stm32f4xx_i2c.c ****   * @note   BTF (Byte Transfer Finished) is cleared by software sequence: a read 
1260:lib/chip/STM32F4xx_StdPeriph_Driver/src/stm32f4xx_i2c.c ****   *          operation to I2C_SR1 register (I2C_GetFlagStatus()) followed by a 
1261:lib/chip/STM32F4xx_StdPeriph_Driver/src/stm32f4xx_i2c.c ****   *          read/write to I2C_DR register (I2C_SendData()).
1262:lib/chip/STM32F4xx_StdPeriph_Driver/src/stm32f4xx_i2c.c ****   * @note   ADDR (Address sent) is cleared by software sequence: a read operation to 
1263:lib/chip/STM32F4xx_StdPeriph_Driver/src/stm32f4xx_i2c.c ****   *          I2C_SR1 register (I2C_GetFlagStatus()) followed by a read operation to 
1264:lib/chip/STM32F4xx_StdPeriph_Driver/src/stm32f4xx_i2c.c ****   *          I2C_SR2 register ((void)(I2Cx->SR2)).
1265:lib/chip/STM32F4xx_StdPeriph_Driver/src/stm32f4xx_i2c.c ****   * @note   SB (Start Bit) is cleared software sequence: a read operation to I2C_SR1
1266:lib/chip/STM32F4xx_StdPeriph_Driver/src/stm32f4xx_i2c.c ****   *          register (I2C_GetFlagStatus()) followed by a write operation to I2C_DR
1267:lib/chip/STM32F4xx_StdPeriph_Driver/src/stm32f4xx_i2c.c ****   *          register (I2C_SendData()).
1268:lib/chip/STM32F4xx_StdPeriph_Driver/src/stm32f4xx_i2c.c ****   *  
1269:lib/chip/STM32F4xx_StdPeriph_Driver/src/stm32f4xx_i2c.c ****   * @retval None
1270:lib/chip/STM32F4xx_StdPeriph_Driver/src/stm32f4xx_i2c.c ****   */
1271:lib/chip/STM32F4xx_StdPeriph_Driver/src/stm32f4xx_i2c.c **** void I2C_ClearFlag(I2C_TypeDef* I2Cx, uint32_t I2C_FLAG)
1272:lib/chip/STM32F4xx_StdPeriph_Driver/src/stm32f4xx_i2c.c **** {
 3180              		.loc 1 1272 0
 3181              		.cfi_startproc
 3182              		@ args = 0, pretend = 0, frame = 16
 3183              		@ frame_needed = 1, uses_anonymous_args = 0
 3184 0000 80B5     		push	{r7, lr}
 3185              	.LCFI90:
 3186              		.cfi_def_cfa_offset 8
 3187              		.cfi_offset 7, -8
 3188              		.cfi_offset 14, -4
 3189 0002 84B0     		sub	sp, sp, #16
 3190              	.LCFI91:
 3191              		.cfi_def_cfa_offset 24
 3192 0004 00AF     		add	r7, sp, #0
 3193              	.LCFI92:
 3194              		.cfi_def_cfa_register 7
 3195 0006 7860     		str	r0, [r7, #4]
 3196 0008 3960     		str	r1, [r7]
1273:lib/chip/STM32F4xx_StdPeriph_Driver/src/stm32f4xx_i2c.c ****   uint32_t flagpos = 0;
 3197              		.loc 1 1273 0
 3198 000a 0023     		movs	r3, #0
 3199 000c FB60     		str	r3, [r7, #12]
1274:lib/chip/STM32F4xx_StdPeriph_Driver/src/stm32f4xx_i2c.c ****   /* Check the parameters */
1275:lib/chip/STM32F4xx_StdPeriph_Driver/src/stm32f4xx_i2c.c ****   assert_param(IS_I2C_ALL_PERIPH(I2Cx));
 3200              		.loc 1 1275 0
 3201 000e 7A68     		ldr	r2, [r7, #4]
 3202 0010 4FF4A843 		mov	r3, #21504
 3203 0014 C4F20003 		movt	r3, 16384
 3204 0018 9A42     		cmp	r2, r3
 3205 001a 15D0     		beq	.L151
 3206              		.loc 1 1275 0 is_stmt 0 discriminator 1
 3207 001c 7A68     		ldr	r2, [r7, #4]
 3208 001e 4FF4B043 		mov	r3, #22528
 3209 0022 C4F20003 		movt	r3, 16384
 3210 0026 9A42     		cmp	r2, r3
 3211 0028 0ED0     		beq	.L151
 3212 002a 7A68     		ldr	r2, [r7, #4]
 3213 002c 4FF4B843 		mov	r3, #23552
 3214 0030 C4F20003 		movt	r3, 16384
